Archive member included because of file (symbol)

/Users/snowyang/workspace/MSP432_DriverLib_3_10_00_09/driverlib/MSP432P4xx/ccs/msp432p4xx_driverlib.lib(gpio.o)
                              ./Board/drv_VGM128064/oled.o (GPIO_setOutputHighOnPin)
/Users/snowyang/workspace/MSP432_DriverLib_3_10_00_09/driverlib/MSP432P4xx/ccs/msp432p4xx_driverlib.lib(i2c.o)
                              ./Board/helper/hal/mx_i2c.o (I2C_masterSendMultiByteStop)
/Users/snowyang/workspace/MSP432_DriverLib_3_10_00_09/driverlib/MSP432P4xx/ccs/msp432p4xx_driverlib.lib(interrupt.o)
                              /Users/snowyang/workspace/MSP432_DriverLib_3_10_00_09/driverlib/MSP432P4xx/ccs/msp432p4xx_driverlib.lib(gpio.o) (Interrupt_disableInterrupt)
/Users/snowyang/workspace/MSP432_DriverLib_3_10_00_09/driverlib/MSP432P4xx/ccs/msp432p4xx_driverlib.lib(uart.o)
                              ./Board/helper/hal/mx_serial.o (UART_registerInterrupt)
/Users/snowyang/workspace/MSP432_DriverLib_3_10_00_09/driverlib/MSP432P4xx/ccs/msp432p4xx_driverlib.lib(cpu.o)
                              /Users/snowyang/workspace/MSP432_DriverLib_3_10_00_09/driverlib/MSP432P4xx/ccs/msp432p4xx_driverlib.lib(interrupt.o) (CPU_basepriSet)
/Applications/ti/ccsv6/tools/compiler/gcc-arm-none-eabi-4_9-2015q3/bin/../lib/gcc/arm-none-eabi/4.9.3/../../../../arm-none-eabi/lib/armv7e-m/fpu/libm.a(lib_a-w_pow.o)
                              ./Board/drv_color_led/hsb2rgb.o (pow)
/Applications/ti/ccsv6/tools/compiler/gcc-arm-none-eabi-4_9-2015q3/bin/../lib/gcc/arm-none-eabi/4.9.3/../../../../arm-none-eabi/lib/armv7e-m/fpu/libm.a(lib_a-e_pow.o)
                              /Applications/ti/ccsv6/tools/compiler/gcc-arm-none-eabi-4_9-2015q3/bin/../lib/gcc/arm-none-eabi/4.9.3/../../../../arm-none-eabi/lib/armv7e-m/fpu/libm.a(lib_a-w_pow.o) (__ieee754_pow)
/Applications/ti/ccsv6/tools/compiler/gcc-arm-none-eabi-4_9-2015q3/bin/../lib/gcc/arm-none-eabi/4.9.3/../../../../arm-none-eabi/lib/armv7e-m/fpu/libm.a(lib_a-e_sqrt.o)
                              /Applications/ti/ccsv6/tools/compiler/gcc-arm-none-eabi-4_9-2015q3/bin/../lib/gcc/arm-none-eabi/4.9.3/../../../../arm-none-eabi/lib/armv7e-m/fpu/libm.a(lib_a-e_pow.o) (__ieee754_sqrt)
/Applications/ti/ccsv6/tools/compiler/gcc-arm-none-eabi-4_9-2015q3/bin/../lib/gcc/arm-none-eabi/4.9.3/../../../../arm-none-eabi/lib/armv7e-m/fpu/libm.a(lib_a-s_fabs.o)
                              /Applications/ti/ccsv6/tools/compiler/gcc-arm-none-eabi-4_9-2015q3/bin/../lib/gcc/arm-none-eabi/4.9.3/../../../../arm-none-eabi/lib/armv7e-m/fpu/libm.a(lib_a-e_pow.o) (fabs)
/Applications/ti/ccsv6/tools/compiler/gcc-arm-none-eabi-4_9-2015q3/bin/../lib/gcc/arm-none-eabi/4.9.3/../../../../arm-none-eabi/lib/armv7e-m/fpu/libm.a(lib_a-s_finite.o)
                              /Applications/ti/ccsv6/tools/compiler/gcc-arm-none-eabi-4_9-2015q3/bin/../lib/gcc/arm-none-eabi/4.9.3/../../../../arm-none-eabi/lib/armv7e-m/fpu/libm.a(lib_a-w_pow.o) (finite)
/Applications/ti/ccsv6/tools/compiler/gcc-arm-none-eabi-4_9-2015q3/bin/../lib/gcc/arm-none-eabi/4.9.3/../../../../arm-none-eabi/lib/armv7e-m/fpu/libm.a(lib_a-s_fpclassify.o)
                              /Applications/ti/ccsv6/tools/compiler/gcc-arm-none-eabi-4_9-2015q3/bin/../lib/gcc/arm-none-eabi/4.9.3/../../../../arm-none-eabi/lib/armv7e-m/fpu/libm.a(lib_a-w_pow.o) (__fpclassifyd)
/Applications/ti/ccsv6/tools/compiler/gcc-arm-none-eabi-4_9-2015q3/bin/../lib/gcc/arm-none-eabi/4.9.3/../../../../arm-none-eabi/lib/armv7e-m/fpu/libm.a(lib_a-s_lib_ver.o)
                              /Applications/ti/ccsv6/tools/compiler/gcc-arm-none-eabi-4_9-2015q3/bin/../lib/gcc/arm-none-eabi/4.9.3/../../../../arm-none-eabi/lib/armv7e-m/fpu/libm.a(lib_a-w_pow.o) (__fdlib_version)
/Applications/ti/ccsv6/tools/compiler/gcc-arm-none-eabi-4_9-2015q3/bin/../lib/gcc/arm-none-eabi/4.9.3/../../../../arm-none-eabi/lib/armv7e-m/fpu/libm.a(lib_a-s_matherr.o)
                              /Applications/ti/ccsv6/tools/compiler/gcc-arm-none-eabi-4_9-2015q3/bin/../lib/gcc/arm-none-eabi/4.9.3/../../../../arm-none-eabi/lib/armv7e-m/fpu/libm.a(lib_a-w_pow.o) (matherr)
/Applications/ti/ccsv6/tools/compiler/gcc-arm-none-eabi-4_9-2015q3/bin/../lib/gcc/arm-none-eabi/4.9.3/../../../../arm-none-eabi/lib/armv7e-m/fpu/libm.a(lib_a-s_nan.o)
                              /Applications/ti/ccsv6/tools/compiler/gcc-arm-none-eabi-4_9-2015q3/bin/../lib/gcc/arm-none-eabi/4.9.3/../../../../arm-none-eabi/lib/armv7e-m/fpu/libm.a(lib_a-e_pow.o) (nan)
/Applications/ti/ccsv6/tools/compiler/gcc-arm-none-eabi-4_9-2015q3/bin/../lib/gcc/arm-none-eabi/4.9.3/../../../../arm-none-eabi/lib/armv7e-m/fpu/libm.a(lib_a-s_rint.o)
                              /Applications/ti/ccsv6/tools/compiler/gcc-arm-none-eabi-4_9-2015q3/bin/../lib/gcc/arm-none-eabi/4.9.3/../../../../arm-none-eabi/lib/armv7e-m/fpu/libm.a(lib_a-w_pow.o) (rint)
/Applications/ti/ccsv6/tools/compiler/gcc-arm-none-eabi-4_9-2015q3/bin/../lib/gcc/arm-none-eabi/4.9.3/../../../../arm-none-eabi/lib/armv7e-m/fpu/libm.a(lib_a-s_scalbn.o)
                              /Applications/ti/ccsv6/tools/compiler/gcc-arm-none-eabi-4_9-2015q3/bin/../lib/gcc/arm-none-eabi/4.9.3/../../../../arm-none-eabi/lib/armv7e-m/fpu/libm.a(lib_a-e_pow.o) (scalbn)
/Applications/ti/ccsv6/tools/compiler/gcc-arm-none-eabi-4_9-2015q3/bin/../lib/gcc/arm-none-eabi/4.9.3/../../../../arm-none-eabi/lib/armv7e-m/fpu/libm.a(lib_a-s_copysign.o)
                              /Applications/ti/ccsv6/tools/compiler/gcc-arm-none-eabi-4_9-2015q3/bin/../lib/gcc/arm-none-eabi/4.9.3/../../../../arm-none-eabi/lib/armv7e-m/fpu/libm.a(lib_a-s_scalbn.o) (copysign)
/Applications/ti/ccsv6/tools/compiler/gcc-arm-none-eabi-4_9-2015q3/bin/../lib/gcc/arm-none-eabi/4.9.3/../../../../arm-none-eabi/lib/armv7e-m/fpu/libc.a(lib_a-assert.o)
                              ./aos/soc_impl.o (__assert_func)
/Applications/ti/ccsv6/tools/compiler/gcc-arm-none-eabi-4_9-2015q3/bin/../lib/gcc/arm-none-eabi/4.9.3/../../../../arm-none-eabi/lib/armv7e-m/fpu/libc.a(lib_a-calloc.o)
                              ./Board/helper/jsmn/json_escape_str.o (calloc)
/Applications/ti/ccsv6/tools/compiler/gcc-arm-none-eabi-4_9-2015q3/bin/../lib/gcc/arm-none-eabi/4.9.3/../../../../arm-none-eabi/lib/armv7e-m/fpu/libc.a(lib_a-callocr.o)
                              /Applications/ti/ccsv6/tools/compiler/gcc-arm-none-eabi-4_9-2015q3/bin/../lib/gcc/arm-none-eabi/4.9.3/../../../../arm-none-eabi/lib/armv7e-m/fpu/libc.a(lib_a-calloc.o) (_calloc_r)
/Applications/ti/ccsv6/tools/compiler/gcc-arm-none-eabi-4_9-2015q3/bin/../lib/gcc/arm-none-eabi/4.9.3/../../../../arm-none-eabi/lib/armv7e-m/fpu/libc.a(lib_a-errno.o)
                              /Applications/ti/ccsv6/tools/compiler/gcc-arm-none-eabi-4_9-2015q3/bin/../lib/gcc/arm-none-eabi/4.9.3/../../../../arm-none-eabi/lib/armv7e-m/fpu/libm.a(lib_a-w_pow.o) (__errno)
/Applications/ti/ccsv6/tools/compiler/gcc-arm-none-eabi-4_9-2015q3/bin/../lib/gcc/arm-none-eabi/4.9.3/../../../../arm-none-eabi/lib/armv7e-m/fpu/libc.a(lib_a-exit.o)
                              /Applications/ti/ccsv6/tools/compiler/gcc-arm-none-eabi-4_9-2015q3/bin/../lib/gcc/arm-none-eabi/4.9.3/../../../../arm-none-eabi/lib/armv7e-m/fpu/crt0.o (exit)
/Applications/ti/ccsv6/tools/compiler/gcc-arm-none-eabi-4_9-2015q3/bin/../lib/gcc/arm-none-eabi/4.9.3/../../../../arm-none-eabi/lib/armv7e-m/fpu/libc.a(lib_a-fiprintf.o)
                              /Applications/ti/ccsv6/tools/compiler/gcc-arm-none-eabi-4_9-2015q3/bin/../lib/gcc/arm-none-eabi/4.9.3/../../../../arm-none-eabi/lib/armv7e-m/fpu/libc.a(lib_a-assert.o) (fiprintf)
/Applications/ti/ccsv6/tools/compiler/gcc-arm-none-eabi-4_9-2015q3/bin/../lib/gcc/arm-none-eabi/4.9.3/../../../../arm-none-eabi/lib/armv7e-m/fpu/libc.a(lib_a-impure.o)
                              /Applications/ti/ccsv6/tools/compiler/gcc-arm-none-eabi-4_9-2015q3/bin/../lib/gcc/arm-none-eabi/4.9.3/../../../../arm-none-eabi/lib/armv7e-m/fpu/libc.a(lib_a-exit.o) (_global_impure_ptr)
/Applications/ti/ccsv6/tools/compiler/gcc-arm-none-eabi-4_9-2015q3/bin/../lib/gcc/arm-none-eabi/4.9.3/../../../../arm-none-eabi/lib/armv7e-m/fpu/libc.a(lib_a-init.o)
                              /Applications/ti/ccsv6/tools/compiler/gcc-arm-none-eabi-4_9-2015q3/bin/../lib/gcc/arm-none-eabi/4.9.3/../../../../arm-none-eabi/lib/armv7e-m/fpu/crt0.o (__libc_init_array)
/Applications/ti/ccsv6/tools/compiler/gcc-arm-none-eabi-4_9-2015q3/bin/../lib/gcc/arm-none-eabi/4.9.3/../../../../arm-none-eabi/lib/armv7e-m/fpu/libc.a(lib_a-malloc.o)
                              ./Board/AliCloud_SDS/alicloud_sds.o (malloc)
/Applications/ti/ccsv6/tools/compiler/gcc-arm-none-eabi-4_9-2015q3/bin/../lib/gcc/arm-none-eabi/4.9.3/../../../../arm-none-eabi/lib/armv7e-m/fpu/libc.a(lib_a-mallocr.o)
                              /Applications/ti/ccsv6/tools/compiler/gcc-arm-none-eabi-4_9-2015q3/bin/../lib/gcc/arm-none-eabi/4.9.3/../../../../arm-none-eabi/lib/armv7e-m/fpu/libc.a(lib_a-callocr.o) (_malloc_r)
/Applications/ti/ccsv6/tools/compiler/gcc-arm-none-eabi-4_9-2015q3/bin/../lib/gcc/arm-none-eabi/4.9.3/../../../../arm-none-eabi/lib/armv7e-m/fpu/libc.a(lib_a-memcmp.o)
                              ./Board/helper/emhost/ATCmdParser/ATCmdParser.o (memcmp)
/Applications/ti/ccsv6/tools/compiler/gcc-arm-none-eabi-4_9-2015q3/bin/../lib/gcc/arm-none-eabi/4.9.3/../../../../arm-none-eabi/lib/armv7e-m/fpu/libc.a(lib_a-memcpy.o)
                              ./Board/helper/emhost/ATCmdParser/ATCmdParser.o (memcpy)
/Applications/ti/ccsv6/tools/compiler/gcc-arm-none-eabi-4_9-2015q3/bin/../lib/gcc/arm-none-eabi/4.9.3/../../../../arm-none-eabi/lib/armv7e-m/fpu/libc.a(lib_a-memset.o)
                              /Applications/ti/ccsv6/tools/compiler/gcc-arm-none-eabi-4_9-2015q3/bin/../lib/gcc/arm-none-eabi/4.9.3/../../../../arm-none-eabi/lib/armv7e-m/fpu/crt0.o (memset)
/Applications/ti/ccsv6/tools/compiler/gcc-arm-none-eabi-4_9-2015q3/bin/../lib/gcc/arm-none-eabi/4.9.3/../../../../arm-none-eabi/lib/armv7e-m/fpu/libc.a(lib_a-mlock.o)
                              /Applications/ti/ccsv6/tools/compiler/gcc-arm-none-eabi-4_9-2015q3/bin/../lib/gcc/arm-none-eabi/4.9.3/../../../../arm-none-eabi/lib/armv7e-m/fpu/libc.a(lib_a-mallocr.o) (__malloc_lock)
/Applications/ti/ccsv6/tools/compiler/gcc-arm-none-eabi-4_9-2015q3/bin/../lib/gcc/arm-none-eabi/4.9.3/../../../../arm-none-eabi/lib/armv7e-m/fpu/libc.a(lib_a-printf.o)
                              ./app_console.o (printf)
/Applications/ti/ccsv6/tools/compiler/gcc-arm-none-eabi-4_9-2015q3/bin/../lib/gcc/arm-none-eabi/4.9.3/../../../../arm-none-eabi/lib/armv7e-m/fpu/libc.a(lib_a-puts.o)
                              ./Board/drv_VGM128064/oled.o (puts)
/Applications/ti/ccsv6/tools/compiler/gcc-arm-none-eabi-4_9-2015q3/bin/../lib/gcc/arm-none-eabi/4.9.3/../../../../arm-none-eabi/lib/armv7e-m/fpu/libc.a(lib_a-realloc.o)
                              ./Board/helper/jsmn/json_escape_str.o (realloc)
/Applications/ti/ccsv6/tools/compiler/gcc-arm-none-eabi-4_9-2015q3/bin/../lib/gcc/arm-none-eabi/4.9.3/../../../../arm-none-eabi/lib/armv7e-m/fpu/libc.a(lib_a-reallocr.o)
                              /Applications/ti/ccsv6/tools/compiler/gcc-arm-none-eabi-4_9-2015q3/bin/../lib/gcc/arm-none-eabi/4.9.3/../../../../arm-none-eabi/lib/armv7e-m/fpu/libc.a(lib_a-realloc.o) (_realloc_r)
/Applications/ti/ccsv6/tools/compiler/gcc-arm-none-eabi-4_9-2015q3/bin/../lib/gcc/arm-none-eabi/4.9.3/../../../../arm-none-eabi/lib/armv7e-m/fpu/libc.a(lib_a-sbrkr.o)
                              /Applications/ti/ccsv6/tools/compiler/gcc-arm-none-eabi-4_9-2015q3/bin/../lib/gcc/arm-none-eabi/4.9.3/../../../../arm-none-eabi/lib/armv7e-m/fpu/libc.a(lib_a-mallocr.o) (_sbrk_r)
/Applications/ti/ccsv6/tools/compiler/gcc-arm-none-eabi-4_9-2015q3/bin/../lib/gcc/arm-none-eabi/4.9.3/../../../../arm-none-eabi/lib/armv7e-m/fpu/libc.a(lib_a-snprintf.o)
                              ./Board/AliCloud_SDS/alicloud_sds.o (snprintf)
/Applications/ti/ccsv6/tools/compiler/gcc-arm-none-eabi-4_9-2015q3/bin/../lib/gcc/arm-none-eabi/4.9.3/../../../../arm-none-eabi/lib/armv7e-m/fpu/libc.a(lib_a-sprintf.o)
                              ./app_sht20.o (sprintf)
/Applications/ti/ccsv6/tools/compiler/gcc-arm-none-eabi-4_9-2015q3/bin/../lib/gcc/arm-none-eabi/4.9.3/../../../../arm-none-eabi/lib/armv7e-m/fpu/libc.a(lib_a-sscanf.o)
                              ./Board/AliCloud_SDS/alicloud_sds.o (sscanf)
/Applications/ti/ccsv6/tools/compiler/gcc-arm-none-eabi-4_9-2015q3/bin/../lib/gcc/arm-none-eabi/4.9.3/../../../../arm-none-eabi/lib/armv7e-m/fpu/libc.a(lib_a-stdio.o)
                              /Applications/ti/ccsv6/tools/compiler/gcc-arm-none-eabi-4_9-2015q3/bin/../lib/gcc/arm-none-eabi/4.9.3/../../../../arm-none-eabi/lib/armv7e-m/fpu/libc.a(lib_a-sscanf.o) (__seofread)
/Applications/ti/ccsv6/tools/compiler/gcc-arm-none-eabi-4_9-2015q3/bin/../lib/gcc/arm-none-eabi/4.9.3/../../../../arm-none-eabi/lib/armv7e-m/fpu/libc.a(lib_a-strcmp.o)
                              ./Board/AliCloud_SDS/alicloud_sds.o (strcmp)
/Applications/ti/ccsv6/tools/compiler/gcc-arm-none-eabi-4_9-2015q3/bin/../lib/gcc/arm-none-eabi/4.9.3/../../../../arm-none-eabi/lib/armv7e-m/fpu/libc.a(lib_a-strcpy.o)
                              ./Board/helper/emhost/emh_wlan.o (strcpy)
/Applications/ti/ccsv6/tools/compiler/gcc-arm-none-eabi-4_9-2015q3/bin/../lib/gcc/arm-none-eabi/4.9.3/../../../../arm-none-eabi/lib/armv7e-m/fpu/libc.a(lib_a-strlen.o)
                              ./Board/AliCloud_SDS/alicloud_sds.o (strlen)
/Applications/ti/ccsv6/tools/compiler/gcc-arm-none-eabi-4_9-2015q3/bin/../lib/gcc/arm-none-eabi/4.9.3/../../../../arm-none-eabi/lib/armv7e-m/fpu/libc.a(lib_a-strncmp.o)
                              ./Board/helper/jsmn/json_wrappers.o (strncmp)
/Applications/ti/ccsv6/tools/compiler/gcc-arm-none-eabi-4_9-2015q3/bin/../lib/gcc/arm-none-eabi/4.9.3/../../../../arm-none-eabi/lib/armv7e-m/fpu/libc.a(lib_a-strncpy.o)
                              ./app_console.o (strncpy)
/Applications/ti/ccsv6/tools/compiler/gcc-arm-none-eabi-4_9-2015q3/bin/../lib/gcc/arm-none-eabi/4.9.3/../../../../arm-none-eabi/lib/armv7e-m/fpu/libc.a(lib_a-strtoul.o)
                              ./Board/helper/jsmn/json_utils.o (strtoul)
/Applications/ti/ccsv6/tools/compiler/gcc-arm-none-eabi-4_9-2015q3/bin/../lib/gcc/arm-none-eabi/4.9.3/../../../../arm-none-eabi/lib/armv7e-m/fpu/libc.a(lib_a-strtoull.o)
                              ./Board/helper/jsmn/json_wrappers.o (strtoull)
/Applications/ti/ccsv6/tools/compiler/gcc-arm-none-eabi-4_9-2015q3/bin/../lib/gcc/arm-none-eabi/4.9.3/../../../../arm-none-eabi/lib/armv7e-m/fpu/libc.a(lib_a-strtoull_r.o)
                              /Applications/ti/ccsv6/tools/compiler/gcc-arm-none-eabi-4_9-2015q3/bin/../lib/gcc/arm-none-eabi/4.9.3/../../../../arm-none-eabi/lib/armv7e-m/fpu/libc.a(lib_a-strtoull.o) (_strtoull_r)
/Applications/ti/ccsv6/tools/compiler/gcc-arm-none-eabi-4_9-2015q3/bin/../lib/gcc/arm-none-eabi/4.9.3/../../../../arm-none-eabi/lib/armv7e-m/fpu/libc.a(lib_a-svfprintf.o)
                              /Applications/ti/ccsv6/tools/compiler/gcc-arm-none-eabi-4_9-2015q3/bin/../lib/gcc/arm-none-eabi/4.9.3/../../../../arm-none-eabi/lib/armv7e-m/fpu/libc.a(lib_a-snprintf.o) (_svfprintf_r)
/Applications/ti/ccsv6/tools/compiler/gcc-arm-none-eabi-4_9-2015q3/bin/../lib/gcc/arm-none-eabi/4.9.3/../../../../arm-none-eabi/lib/armv7e-m/fpu/libc.a(lib_a-svfscanf.o)
                              /Applications/ti/ccsv6/tools/compiler/gcc-arm-none-eabi-4_9-2015q3/bin/../lib/gcc/arm-none-eabi/4.9.3/../../../../arm-none-eabi/lib/armv7e-m/fpu/libc.a(lib_a-sscanf.o) (__ssvfscanf_r)
/Applications/ti/ccsv6/tools/compiler/gcc-arm-none-eabi-4_9-2015q3/bin/../lib/gcc/arm-none-eabi/4.9.3/../../../../arm-none-eabi/lib/armv7e-m/fpu/libc.a(lib_a-vfiprintf.o)
                              /Applications/ti/ccsv6/tools/compiler/gcc-arm-none-eabi-4_9-2015q3/bin/../lib/gcc/arm-none-eabi/4.9.3/../../../../arm-none-eabi/lib/armv7e-m/fpu/libc.a(lib_a-fiprintf.o) (_vfiprintf_r)
/Applications/ti/ccsv6/tools/compiler/gcc-arm-none-eabi-4_9-2015q3/bin/../lib/gcc/arm-none-eabi/4.9.3/../../../../arm-none-eabi/lib/armv7e-m/fpu/libc.a(lib_a-vfprintf.o)
                              /Applications/ti/ccsv6/tools/compiler/gcc-arm-none-eabi-4_9-2015q3/bin/../lib/gcc/arm-none-eabi/4.9.3/../../../../arm-none-eabi/lib/armv7e-m/fpu/libc.a(lib_a-printf.o) (_vfprintf_r)
/Applications/ti/ccsv6/tools/compiler/gcc-arm-none-eabi-4_9-2015q3/bin/../lib/gcc/arm-none-eabi/4.9.3/../../../../arm-none-eabi/lib/armv7e-m/fpu/libc.a(lib_a-vprintf.o)
                              ./Board/helper/emhost/ATCmdParser/ATCmdParser.o (vprintf)
/Applications/ti/ccsv6/tools/compiler/gcc-arm-none-eabi-4_9-2015q3/bin/../lib/gcc/arm-none-eabi/4.9.3/../../../../arm-none-eabi/lib/armv7e-m/fpu/libc.a(lib_a-vsprintf.o)
                              ./Board/helper/emhost/ATCmdParser/ATCmdParser.o (vsprintf)
/Applications/ti/ccsv6/tools/compiler/gcc-arm-none-eabi-4_9-2015q3/bin/../lib/gcc/arm-none-eabi/4.9.3/../../../../arm-none-eabi/lib/armv7e-m/fpu/libc.a(lib_a-vsscanf.o)
                              ./Board/helper/emhost/ATCmdParser/ATCmdParser.o (vsscanf)
/Applications/ti/ccsv6/tools/compiler/gcc-arm-none-eabi-4_9-2015q3/bin/../lib/gcc/arm-none-eabi/4.9.3/../../../../arm-none-eabi/lib/armv7e-m/fpu/libc.a(lib_a-writer.o)
                              /Applications/ti/ccsv6/tools/compiler/gcc-arm-none-eabi-4_9-2015q3/bin/../lib/gcc/arm-none-eabi/4.9.3/../../../../arm-none-eabi/lib/armv7e-m/fpu/libc.a(lib_a-stdio.o) (_write_r)
/Applications/ti/ccsv6/tools/compiler/gcc-arm-none-eabi-4_9-2015q3/bin/../lib/gcc/arm-none-eabi/4.9.3/../../../../arm-none-eabi/lib/armv7e-m/fpu/libc.a(lib_a-wsetup.o)
                              /Applications/ti/ccsv6/tools/compiler/gcc-arm-none-eabi-4_9-2015q3/bin/../lib/gcc/arm-none-eabi/4.9.3/../../../../arm-none-eabi/lib/armv7e-m/fpu/libc.a(lib_a-vfiprintf.o) (__swsetup_r)
/Applications/ti/ccsv6/tools/compiler/gcc-arm-none-eabi-4_9-2015q3/bin/../lib/gcc/arm-none-eabi/4.9.3/../../../../arm-none-eabi/lib/armv7e-m/fpu/libc.a(lib_a-__call_atexit.o)
                              /Applications/ti/ccsv6/tools/compiler/gcc-arm-none-eabi-4_9-2015q3/bin/../lib/gcc/arm-none-eabi/4.9.3/../../../../arm-none-eabi/lib/armv7e-m/fpu/libc.a(lib_a-exit.o) (__call_exitprocs)
/Applications/ti/ccsv6/tools/compiler/gcc-arm-none-eabi-4_9-2015q3/bin/../lib/gcc/arm-none-eabi/4.9.3/../../../../arm-none-eabi/lib/armv7e-m/fpu/libc.a(lib_a-abort.o)
                              /Applications/ti/ccsv6/tools/compiler/gcc-arm-none-eabi-4_9-2015q3/bin/../lib/gcc/arm-none-eabi/4.9.3/../../../../arm-none-eabi/lib/armv7e-m/fpu/libc.a(lib_a-assert.o) (abort)
/Applications/ti/ccsv6/tools/compiler/gcc-arm-none-eabi-4_9-2015q3/bin/../lib/gcc/arm-none-eabi/4.9.3/../../../../arm-none-eabi/lib/armv7e-m/fpu/libc.a(lib_a-atexit.o)
                              /Applications/ti/ccsv6/tools/compiler/gcc-arm-none-eabi-4_9-2015q3/bin/../lib/gcc/arm-none-eabi/4.9.3/../../../../arm-none-eabi/lib/armv7e-m/fpu/libc.a(lib_a-__call_atexit.o) (atexit)
/Applications/ti/ccsv6/tools/compiler/gcc-arm-none-eabi-4_9-2015q3/bin/../lib/gcc/arm-none-eabi/4.9.3/../../../../arm-none-eabi/lib/armv7e-m/fpu/libc.a(lib_a-closer.o)
                              /Applications/ti/ccsv6/tools/compiler/gcc-arm-none-eabi-4_9-2015q3/bin/../lib/gcc/arm-none-eabi/4.9.3/../../../../arm-none-eabi/lib/armv7e-m/fpu/libc.a(lib_a-stdio.o) (_close_r)
/Applications/ti/ccsv6/tools/compiler/gcc-arm-none-eabi-4_9-2015q3/bin/../lib/gcc/arm-none-eabi/4.9.3/../../../../arm-none-eabi/lib/armv7e-m/fpu/libc.a(lib_a-ctype_.o)
                              /Applications/ti/ccsv6/tools/compiler/gcc-arm-none-eabi-4_9-2015q3/bin/../lib/gcc/arm-none-eabi/4.9.3/../../../../arm-none-eabi/lib/armv7e-m/fpu/libc.a(lib_a-strtoul.o) (__ctype_ptr__)
/Applications/ti/ccsv6/tools/compiler/gcc-arm-none-eabi-4_9-2015q3/bin/../lib/gcc/arm-none-eabi/4.9.3/../../../../arm-none-eabi/lib/armv7e-m/fpu/libc.a(lib_a-dtoa.o)
                              /Applications/ti/ccsv6/tools/compiler/gcc-arm-none-eabi-4_9-2015q3/bin/../lib/gcc/arm-none-eabi/4.9.3/../../../../arm-none-eabi/lib/armv7e-m/fpu/libc.a(lib_a-svfprintf.o) (_dtoa_r)
/Applications/ti/ccsv6/tools/compiler/gcc-arm-none-eabi-4_9-2015q3/bin/../lib/gcc/arm-none-eabi/4.9.3/../../../../arm-none-eabi/lib/armv7e-m/fpu/libc.a(lib_a-fflush.o)
                              /Applications/ti/ccsv6/tools/compiler/gcc-arm-none-eabi-4_9-2015q3/bin/../lib/gcc/arm-none-eabi/4.9.3/../../../../arm-none-eabi/lib/armv7e-m/fpu/libc.a(lib_a-vfiprintf.o) (_fflush_r)
/Applications/ti/ccsv6/tools/compiler/gcc-arm-none-eabi-4_9-2015q3/bin/../lib/gcc/arm-none-eabi/4.9.3/../../../../arm-none-eabi/lib/armv7e-m/fpu/libc.a(lib_a-findfp.o)
                              /Applications/ti/ccsv6/tools/compiler/gcc-arm-none-eabi-4_9-2015q3/bin/../lib/gcc/arm-none-eabi/4.9.3/../../../../arm-none-eabi/lib/armv7e-m/fpu/libc.a(lib_a-puts.o) (__sinit)
/Applications/ti/ccsv6/tools/compiler/gcc-arm-none-eabi-4_9-2015q3/bin/../lib/gcc/arm-none-eabi/4.9.3/../../../../arm-none-eabi/lib/armv7e-m/fpu/libc.a(lib_a-fini.o)
                              /Applications/ti/ccsv6/tools/compiler/gcc-arm-none-eabi-4_9-2015q3/bin/../lib/gcc/arm-none-eabi/4.9.3/../../../../arm-none-eabi/lib/armv7e-m/fpu/libc.a(lib_a-__call_atexit.o) (__libc_fini_array)
/Applications/ti/ccsv6/tools/compiler/gcc-arm-none-eabi-4_9-2015q3/bin/../lib/gcc/arm-none-eabi/4.9.3/../../../../arm-none-eabi/lib/armv7e-m/fpu/libc.a(lib_a-fputwc.o)
                              /Applications/ti/ccsv6/tools/compiler/gcc-arm-none-eabi-4_9-2015q3/bin/../lib/gcc/arm-none-eabi/4.9.3/../../../../arm-none-eabi/lib/armv7e-m/fpu/libc.a(lib_a-vfiprintf.o) (_fputwc_r)
/Applications/ti/ccsv6/tools/compiler/gcc-arm-none-eabi-4_9-2015q3/bin/../lib/gcc/arm-none-eabi/4.9.3/../../../../arm-none-eabi/lib/armv7e-m/fpu/libc.a(lib_a-freer.o)
                              /Applications/ti/ccsv6/tools/compiler/gcc-arm-none-eabi-4_9-2015q3/bin/../lib/gcc/arm-none-eabi/4.9.3/../../../../arm-none-eabi/lib/armv7e-m/fpu/libc.a(lib_a-malloc.o) (_free_r)
/Applications/ti/ccsv6/tools/compiler/gcc-arm-none-eabi-4_9-2015q3/bin/../lib/gcc/arm-none-eabi/4.9.3/../../../../arm-none-eabi/lib/armv7e-m/fpu/libc.a(lib_a-fvwrite.o)
                              /Applications/ti/ccsv6/tools/compiler/gcc-arm-none-eabi-4_9-2015q3/bin/../lib/gcc/arm-none-eabi/4.9.3/../../../../arm-none-eabi/lib/armv7e-m/fpu/libc.a(lib_a-puts.o) (__sfvwrite_r)
/Applications/ti/ccsv6/tools/compiler/gcc-arm-none-eabi-4_9-2015q3/bin/../lib/gcc/arm-none-eabi/4.9.3/../../../../arm-none-eabi/lib/armv7e-m/fpu/libc.a(lib_a-fwalk.o)
                              /Applications/ti/ccsv6/tools/compiler/gcc-arm-none-eabi-4_9-2015q3/bin/../lib/gcc/arm-none-eabi/4.9.3/../../../../arm-none-eabi/lib/armv7e-m/fpu/libc.a(lib_a-findfp.o) (_fwalk)
/Applications/ti/ccsv6/tools/compiler/gcc-arm-none-eabi-4_9-2015q3/bin/../lib/gcc/arm-none-eabi/4.9.3/../../../../arm-none-eabi/lib/armv7e-m/fpu/libc.a(lib_a-iswspace.o)
                              /Applications/ti/ccsv6/tools/compiler/gcc-arm-none-eabi-4_9-2015q3/bin/../lib/gcc/arm-none-eabi/4.9.3/../../../../arm-none-eabi/lib/armv7e-m/fpu/libc.a(lib_a-svfscanf.o) (iswspace)
/Applications/ti/ccsv6/tools/compiler/gcc-arm-none-eabi-4_9-2015q3/bin/../lib/gcc/arm-none-eabi/4.9.3/../../../../arm-none-eabi/lib/armv7e-m/fpu/libc.a(lib_a-locale.o)
                              /Applications/ti/ccsv6/tools/compiler/gcc-arm-none-eabi-4_9-2015q3/bin/../lib/gcc/arm-none-eabi/4.9.3/../../../../arm-none-eabi/lib/armv7e-m/fpu/libc.a(lib_a-svfscanf.o) (__locale_mb_cur_max)
/Applications/ti/ccsv6/tools/compiler/gcc-arm-none-eabi-4_9-2015q3/bin/../lib/gcc/arm-none-eabi/4.9.3/../../../../arm-none-eabi/lib/armv7e-m/fpu/libc.a(lib_a-lseekr.o)
                              /Applications/ti/ccsv6/tools/compiler/gcc-arm-none-eabi-4_9-2015q3/bin/../lib/gcc/arm-none-eabi/4.9.3/../../../../arm-none-eabi/lib/armv7e-m/fpu/libc.a(lib_a-stdio.o) (_lseek_r)
/Applications/ti/ccsv6/tools/compiler/gcc-arm-none-eabi-4_9-2015q3/bin/../lib/gcc/arm-none-eabi/4.9.3/../../../../arm-none-eabi/lib/armv7e-m/fpu/libc.a(lib_a-makebuf.o)
                              /Applications/ti/ccsv6/tools/compiler/gcc-arm-none-eabi-4_9-2015q3/bin/../lib/gcc/arm-none-eabi/4.9.3/../../../../arm-none-eabi/lib/armv7e-m/fpu/libc.a(lib_a-wsetup.o) (__smakebuf_r)
/Applications/ti/ccsv6/tools/compiler/gcc-arm-none-eabi-4_9-2015q3/bin/../lib/gcc/arm-none-eabi/4.9.3/../../../../arm-none-eabi/lib/armv7e-m/fpu/libc.a(lib_a-mbrtowc.o)
                              /Applications/ti/ccsv6/tools/compiler/gcc-arm-none-eabi-4_9-2015q3/bin/../lib/gcc/arm-none-eabi/4.9.3/../../../../arm-none-eabi/lib/armv7e-m/fpu/libc.a(lib_a-svfscanf.o) (_mbrtowc_r)
/Applications/ti/ccsv6/tools/compiler/gcc-arm-none-eabi-4_9-2015q3/bin/../lib/gcc/arm-none-eabi/4.9.3/../../../../arm-none-eabi/lib/armv7e-m/fpu/libc.a(lib_a-mbtowc_r.o)
                              /Applications/ti/ccsv6/tools/compiler/gcc-arm-none-eabi-4_9-2015q3/bin/../lib/gcc/arm-none-eabi/4.9.3/../../../../arm-none-eabi/lib/armv7e-m/fpu/libc.a(lib_a-mbrtowc.o) (__mbtowc)
/Applications/ti/ccsv6/tools/compiler/gcc-arm-none-eabi-4_9-2015q3/bin/../lib/gcc/arm-none-eabi/4.9.3/../../../../arm-none-eabi/lib/armv7e-m/fpu/libc.a(lib_a-memchr.o)
                              /Applications/ti/ccsv6/tools/compiler/gcc-arm-none-eabi-4_9-2015q3/bin/../lib/gcc/arm-none-eabi/4.9.3/../../../../arm-none-eabi/lib/armv7e-m/fpu/libc.a(lib_a-svfprintf.o) (memchr)
/Applications/ti/ccsv6/tools/compiler/gcc-arm-none-eabi-4_9-2015q3/bin/../lib/gcc/arm-none-eabi/4.9.3/../../../../arm-none-eabi/lib/armv7e-m/fpu/libc.a(lib_a-memmove.o)
                              /Applications/ti/ccsv6/tools/compiler/gcc-arm-none-eabi-4_9-2015q3/bin/../lib/gcc/arm-none-eabi/4.9.3/../../../../arm-none-eabi/lib/armv7e-m/fpu/libc.a(lib_a-reallocr.o) (memmove)
/Applications/ti/ccsv6/tools/compiler/gcc-arm-none-eabi-4_9-2015q3/bin/../lib/gcc/arm-none-eabi/4.9.3/../../../../arm-none-eabi/lib/armv7e-m/fpu/libc.a(lib_a-mprec.o)
                              /Applications/ti/ccsv6/tools/compiler/gcc-arm-none-eabi-4_9-2015q3/bin/../lib/gcc/arm-none-eabi/4.9.3/../../../../arm-none-eabi/lib/armv7e-m/fpu/libc.a(lib_a-dtoa.o) (_Balloc)
/Applications/ti/ccsv6/tools/compiler/gcc-arm-none-eabi-4_9-2015q3/bin/../lib/gcc/arm-none-eabi/4.9.3/../../../../arm-none-eabi/lib/armv7e-m/fpu/libc.a(lib_a-readr.o)
                              /Applications/ti/ccsv6/tools/compiler/gcc-arm-none-eabi-4_9-2015q3/bin/../lib/gcc/arm-none-eabi/4.9.3/../../../../arm-none-eabi/lib/armv7e-m/fpu/libc.a(lib_a-stdio.o) (_read_r)
/Applications/ti/ccsv6/tools/compiler/gcc-arm-none-eabi-4_9-2015q3/bin/../lib/gcc/arm-none-eabi/4.9.3/../../../../arm-none-eabi/lib/armv7e-m/fpu/libc.a(lib_a-reent.o)
                              /Applications/ti/ccsv6/tools/compiler/gcc-arm-none-eabi-4_9-2015q3/bin/../lib/gcc/arm-none-eabi/4.9.3/../../../../arm-none-eabi/lib/armv7e-m/fpu/libc.a(lib_a-sbrkr.o) (errno)
/Applications/ti/ccsv6/tools/compiler/gcc-arm-none-eabi-4_9-2015q3/bin/../lib/gcc/arm-none-eabi/4.9.3/../../../../arm-none-eabi/lib/armv7e-m/fpu/libc.a(lib_a-sccl.o)
                              /Applications/ti/ccsv6/tools/compiler/gcc-arm-none-eabi-4_9-2015q3/bin/../lib/gcc/arm-none-eabi/4.9.3/../../../../arm-none-eabi/lib/armv7e-m/fpu/libc.a(lib_a-svfscanf.o) (__sccl)
/Applications/ti/ccsv6/tools/compiler/gcc-arm-none-eabi-4_9-2015q3/bin/../lib/gcc/arm-none-eabi/4.9.3/../../../../arm-none-eabi/lib/armv7e-m/fpu/libc.a(lib_a-sf_nan.o)
                              /Applications/ti/ccsv6/tools/compiler/gcc-arm-none-eabi-4_9-2015q3/bin/../lib/gcc/arm-none-eabi/4.9.3/../../../../arm-none-eabi/lib/armv7e-m/fpu/libc.a(lib_a-svfscanf.o) (nanf)
/Applications/ti/ccsv6/tools/compiler/gcc-arm-none-eabi-4_9-2015q3/bin/../lib/gcc/arm-none-eabi/4.9.3/../../../../arm-none-eabi/lib/armv7e-m/fpu/libc.a(lib_a-signal.o)
                              /Applications/ti/ccsv6/tools/compiler/gcc-arm-none-eabi-4_9-2015q3/bin/../lib/gcc/arm-none-eabi/4.9.3/../../../../arm-none-eabi/lib/armv7e-m/fpu/libc.a(lib_a-abort.o) (raise)
/Applications/ti/ccsv6/tools/compiler/gcc-arm-none-eabi-4_9-2015q3/bin/../lib/gcc/arm-none-eabi/4.9.3/../../../../arm-none-eabi/lib/armv7e-m/fpu/libc.a(lib_a-signalr.o)
                              /Applications/ti/ccsv6/tools/compiler/gcc-arm-none-eabi-4_9-2015q3/bin/../lib/gcc/arm-none-eabi/4.9.3/../../../../arm-none-eabi/lib/armv7e-m/fpu/libc.a(lib_a-signal.o) (_kill_r)
/Applications/ti/ccsv6/tools/compiler/gcc-arm-none-eabi-4_9-2015q3/bin/../lib/gcc/arm-none-eabi/4.9.3/../../../../arm-none-eabi/lib/armv7e-m/fpu/libc.a(lib_a-strtod.o)
                              /Applications/ti/ccsv6/tools/compiler/gcc-arm-none-eabi-4_9-2015q3/bin/../lib/gcc/arm-none-eabi/4.9.3/../../../../arm-none-eabi/lib/armv7e-m/fpu/libc.a(lib_a-svfscanf.o) (_strtod_r)
/Applications/ti/ccsv6/tools/compiler/gcc-arm-none-eabi-4_9-2015q3/bin/../lib/gcc/arm-none-eabi/4.9.3/../../../../arm-none-eabi/lib/armv7e-m/fpu/libc.a(lib_a-strtol.o)
                              /Applications/ti/ccsv6/tools/compiler/gcc-arm-none-eabi-4_9-2015q3/bin/../lib/gcc/arm-none-eabi/4.9.3/../../../../arm-none-eabi/lib/armv7e-m/fpu/libc.a(lib_a-svfscanf.o) (_strtol_r)
/Applications/ti/ccsv6/tools/compiler/gcc-arm-none-eabi-4_9-2015q3/bin/../lib/gcc/arm-none-eabi/4.9.3/../../../../arm-none-eabi/lib/armv7e-m/fpu/libc.a(lib_a-strtoll_r.o)
                              /Applications/ti/ccsv6/tools/compiler/gcc-arm-none-eabi-4_9-2015q3/bin/../lib/gcc/arm-none-eabi/4.9.3/../../../../arm-none-eabi/lib/armv7e-m/fpu/libc.a(lib_a-svfscanf.o) (_strtoll_r)
/Applications/ti/ccsv6/tools/compiler/gcc-arm-none-eabi-4_9-2015q3/bin/../lib/gcc/arm-none-eabi/4.9.3/../../../../arm-none-eabi/lib/armv7e-m/fpu/libc.a(lib_a-svfiprintf.o)
                              /Applications/ti/ccsv6/tools/compiler/gcc-arm-none-eabi-4_9-2015q3/bin/../lib/gcc/arm-none-eabi/4.9.3/../../../../arm-none-eabi/lib/armv7e-m/fpu/libc.a(lib_a-svfprintf.o) (__ssprint_r)
/Applications/ti/ccsv6/tools/compiler/gcc-arm-none-eabi-4_9-2015q3/bin/../lib/gcc/arm-none-eabi/4.9.3/../../../../arm-none-eabi/lib/armv7e-m/fpu/libc.a(lib_a-svfiscanf.o)
                              /Applications/ti/ccsv6/tools/compiler/gcc-arm-none-eabi-4_9-2015q3/bin/../lib/gcc/arm-none-eabi/4.9.3/../../../../arm-none-eabi/lib/armv7e-m/fpu/libc.a(lib_a-svfscanf.o) (_sungetc_r)
/Applications/ti/ccsv6/tools/compiler/gcc-arm-none-eabi-4_9-2015q3/bin/../lib/gcc/arm-none-eabi/4.9.3/../../../../arm-none-eabi/lib/armv7e-m/fpu/libc.a(lib_a-ungetc.o)
                              /Applications/ti/ccsv6/tools/compiler/gcc-arm-none-eabi-4_9-2015q3/bin/../lib/gcc/arm-none-eabi/4.9.3/../../../../arm-none-eabi/lib/armv7e-m/fpu/libc.a(lib_a-svfiscanf.o) (__submore)
/Applications/ti/ccsv6/tools/compiler/gcc-arm-none-eabi-4_9-2015q3/bin/../lib/gcc/arm-none-eabi/4.9.3/../../../../arm-none-eabi/lib/armv7e-m/fpu/libc.a(lib_a-wbuf.o)
                              /Applications/ti/ccsv6/tools/compiler/gcc-arm-none-eabi-4_9-2015q3/bin/../lib/gcc/arm-none-eabi/4.9.3/../../../../arm-none-eabi/lib/armv7e-m/fpu/libc.a(lib_a-fputwc.o) (__swbuf_r)
/Applications/ti/ccsv6/tools/compiler/gcc-arm-none-eabi-4_9-2015q3/bin/../lib/gcc/arm-none-eabi/4.9.3/../../../../arm-none-eabi/lib/armv7e-m/fpu/libc.a(lib_a-wcrtomb.o)
                              /Applications/ti/ccsv6/tools/compiler/gcc-arm-none-eabi-4_9-2015q3/bin/../lib/gcc/arm-none-eabi/4.9.3/../../../../arm-none-eabi/lib/armv7e-m/fpu/libc.a(lib_a-fputwc.o) (_wcrtomb_r)
/Applications/ti/ccsv6/tools/compiler/gcc-arm-none-eabi-4_9-2015q3/bin/../lib/gcc/arm-none-eabi/4.9.3/../../../../arm-none-eabi/lib/armv7e-m/fpu/libc.a(lib_a-wctomb_r.o)
                              /Applications/ti/ccsv6/tools/compiler/gcc-arm-none-eabi-4_9-2015q3/bin/../lib/gcc/arm-none-eabi/4.9.3/../../../../arm-none-eabi/lib/armv7e-m/fpu/libc.a(lib_a-wcrtomb.o) (__wctomb)
/Applications/ti/ccsv6/tools/compiler/gcc-arm-none-eabi-4_9-2015q3/bin/../lib/gcc/arm-none-eabi/4.9.3/../../../../arm-none-eabi/lib/armv7e-m/fpu/libc.a(lib_a-__atexit.o)
                              /Applications/ti/ccsv6/tools/compiler/gcc-arm-none-eabi-4_9-2015q3/bin/../lib/gcc/arm-none-eabi/4.9.3/../../../../arm-none-eabi/lib/armv7e-m/fpu/libc.a(lib_a-atexit.o) (__register_exitproc)
/Applications/ti/ccsv6/tools/compiler/gcc-arm-none-eabi-4_9-2015q3/bin/../lib/gcc/arm-none-eabi/4.9.3/../../../../arm-none-eabi/lib/armv7e-m/fpu/libc.a(lib_a-fclose.o)
                              /Applications/ti/ccsv6/tools/compiler/gcc-arm-none-eabi-4_9-2015q3/bin/../lib/gcc/arm-none-eabi/4.9.3/../../../../arm-none-eabi/lib/armv7e-m/fpu/libc.a(lib_a-findfp.o) (_fclose_r)
/Applications/ti/ccsv6/tools/compiler/gcc-arm-none-eabi-4_9-2015q3/bin/../lib/gcc/arm-none-eabi/4.9.3/../../../../arm-none-eabi/lib/armv7e-m/fpu/libc.a(lib_a-fstatr.o)
                              /Applications/ti/ccsv6/tools/compiler/gcc-arm-none-eabi-4_9-2015q3/bin/../lib/gcc/arm-none-eabi/4.9.3/../../../../arm-none-eabi/lib/armv7e-m/fpu/libc.a(lib_a-makebuf.o) (_fstat_r)
/Applications/ti/ccsv6/tools/compiler/gcc-arm-none-eabi-4_9-2015q3/bin/../lib/gcc/arm-none-eabi/4.9.3/../../../../arm-none-eabi/lib/armv7e-m/fpu/libc.a(lib_a-gdtoa-gethex.o)
                              /Applications/ti/ccsv6/tools/compiler/gcc-arm-none-eabi-4_9-2015q3/bin/../lib/gcc/arm-none-eabi/4.9.3/../../../../arm-none-eabi/lib/armv7e-m/fpu/libc.a(lib_a-strtod.o) (__gethex)
/Applications/ti/ccsv6/tools/compiler/gcc-arm-none-eabi-4_9-2015q3/bin/../lib/gcc/arm-none-eabi/4.9.3/../../../../arm-none-eabi/lib/armv7e-m/fpu/libc.a(lib_a-gdtoa-hexnan.o)
                              /Applications/ti/ccsv6/tools/compiler/gcc-arm-none-eabi-4_9-2015q3/bin/../lib/gcc/arm-none-eabi/4.9.3/../../../../arm-none-eabi/lib/armv7e-m/fpu/libc.a(lib_a-strtod.o) (__hexnan)
/Applications/ti/ccsv6/tools/compiler/gcc-arm-none-eabi-4_9-2015q3/bin/../lib/gcc/arm-none-eabi/4.9.3/../../../../arm-none-eabi/lib/armv7e-m/fpu/libc.a(lib_a-isattyr.o)
                              /Applications/ti/ccsv6/tools/compiler/gcc-arm-none-eabi-4_9-2015q3/bin/../lib/gcc/arm-none-eabi/4.9.3/../../../../arm-none-eabi/lib/armv7e-m/fpu/libc.a(lib_a-makebuf.o) (_isatty_r)
/Applications/ti/ccsv6/tools/compiler/gcc-arm-none-eabi-4_9-2015q3/bin/../lib/gcc/arm-none-eabi/4.9.3/../../../../arm-none-eabi/lib/armv7e-m/fpu/libnosys.a(close.o)
                              /Applications/ti/ccsv6/tools/compiler/gcc-arm-none-eabi-4_9-2015q3/bin/../lib/gcc/arm-none-eabi/4.9.3/../../../../arm-none-eabi/lib/armv7e-m/fpu/libc.a(lib_a-closer.o) (_close)
/Applications/ti/ccsv6/tools/compiler/gcc-arm-none-eabi-4_9-2015q3/bin/../lib/gcc/arm-none-eabi/4.9.3/../../../../arm-none-eabi/lib/armv7e-m/fpu/libnosys.a(fstat.o)
                              /Applications/ti/ccsv6/tools/compiler/gcc-arm-none-eabi-4_9-2015q3/bin/../lib/gcc/arm-none-eabi/4.9.3/../../../../arm-none-eabi/lib/armv7e-m/fpu/libc.a(lib_a-fstatr.o) (_fstat)
/Applications/ti/ccsv6/tools/compiler/gcc-arm-none-eabi-4_9-2015q3/bin/../lib/gcc/arm-none-eabi/4.9.3/../../../../arm-none-eabi/lib/armv7e-m/fpu/libnosys.a(getpid.o)
                              /Applications/ti/ccsv6/tools/compiler/gcc-arm-none-eabi-4_9-2015q3/bin/../lib/gcc/arm-none-eabi/4.9.3/../../../../arm-none-eabi/lib/armv7e-m/fpu/libc.a(lib_a-signalr.o) (_getpid)
/Applications/ti/ccsv6/tools/compiler/gcc-arm-none-eabi-4_9-2015q3/bin/../lib/gcc/arm-none-eabi/4.9.3/../../../../arm-none-eabi/lib/armv7e-m/fpu/libnosys.a(isatty.o)
                              /Applications/ti/ccsv6/tools/compiler/gcc-arm-none-eabi-4_9-2015q3/bin/../lib/gcc/arm-none-eabi/4.9.3/../../../../arm-none-eabi/lib/armv7e-m/fpu/libc.a(lib_a-isattyr.o) (_isatty)
/Applications/ti/ccsv6/tools/compiler/gcc-arm-none-eabi-4_9-2015q3/bin/../lib/gcc/arm-none-eabi/4.9.3/../../../../arm-none-eabi/lib/armv7e-m/fpu/libnosys.a(kill.o)
                              /Applications/ti/ccsv6/tools/compiler/gcc-arm-none-eabi-4_9-2015q3/bin/../lib/gcc/arm-none-eabi/4.9.3/../../../../arm-none-eabi/lib/armv7e-m/fpu/libc.a(lib_a-signalr.o) (_kill)
/Applications/ti/ccsv6/tools/compiler/gcc-arm-none-eabi-4_9-2015q3/bin/../lib/gcc/arm-none-eabi/4.9.3/../../../../arm-none-eabi/lib/armv7e-m/fpu/libnosys.a(lseek.o)
                              /Applications/ti/ccsv6/tools/compiler/gcc-arm-none-eabi-4_9-2015q3/bin/../lib/gcc/arm-none-eabi/4.9.3/../../../../arm-none-eabi/lib/armv7e-m/fpu/libc.a(lib_a-lseekr.o) (_lseek)
/Applications/ti/ccsv6/tools/compiler/gcc-arm-none-eabi-4_9-2015q3/bin/../lib/gcc/arm-none-eabi/4.9.3/../../../../arm-none-eabi/lib/armv7e-m/fpu/libnosys.a(read.o)
                              /Applications/ti/ccsv6/tools/compiler/gcc-arm-none-eabi-4_9-2015q3/bin/../lib/gcc/arm-none-eabi/4.9.3/../../../../arm-none-eabi/lib/armv7e-m/fpu/libc.a(lib_a-readr.o) (_read)
/Applications/ti/ccsv6/tools/compiler/gcc-arm-none-eabi-4_9-2015q3/bin/../lib/gcc/arm-none-eabi/4.9.3/../../../../arm-none-eabi/lib/armv7e-m/fpu/libnosys.a(sbrk.o)
                              /Applications/ti/ccsv6/tools/compiler/gcc-arm-none-eabi-4_9-2015q3/bin/../lib/gcc/arm-none-eabi/4.9.3/../../../../arm-none-eabi/lib/armv7e-m/fpu/libc.a(lib_a-sbrkr.o) (_sbrk)
/Applications/ti/ccsv6/tools/compiler/gcc-arm-none-eabi-4_9-2015q3/bin/../lib/gcc/arm-none-eabi/4.9.3/../../../../arm-none-eabi/lib/armv7e-m/fpu/libnosys.a(_exit.o)
                              /Applications/ti/ccsv6/tools/compiler/gcc-arm-none-eabi-4_9-2015q3/bin/../lib/gcc/arm-none-eabi/4.9.3/../../../../arm-none-eabi/lib/armv7e-m/fpu/libc.a(lib_a-exit.o) (_exit)
/Applications/ti/ccsv6/tools/compiler/gcc-arm-none-eabi-4_9-2015q3/bin/../lib/gcc/arm-none-eabi/4.9.3/armv7e-m/fpu/libgcc.a(_arm_addsubdf3.o)
                              /Applications/ti/ccsv6/tools/compiler/gcc-arm-none-eabi-4_9-2015q3/bin/../lib/gcc/arm-none-eabi/4.9.3/../../../../arm-none-eabi/lib/armv7e-m/fpu/libm.a(lib_a-e_pow.o) (__aeabi_dsub)
/Applications/ti/ccsv6/tools/compiler/gcc-arm-none-eabi-4_9-2015q3/bin/../lib/gcc/arm-none-eabi/4.9.3/armv7e-m/fpu/libgcc.a(_arm_muldivdf3.o)
                              ./Board/drv_color_led/hsb2rgb.o (__aeabi_dmul)
/Applications/ti/ccsv6/tools/compiler/gcc-arm-none-eabi-4_9-2015q3/bin/../lib/gcc/arm-none-eabi/4.9.3/armv7e-m/fpu/libgcc.a(_arm_cmpdf2.o)
                              /Applications/ti/ccsv6/tools/compiler/gcc-arm-none-eabi-4_9-2015q3/bin/../lib/gcc/arm-none-eabi/4.9.3/../../../../arm-none-eabi/lib/armv7e-m/fpu/libm.a(lib_a-w_pow.o) (__aeabi_dcmpeq)
/Applications/ti/ccsv6/tools/compiler/gcc-arm-none-eabi-4_9-2015q3/bin/../lib/gcc/arm-none-eabi/4.9.3/armv7e-m/fpu/libgcc.a(_arm_fixdfsi.o)
                              /Applications/ti/ccsv6/tools/compiler/gcc-arm-none-eabi-4_9-2015q3/bin/../lib/gcc/arm-none-eabi/4.9.3/../../../../arm-none-eabi/lib/armv7e-m/fpu/libc.a(lib_a-dtoa.o) (__aeabi_d2iz)
/Applications/ti/ccsv6/tools/compiler/gcc-arm-none-eabi-4_9-2015q3/bin/../lib/gcc/arm-none-eabi/4.9.3/armv7e-m/fpu/libgcc.a(_arm_fixunsdfsi.o)
                              /Applications/ti/ccsv6/tools/compiler/gcc-arm-none-eabi-4_9-2015q3/bin/../lib/gcc/arm-none-eabi/4.9.3/../../../../arm-none-eabi/lib/armv7e-m/fpu/libc.a(lib_a-strtod.o) (__aeabi_d2uiz)
/Applications/ti/ccsv6/tools/compiler/gcc-arm-none-eabi-4_9-2015q3/bin/../lib/gcc/arm-none-eabi/4.9.3/armv7e-m/fpu/libgcc.a(_arm_truncdfsf2.o)
                              ./Board/drv_color_led/hsb2rgb.o (__aeabi_d2f)
/Applications/ti/ccsv6/tools/compiler/gcc-arm-none-eabi-4_9-2015q3/bin/../lib/gcc/arm-none-eabi/4.9.3/armv7e-m/fpu/libgcc.a(_aeabi_uldivmod.o)
                              ./core/k_time.o (__aeabi_uldivmod)
/Applications/ti/ccsv6/tools/compiler/gcc-arm-none-eabi-4_9-2015q3/bin/../lib/gcc/arm-none-eabi/4.9.3/armv7e-m/fpu/libgcc.a(bpabi.o)
                              /Applications/ti/ccsv6/tools/compiler/gcc-arm-none-eabi-4_9-2015q3/bin/../lib/gcc/arm-none-eabi/4.9.3/armv7e-m/fpu/libgcc.a(_aeabi_uldivmod.o) (__gnu_uldivmod_helper)
/Applications/ti/ccsv6/tools/compiler/gcc-arm-none-eabi-4_9-2015q3/bin/../lib/gcc/arm-none-eabi/4.9.3/armv7e-m/fpu/libgcc.a(_dvmd_tls.o)
                              /Applications/ti/ccsv6/tools/compiler/gcc-arm-none-eabi-4_9-2015q3/bin/../lib/gcc/arm-none-eabi/4.9.3/armv7e-m/fpu/libgcc.a(_aeabi_uldivmod.o) (__aeabi_ldiv0)
/Applications/ti/ccsv6/tools/compiler/gcc-arm-none-eabi-4_9-2015q3/bin/../lib/gcc/arm-none-eabi/4.9.3/armv7e-m/fpu/libgcc.a(_divdi3.o)
                              /Applications/ti/ccsv6/tools/compiler/gcc-arm-none-eabi-4_9-2015q3/bin/../lib/gcc/arm-none-eabi/4.9.3/armv7e-m/fpu/libgcc.a(bpabi.o) (__divdi3)
/Applications/ti/ccsv6/tools/compiler/gcc-arm-none-eabi-4_9-2015q3/bin/../lib/gcc/arm-none-eabi/4.9.3/armv7e-m/fpu/libgcc.a(_udivdi3.o)
                              /Applications/ti/ccsv6/tools/compiler/gcc-arm-none-eabi-4_9-2015q3/bin/../lib/gcc/arm-none-eabi/4.9.3/armv7e-m/fpu/libgcc.a(bpabi.o) (__udivdi3)

Allocating common symbols
Common symbol       size              file

g_idle_count        0x8               ./core/k_obj.o
errno               0x4               /Applications/ti/ccsv6/tools/compiler/gcc-arm-none-eabi-4_9-2015q3/bin/../lib/gcc/arm-none-eabi/4.9.3/../../../../arm-none-eabi/lib/armv7e-m/fpu/libc.a(lib_a-reent.o)
g_tick_head         0x8               ./core/k_obj.o
at_buffer           0x400             ./Board/helper/hal/mx_serial.o
g_kobj_list         0x28              ./core/k_obj.o
g_ready_queue       0x104             ./core/k_obj.o
_output_delimiter   0x4               ./Board/helper/emhost/ATCmdParser/ATCmdParser.o
g_intrpt_nested_level
                    0x1               ./core/k_obj.o
g_sched_lock        0x1               ./core/k_obj.o
return_str          0x4               ./Board/helper/emhost/ATCmdParser/ATCmdParserTest.o
g_preferred_ready_task
                    0x4               ./core/k_obj.o
at_rx               0x10              ./Board/helper/hal/mx_serial.o
g_idle_task_spawned
                    0x1               ./core/k_obj.o
sensor_display      0x22              ./app_sht20.o
g_idle_task         0x58              ./core/k_obj.o
g_tick_count        0x8               ./core/k_obj.o
g_sys_stat          0x2               ./core/k_obj.o
g_active_task       0x4               ./core/k_obj.o
g_idle_task_stack   0x320             ./core/k_obj.o
demo_task_buf       0x1000            ./main.o

Discarded input sections

 .fini_array    0x0000000000000000        0x4 /Applications/ti/ccsv6/tools/compiler/gcc-arm-none-eabi-4_9-2015q3/bin/../lib/gcc/arm-none-eabi/4.9.3/armv7e-m/fpu/crtbegin.o
 .ARM.extab     0x0000000000000000        0x0 /Applications/ti/ccsv6/tools/compiler/gcc-arm-none-eabi-4_9-2015q3/bin/../lib/gcc/arm-none-eabi/4.9.3/../../../../arm-none-eabi/lib/armv7e-m/fpu/crt0.o
 .text.SystemCoreClockUpdate
                0x0000000000000000      0x2f0 ./system_msp432p401r.o
 .rodata.F6x8   0x0000000000000000      0x228 ./Board/drv_VGM128064/oled.o
 .text.OLED_Display_On
                0x0000000000000000       0x28 ./Board/drv_VGM128064/oled.o
 .text.OLED_Display_Off
                0x0000000000000000       0x28 ./Board/drv_VGM128064/oled.o
 .text.OLED_FillAll
                0x0000000000000000       0x6c ./Board/drv_VGM128064/oled.o
 .text.oled_pow
                0x0000000000000000       0x38 ./Board/drv_VGM128064/oled.o
 .text.OLED_ShowNum
                0x0000000000000000       0xcc ./Board/drv_VGM128064/oled.o
 .text.OLED_ShowCHinese
                0x0000000000000000       0xa0 ./Board/drv_VGM128064/oled.o
 .text.OLED_DrawBMP
                0x0000000000000000       0x90 ./Board/drv_VGM128064/oled.o
 .text.ATCmdParser_debug
                0x0000000000000000       0x20 ./Board/helper/emhost/ATCmdParser/ATCmdParser.o
 .text.ATCmdParser_set_timeout
                0x0000000000000000       0x14 ./Board/helper/emhost/ATCmdParser/ATCmdParser.o
 .rodata        0x0000000000000000       0x3e ./Board/helper/emhost/ATCmdParser/ATCmdParserTest.o
 .text.ATCmdParser_test
                0x0000000000000000       0x4c ./Board/helper/emhost/ATCmdParser/ATCmdParserTest.o
 COMMON         0x0000000000000000        0x4 ./Board/helper/emhost/ATCmdParser/ATCmdParserTest.o
 .text.emh_alisds_set_key
                0x0000000000000000       0x40 ./Board/helper/emhost/emh_alisds.o
 .text.emh_ali_start_provision
                0x0000000000000000       0x30 ./Board/helper/emhost/emh_alisds.o
 .text.emh_ali_stop_provision
                0x0000000000000000       0x30 ./Board/helper/emhost/emh_alisds.o
 .text.emh_module_get_tick
                0x0000000000000000       0x44 ./Board/helper/emhost/emh_module.o
 .text.emh_wlan_get_sta_status
                0x0000000000000000       0x68 ./Board/helper/emhost/emh_wlan.o
 .text.mx_hal_serial_set_timeout
                0x0000000000000000       0x1c ./Board/helper/hal/mx_serial.o
 .text.mx_hal_serial_flush
                0x0000000000000000       0x44 ./Board/helper/hal/mx_serial.o
 .text.__write  0x0000000000000000       0x6c ./Board/helper/hal/mx_stdio.o
 .text.NVIC_SetPriority
                0x0000000000000000       0x54 ./Board/helper/hal/mx_tick.o
 .text.SysTick_Config
                0x0000000000000000       0x44 ./Board/helper/hal/mx_tick.o
 .text.mx_hal_ms_ticker_init
                0x0000000000000000       0x20 ./Board/helper/hal/mx_tick.o
 .text.json_printbuf_reset
                0x0000000000000000       0x20 ./Board/helper/jsmn/json_escape_str.o
 .text.json_start_array
                0x0000000000000000       0x6c ./Board/helper/jsmn/json_generator.o
 .text.json_close_array
                0x0000000000000000       0x3c ./Board/helper/jsmn/json_generator.o
 .text.mico_frac_part_of
                0x0000000000000000       0x9c ./Board/helper/jsmn/json_utils.o
 .text.mico_strtof
                0x0000000000000000      0x1e4 ./Board/helper/jsmn/json_utils.o
 .rodata        0x0000000000000000       0x16 ./Board/helper/jsmn/json_wrappers.o
 .text.json_str_to_bool
                0x0000000000000000       0xa0 ./Board/helper/jsmn/json_wrappers.o
 .text.json_str_to_int
                0x0000000000000000       0x68 ./Board/helper/jsmn/json_wrappers.o
 .text.json_str_to_int64
                0x0000000000000000       0x70 ./Board/helper/jsmn/json_wrappers.o
 .text.json_str_to_float
                0x0000000000000000       0x68 ./Board/helper/jsmn/json_wrappers.o
 .text.json_get_val_bool
                0x0000000000000000       0x3c ./Board/helper/jsmn/json_wrappers.o
 .text.json_get_val_int
                0x0000000000000000       0x3c ./Board/helper/jsmn/json_wrappers.o
 .text.json_get_val_int64
                0x0000000000000000       0x3c ./Board/helper/jsmn/json_wrappers.o
 .text.json_get_val_float
                0x0000000000000000       0x3c ./Board/helper/jsmn/json_wrappers.o
 .text.json_get_val_str_len
                0x0000000000000000       0x58 ./Board/helper/jsmn/json_wrappers.o
 .text.json_array_get_num_elements
                0x0000000000000000       0x2c ./Board/helper/jsmn/json_wrappers.o
 .text.json_array_get_bool
                0x0000000000000000       0x40 ./Board/helper/jsmn/json_wrappers.o
 .text.json_array_get_int
                0x0000000000000000       0x40 ./Board/helper/jsmn/json_wrappers.o
 .text.json_array_get_int64
                0x0000000000000000       0x40 ./Board/helper/jsmn/json_wrappers.o
 .text.json_array_get_float
                0x0000000000000000       0x40 ./Board/helper/jsmn/json_wrappers.o
 .text.json_array_get_str_len
                0x0000000000000000       0x5c ./Board/helper/jsmn/json_wrappers.o
 .text.json_array_get_composite_object
                0x0000000000000000       0x60 ./Board/helper/jsmn/json_wrappers.o
 .text.json_array_release_composite_object
                0x0000000000000000       0x18 ./Board/helper/jsmn/json_wrappers.o
 .text.json_array_get_array_object
                0x0000000000000000       0x5c ./Board/helper/jsmn/json_wrappers.o
 .text.json_array_release_array_object
                0x0000000000000000       0x18 ./Board/helper/jsmn/json_wrappers.o
 .text.json_is_object
                0x0000000000000000       0x24 ./Board/helper/jsmn/json_wrappers.o
 .text.json_is_array
                0x0000000000000000       0x24 ./Board/helper/jsmn/json_wrappers.o
 .text.ringbuffer_flush
                0x0000000000000000       0x20 ./Board/helper/mx_utils/mx_ringbuffer.o
 .rodata        0x0000000000000000       0x25 ./aos/trace_impl.o
 .text.trace_start
                0x0000000000000000       0x10 ./aos/trace_impl.o
 .text.klist_init
                0x0000000000000000       0x20 ./core/k_buf_queue.o
 .text.is_klist_empty
                0x0000000000000000       0x24 ./core/k_buf_queue.o
 .text.klist_insert
                0x0000000000000000       0x30 ./core/k_buf_queue.o
 .text.klist_rm
                0x0000000000000000       0x28 ./core/k_buf_queue.o
 .text.cpu_cur_get
                0x0000000000000000       0x10 ./core/k_buf_queue.o
 .text.buf_queue_create
                0x0000000000000000       0xc4 ./core/k_buf_queue.o
 .text.krhino_buf_queue_create
                0x0000000000000000       0x30 ./core/k_buf_queue.o
 .text.krhino_fix_buf_queue_create
                0x0000000000000000       0x38 ./core/k_buf_queue.o
 .text.krhino_buf_queue_del
                0x0000000000000000       0xac ./core/k_buf_queue.o
 .text.buf_queue_send
                0x0000000000000000      0x104 ./core/k_buf_queue.o
 .text.krhino_buf_queue_send
                0x0000000000000000       0x34 ./core/k_buf_queue.o
 .text.krhino_buf_queue_recv
                0x0000000000000000      0x154 ./core/k_buf_queue.o
 .text.krhino_buf_queue_flush
                0x0000000000000000       0x78 ./core/k_buf_queue.o
 .text.krhino_buf_queue_info_get
                0x0000000000000000       0x80 ./core/k_buf_queue.o
 .text.klist_init
                0x0000000000000000       0x20 ./core/k_mutex.o
 .text.klist_insert
                0x0000000000000000       0x30 ./core/k_mutex.o
 .text.klist_rm
                0x0000000000000000       0x28 ./core/k_mutex.o
 .text.cpu_cur_get
                0x0000000000000000       0x10 ./core/k_mutex.o
 .text.mutex_create
                0x0000000000000000       0x78 ./core/k_mutex.o
 .text.krhino_mutex_create
                0x0000000000000000       0x20 ./core/k_mutex.o
 .text.krhino_mutex_del
                0x0000000000000000       0xc0 ./core/k_mutex.o
 .text.mutex_pri_limit
                0x0000000000000000       0x5c ./core/k_mutex.o
 .text.krhino_mutex_lock
                0x0000000000000000      0x194 ./core/k_mutex.o
 .text.krhino_mutex_unlock
                0x0000000000000000      0x10c ./core/k_mutex.o
 .text.pend_to_blk_obj
                0x0000000000000000       0x6c ./core/k_pend.o
 .text.pend_task_rm
                0x0000000000000000       0x70 ./core/k_pend.o
 .text.pend_state_end_proc
                0x0000000000000000       0x60 ./core/k_pend.o
 .text.klist_init
                0x0000000000000000       0x20 ./core/k_queue.o
 .text.is_klist_empty
                0x0000000000000000       0x24 ./core/k_queue.o
 .text.klist_insert
                0x0000000000000000       0x30 ./core/k_queue.o
 .text.klist_rm
                0x0000000000000000       0x28 ./core/k_queue.o
 .text.cpu_cur_get
                0x0000000000000000       0x10 ./core/k_queue.o
 .text.task_msg_recv
                0x0000000000000000       0x1c ./core/k_queue.o
 .text.queue_create
                0x0000000000000000       0xb0 ./core/k_queue.o
 .text.krhino_queue_create
                0x0000000000000000       0x28 ./core/k_queue.o
 .text.krhino_queue_del
                0x0000000000000000       0xac ./core/k_queue.o
 .text.msg_send
                0x0000000000000000       0xe4 ./core/k_queue.o
 .text.krhino_queue_back_send
                0x0000000000000000       0x20 ./core/k_queue.o
 .text.krhino_queue_all_send
                0x0000000000000000       0x20 ./core/k_queue.o
 .text.krhino_queue_recv
                0x0000000000000000      0x134 ./core/k_queue.o
 .text.krhino_queue_is_full
                0x0000000000000000       0x54 ./core/k_queue.o
 .text.krhino_queue_flush
                0x0000000000000000       0x6c ./core/k_queue.o
 .text.krhino_queue_info_get
                0x0000000000000000       0x88 ./core/k_queue.o
 .text.ringbuf_init
                0x0000000000000000       0x3c ./core/k_ringbuf.o
 .text.ringbuf_headlen_compress
                0x0000000000000000       0xd4 ./core/k_ringbuf.o
 .text.ringbuf_headlen_decompress
                0x0000000000000000       0x7c ./core/k_ringbuf.o
 .text.ringbuf_push
                0x0000000000000000      0x1f0 ./core/k_ringbuf.o
 .text.ringbuf_pop
                0x0000000000000000      0x218 ./core/k_ringbuf.o
 .text.ringbuf_is_full
                0x0000000000000000       0x44 ./core/k_ringbuf.o
 .text.ringbuf_is_empty
                0x0000000000000000       0x30 ./core/k_ringbuf.o
 .text.ringbuf_reset
                0x0000000000000000       0x38 ./core/k_ringbuf.o
 .text.krhino_sched_disable
                0x0000000000000000       0x6c ./core/k_sched.o
 .text.krhino_sched_enable
                0x0000000000000000       0x8c ./core/k_sched.o
 .text.ready_list_head_to_tail
                0x0000000000000000       0x34 ./core/k_sched.o
 .text.klist_init
                0x0000000000000000       0x20 ./core/k_sem.o
 .text.is_klist_empty
                0x0000000000000000       0x24 ./core/k_sem.o
 .text.klist_insert
                0x0000000000000000       0x30 ./core/k_sem.o
 .text.klist_rm
                0x0000000000000000       0x28 ./core/k_sem.o
 .text.cpu_cur_get
                0x0000000000000000       0x10 ./core/k_sem.o
 .text.sem_create
                0x0000000000000000       0x78 ./core/k_sem.o
 .text.krhino_sem_create
                0x0000000000000000       0x24 ./core/k_sem.o
 .text.krhino_sem_del
                0x0000000000000000       0xa0 ./core/k_sem.o
 .text.sem_give
                0x0000000000000000       0xbc ./core/k_sem.o
 .text.krhino_sem_give
                0x0000000000000000       0x24 ./core/k_sem.o
 .text.krhino_sem_give_all
                0x0000000000000000       0x24 ./core/k_sem.o
 .text.krhino_sem_take
                0x0000000000000000       0xf0 ./core/k_sem.o
 .text.krhino_sem_count_set
                0x0000000000000000       0xa4 ./core/k_sem.o
 .text.krhino_sem_count_get
                0x0000000000000000       0x3c ./core/k_sem.o
 .text.krhino_global_space_get
                0x0000000000000000       0x20 ./core/k_sys.o
 .text.krhino_version_get
                0x0000000000000000       0x14 ./core/k_sys.o
 .text.krhino_task_sleep
                0x0000000000000000       0xcc ./core/k_task.o
 .text.krhino_task_yield
                0x0000000000000000       0x40 ./core/k_task.o
 .text.task_suspend
                0x0000000000000000       0xec ./core/k_task.o
 .text.krhino_task_suspend
                0x0000000000000000       0x34 ./core/k_task.o
 .text.task_resume
                0x0000000000000000       0xd0 ./core/k_task.o
 .text.krhino_task_resume
                0x0000000000000000       0x24 ./core/k_task.o
 .text.krhino_task_stack_min_free
                0x0000000000000000       0x64 ./core/k_task.o
 .text.krhino_task_pri_change
                0x0000000000000000       0xcc ./core/k_task.o
 .text.klist_insert
                0x0000000000000000       0x30 ./core/k_tick.o
 .text.tick_list_pri_insert
                0x0000000000000000       0x70 ./core/k_tick.o
 .text.tick_list_insert
                0x0000000000000000       0x54 ./core/k_tick.o
 .text.krhino_sys_tick_get
                0x0000000000000000       0x30 ./core/k_time.o
 .text.krhino_sys_time_get
                0x0000000000000000       0x64 ./core/k_time.o
 .text.krhino_ms_to_ticks
                0x0000000000000000       0xbc ./core/k_time.o
 .text.krhino_ticks_to_ms
                0x0000000000000000       0xd0 ./core/k_time.o
 __TI_DW.debug_info.core_cm4.h.3e0d370993f2fb13b428b353093627d8
                0x0000000000000000       0x18 /Users/snowyang/workspace/MSP432_DriverLib_3_10_00_09/driverlib/MSP432P4xx/ccs/msp432p4xx_driverlib.lib(gpio.o)
 __TI_DW.debug_info.msp432p401r.h.6d8a8070feb1cbdf17cfd12c13726284
                0x0000000000000000       0x18 /Users/snowyang/workspace/MSP432_DriverLib_3_10_00_09/driverlib/MSP432P4xx/ccs/msp432p4xx_driverlib.lib(gpio.o)
 __TI_DW.debug_info.$base_types.c8c38483d660372cd06395436475430b
                0x0000000000000000       0x18 /Users/snowyang/workspace/MSP432_DriverLib_3_10_00_09/driverlib/MSP432P4xx/ccs/msp432p4xx_driverlib.lib(gpio.o)
 __TI_DW.debug_info.stdint.h.066348b889ca56249dcd34de01246954
                0x0000000000000000       0x18 /Users/snowyang/workspace/MSP432_DriverLib_3_10_00_09/driverlib/MSP432P4xx/ccs/msp432p4xx_driverlib.lib(gpio.o)
 __TI_DW.debug_info.yvals.h.3104962cf0c0d1dd116d97cae467d0f3
                0x0000000000000000       0x18 /Users/snowyang/workspace/MSP432_DriverLib_3_10_00_09/driverlib/MSP432P4xx/ccs/msp432p4xx_driverlib.lib(gpio.o)
 __TI_DW.debug_info.gpio.c.1f0628f9e033b811e35a8d467090308e
                0x0000000000000000       0x18 /Users/snowyang/workspace/MSP432_DriverLib_3_10_00_09/driverlib/MSP432P4xx/ccs/msp432p4xx_driverlib.lib(gpio.o)
 __TI_DW.debug_info.stdarg.h.94a6efd7e0ac1e1539e5ef9b3dac1248
                0x0000000000000000       0x18 /Users/snowyang/workspace/MSP432_DriverLib_3_10_00_09/driverlib/MSP432P4xx/ccs/msp432p4xx_driverlib.lib(gpio.o)
 .const         0x0000000000000000       0x1c /Users/snowyang/workspace/MSP432_DriverLib_3_10_00_09/driverlib/MSP432P4xx/ccs/msp432p4xx_driverlib.lib(gpio.o)
 .text:GPIO_unregisterInterrupt
                0x0000000000000000       0x1c /Users/snowyang/workspace/MSP432_DriverLib_3_10_00_09/driverlib/MSP432P4xx/ccs/msp432p4xx_driverlib.lib(gpio.o)
 .text:GPIO_toggleOutputOnPin
                0x0000000000000000       0x14 /Users/snowyang/workspace/MSP432_DriverLib_3_10_00_09/driverlib/MSP432P4xx/ccs/msp432p4xx_driverlib.lib(gpio.o)
 .text:GPIO_setDriveStrengthLow
                0x0000000000000000       0x18 /Users/snowyang/workspace/MSP432_DriverLib_3_10_00_09/driverlib/MSP432P4xx/ccs/msp432p4xx_driverlib.lib(gpio.o)
 .text:GPIO_setDriveStrengthHigh
                0x0000000000000000       0x14 /Users/snowyang/workspace/MSP432_DriverLib_3_10_00_09/driverlib/MSP432P4xx/ccs/msp432p4xx_driverlib.lib(gpio.o)
 .text:GPIO_setAsInputPinWithPullDownResistor
                0x0000000000000000       0x30 /Users/snowyang/workspace/MSP432_DriverLib_3_10_00_09/driverlib/MSP432P4xx/ccs/msp432p4xx_driverlib.lib(gpio.o)
 .text:GPIO_setAsInputPin
                0x0000000000000000       0x2c /Users/snowyang/workspace/MSP432_DriverLib_3_10_00_09/driverlib/MSP432P4xx/ccs/msp432p4xx_driverlib.lib(gpio.o)
 .text:GPIO_registerInterrupt
                0x0000000000000000       0x1c /Users/snowyang/workspace/MSP432_DriverLib_3_10_00_09/driverlib/MSP432P4xx/ccs/msp432p4xx_driverlib.lib(gpio.o)
 .text:GPIO_getEnabledInterruptStatus
                0x0000000000000000       0x40 /Users/snowyang/workspace/MSP432_DriverLib_3_10_00_09/driverlib/MSP432P4xx/ccs/msp432p4xx_driverlib.lib(gpio.o)
 .text:GPIO_disableInterrupt
                0x0000000000000000       0x18 /Users/snowyang/workspace/MSP432_DriverLib_3_10_00_09/driverlib/MSP432P4xx/ccs/msp432p4xx_driverlib.lib(gpio.o)
 __TI_DW.debug_info.i2c.h.df901748f25508a0f926da5b25480ad6
                0x0000000000000000       0x18 /Users/snowyang/workspace/MSP432_DriverLib_3_10_00_09/driverlib/MSP432P4xx/ccs/msp432p4xx_driverlib.lib(i2c.o)
 __TI_DW.debug_info.msp432p401r.h.6d8a8070feb1cbdf17cfd12c13726284
                0x0000000000000000       0x18 /Users/snowyang/workspace/MSP432_DriverLib_3_10_00_09/driverlib/MSP432P4xx/ccs/msp432p4xx_driverlib.lib(i2c.o)
 __TI_DW.debug_info.core_cm4.h.3e0d370993f2fb13b428b353093627d8
                0x0000000000000000       0x18 /Users/snowyang/workspace/MSP432_DriverLib_3_10_00_09/driverlib/MSP432P4xx/ccs/msp432p4xx_driverlib.lib(i2c.o)
 __TI_DW.debug_info.$base_types.a3001db55c69772f4e2efd565078122a
                0x0000000000000000       0x18 /Users/snowyang/workspace/MSP432_DriverLib_3_10_00_09/driverlib/MSP432P4xx/ccs/msp432p4xx_driverlib.lib(i2c.o)
 __TI_DW.debug_info.stdint.h.066348b889ca56249dcd34de01246954
                0x0000000000000000       0x18 /Users/snowyang/workspace/MSP432_DriverLib_3_10_00_09/driverlib/MSP432P4xx/ccs/msp432p4xx_driverlib.lib(i2c.o)
 __TI_DW.debug_info.yvals.h.3104962cf0c0d1dd116d97cae467d0f3
                0x0000000000000000       0x18 /Users/snowyang/workspace/MSP432_DriverLib_3_10_00_09/driverlib/MSP432P4xx/ccs/msp432p4xx_driverlib.lib(i2c.o)
 __TI_DW.debug_info.i2c.c.c28c76a2404c33e0a1a0020af8753e09
                0x0000000000000000       0x18 /Users/snowyang/workspace/MSP432_DriverLib_3_10_00_09/driverlib/MSP432P4xx/ccs/msp432p4xx_driverlib.lib(i2c.o)
 __TI_DW.debug_info.stdarg.h.94a6efd7e0ac1e1539e5ef9b3dac1248
                0x0000000000000000       0x18 /Users/snowyang/workspace/MSP432_DriverLib_3_10_00_09/driverlib/MSP432P4xx/ccs/msp432p4xx_driverlib.lib(i2c.o)
 .text:I2C_unregisterInterrupt
                0x0000000000000000       0x4c /Users/snowyang/workspace/MSP432_DriverLib_3_10_00_09/driverlib/MSP432P4xx/ccs/msp432p4xx_driverlib.lib(i2c.o)
 .text:I2C_slaveSendNAK
                0x0000000000000000       0x10 /Users/snowyang/workspace/MSP432_DriverLib_3_10_00_09/driverlib/MSP432P4xx/ccs/msp432p4xx_driverlib.lib(i2c.o)
 .text:I2C_slavePutData
                0x0000000000000000        0x4 /Users/snowyang/workspace/MSP432_DriverLib_3_10_00_09/driverlib/MSP432P4xx/ccs/msp432p4xx_driverlib.lib(i2c.o)
 .text:I2C_slaveGetData
                0x0000000000000000        0x6 /Users/snowyang/workspace/MSP432_DriverLib_3_10_00_09/driverlib/MSP432P4xx/ccs/msp432p4xx_driverlib.lib(i2c.o)
 .text:I2C_setMode
                0x0000000000000000        0xe /Users/snowyang/workspace/MSP432_DriverLib_3_10_00_09/driverlib/MSP432P4xx/ccs/msp432p4xx_driverlib.lib(i2c.o)
 .text:I2C_registerInterrupt
                0x0000000000000000       0x4c /Users/snowyang/workspace/MSP432_DriverLib_3_10_00_09/driverlib/MSP432P4xx/ccs/msp432p4xx_driverlib.lib(i2c.o)
 .text:I2C_masterSendStart
                0x0000000000000000       0x10 /Users/snowyang/workspace/MSP432_DriverLib_3_10_00_09/driverlib/MSP432P4xx/ccs/msp432p4xx_driverlib.lib(i2c.o)
 .text:I2C_masterSendSingleByteWithTimeout
                0x0000000000000000       0x64 /Users/snowyang/workspace/MSP432_DriverLib_3_10_00_09/driverlib/MSP432P4xx/ccs/msp432p4xx_driverlib.lib(i2c.o)
 .text:I2C_masterSendSingleByte
                0x0000000000000000       0x50 /Users/snowyang/workspace/MSP432_DriverLib_3_10_00_09/driverlib/MSP432P4xx/ccs/msp432p4xx_driverlib.lib(i2c.o)
 .text:I2C_masterSendMultiByteStopWithTimeout
                0x0000000000000000       0x3c /Users/snowyang/workspace/MSP432_DriverLib_3_10_00_09/driverlib/MSP432P4xx/ccs/msp432p4xx_driverlib.lib(i2c.o)
 .text:I2C_masterSendMultiByteStartWithTimeout
                0x0000000000000000       0x44 /Users/snowyang/workspace/MSP432_DriverLib_3_10_00_09/driverlib/MSP432P4xx/ccs/msp432p4xx_driverlib.lib(i2c.o)
 .text:I2C_masterSendMultiByteNextWithTimeout
                0x0000000000000000       0x30 /Users/snowyang/workspace/MSP432_DriverLib_3_10_00_09/driverlib/MSP432P4xx/ccs/msp432p4xx_driverlib.lib(i2c.o)
 .text:I2C_masterSendMultiByteNext
                0x0000000000000000       0x24 /Users/snowyang/workspace/MSP432_DriverLib_3_10_00_09/driverlib/MSP432P4xx/ccs/msp432p4xx_driverlib.lib(i2c.o)
 .text:I2C_masterSendMultiByteFinishWithTimeout
                0x0000000000000000       0x54 /Users/snowyang/workspace/MSP432_DriverLib_3_10_00_09/driverlib/MSP432P4xx/ccs/msp432p4xx_driverlib.lib(i2c.o)
 .text:I2C_masterSendMultiByteFinish
                0x0000000000000000       0x40 /Users/snowyang/workspace/MSP432_DriverLib_3_10_00_09/driverlib/MSP432P4xx/ccs/msp432p4xx_driverlib.lib(i2c.o)
 .text:I2C_masterReceiveSingleByte
                0x0000000000000000       0x30 /Users/snowyang/workspace/MSP432_DriverLib_3_10_00_09/driverlib/MSP432P4xx/ccs/msp432p4xx_driverlib.lib(i2c.o)
 .text:I2C_masterReceiveMultiByteNext
                0x0000000000000000        0x6 /Users/snowyang/workspace/MSP432_DriverLib_3_10_00_09/driverlib/MSP432P4xx/ccs/msp432p4xx_driverlib.lib(i2c.o)
 .text:I2C_masterReceiveMultiByteFinishWithTimeout
                0x0000000000000000       0x40 /Users/snowyang/workspace/MSP432_DriverLib_3_10_00_09/driverlib/MSP432P4xx/ccs/msp432p4xx_driverlib.lib(i2c.o)
 .text:I2C_isBusBusy
                0x0000000000000000       0x14 /Users/snowyang/workspace/MSP432_DriverLib_3_10_00_09/driverlib/MSP432P4xx/ccs/msp432p4xx_driverlib.lib(i2c.o)
 .text:I2C_initSlave
                0x0000000000000000       0x22 /Users/snowyang/workspace/MSP432_DriverLib_3_10_00_09/driverlib/MSP432P4xx/ccs/msp432p4xx_driverlib.lib(i2c.o)
 .text:I2C_initMaster
                0x0000000000000000       0x3e /Users/snowyang/workspace/MSP432_DriverLib_3_10_00_09/driverlib/MSP432P4xx/ccs/msp432p4xx_driverlib.lib(i2c.o)
 .text:I2C_getTransmitBufferAddressForDMA
                0x0000000000000000        0x4 /Users/snowyang/workspace/MSP432_DriverLib_3_10_00_09/driverlib/MSP432P4xx/ccs/msp432p4xx_driverlib.lib(i2c.o)
 .text:I2C_getReceiveBufferAddressForDMA
                0x0000000000000000        0x4 /Users/snowyang/workspace/MSP432_DriverLib_3_10_00_09/driverlib/MSP432P4xx/ccs/msp432p4xx_driverlib.lib(i2c.o)
 .text:I2C_getMode
                0x0000000000000000        0x8 /Users/snowyang/workspace/MSP432_DriverLib_3_10_00_09/driverlib/MSP432P4xx/ccs/msp432p4xx_driverlib.lib(i2c.o)
 .text:I2C_getEnabledInterruptStatus
                0x0000000000000000        0x6 /Users/snowyang/workspace/MSP432_DriverLib_3_10_00_09/driverlib/MSP432P4xx/ccs/msp432p4xx_driverlib.lib(i2c.o)
 .text:I2C_enableMultiMasterMode
                0x0000000000000000       0x10 /Users/snowyang/workspace/MSP432_DriverLib_3_10_00_09/driverlib/MSP432P4xx/ccs/msp432p4xx_driverlib.lib(i2c.o)
 .text:I2C_enableModule
                0x0000000000000000        0xc /Users/snowyang/workspace/MSP432_DriverLib_3_10_00_09/driverlib/MSP432P4xx/ccs/msp432p4xx_driverlib.lib(i2c.o)
 .text:I2C_enableInterrupt
                0x0000000000000000        0x8 /Users/snowyang/workspace/MSP432_DriverLib_3_10_00_09/driverlib/MSP432P4xx/ccs/msp432p4xx_driverlib.lib(i2c.o)
 .text:I2C_disableMultiMasterMode
                0x0000000000000000       0x12 /Users/snowyang/workspace/MSP432_DriverLib_3_10_00_09/driverlib/MSP432P4xx/ccs/msp432p4xx_driverlib.lib(i2c.o)
 .text:I2C_disableModule
                0x0000000000000000        0xc /Users/snowyang/workspace/MSP432_DriverLib_3_10_00_09/driverlib/MSP432P4xx/ccs/msp432p4xx_driverlib.lib(i2c.o)
 .text:I2C_disableInterrupt
                0x0000000000000000        0xe /Users/snowyang/workspace/MSP432_DriverLib_3_10_00_09/driverlib/MSP432P4xx/ccs/msp432p4xx_driverlib.lib(i2c.o)
 .debug_info    0x0000000000000000     0x35df /Users/snowyang/workspace/MSP432_DriverLib_3_10_00_09/driverlib/MSP432P4xx/ccs/msp432p4xx_driverlib.lib(i2c.o)
 .debug_info    0x0000000000000000     0x103e /Users/snowyang/workspace/MSP432_DriverLib_3_10_00_09/driverlib/MSP432P4xx/ccs/msp432p4xx_driverlib.lib(i2c.o)
 .debug_info    0x0000000000000000      0x18b /Users/snowyang/workspace/MSP432_DriverLib_3_10_00_09/driverlib/MSP432P4xx/ccs/msp432p4xx_driverlib.lib(i2c.o)
 .debug_info    0x0000000000000000       0xa7 /Users/snowyang/workspace/MSP432_DriverLib_3_10_00_09/driverlib/MSP432P4xx/ccs/msp432p4xx_driverlib.lib(i2c.o)
 .debug_info    0x0000000000000000       0x4e /Users/snowyang/workspace/MSP432_DriverLib_3_10_00_09/driverlib/MSP432P4xx/ccs/msp432p4xx_driverlib.lib(i2c.o)
 .debug_line    0x0000000000000000       0x5b /Users/snowyang/workspace/MSP432_DriverLib_3_10_00_09/driverlib/MSP432P4xx/ccs/msp432p4xx_driverlib.lib(i2c.o)
 .debug_line    0x0000000000000000       0x5e /Users/snowyang/workspace/MSP432_DriverLib_3_10_00_09/driverlib/MSP432P4xx/ccs/msp432p4xx_driverlib.lib(i2c.o)
 .debug_line    0x0000000000000000       0x69 /Users/snowyang/workspace/MSP432_DriverLib_3_10_00_09/driverlib/MSP432P4xx/ccs/msp432p4xx_driverlib.lib(i2c.o)
 .debug_line    0x0000000000000000       0x68 /Users/snowyang/workspace/MSP432_DriverLib_3_10_00_09/driverlib/MSP432P4xx/ccs/msp432p4xx_driverlib.lib(i2c.o)
 .debug_line    0x0000000000000000       0x69 /Users/snowyang/workspace/MSP432_DriverLib_3_10_00_09/driverlib/MSP432P4xx/ccs/msp432p4xx_driverlib.lib(i2c.o)
 .debug_abbrev  0x0000000000000000       0xbd /Users/snowyang/workspace/MSP432_DriverLib_3_10_00_09/driverlib/MSP432P4xx/ccs/msp432p4xx_driverlib.lib(i2c.o)
 .debug_str     0x0000000000000000     0x15f0 /Users/snowyang/workspace/MSP432_DriverLib_3_10_00_09/driverlib/MSP432P4xx/ccs/msp432p4xx_driverlib.lib(i2c.o)
 .debug_abbrev  0x0000000000000000       0x97 /Users/snowyang/workspace/MSP432_DriverLib_3_10_00_09/driverlib/MSP432P4xx/ccs/msp432p4xx_driverlib.lib(i2c.o)
 .debug_str     0x0000000000000000      0x465 /Users/snowyang/workspace/MSP432_DriverLib_3_10_00_09/driverlib/MSP432P4xx/ccs/msp432p4xx_driverlib.lib(i2c.o)
 .debug_abbrev  0x0000000000000000       0x35 /Users/snowyang/workspace/MSP432_DriverLib_3_10_00_09/driverlib/MSP432P4xx/ccs/msp432p4xx_driverlib.lib(i2c.o)
 .debug_str     0x0000000000000000      0x209 /Users/snowyang/workspace/MSP432_DriverLib_3_10_00_09/driverlib/MSP432P4xx/ccs/msp432p4xx_driverlib.lib(i2c.o)
 .debug_abbrev  0x0000000000000000       0x35 /Users/snowyang/workspace/MSP432_DriverLib_3_10_00_09/driverlib/MSP432P4xx/ccs/msp432p4xx_driverlib.lib(i2c.o)
 .debug_str     0x0000000000000000      0x11c /Users/snowyang/workspace/MSP432_DriverLib_3_10_00_09/driverlib/MSP432P4xx/ccs/msp432p4xx_driverlib.lib(i2c.o)
 .debug_abbrev  0x0000000000000000       0x4b /Users/snowyang/workspace/MSP432_DriverLib_3_10_00_09/driverlib/MSP432P4xx/ccs/msp432p4xx_driverlib.lib(i2c.o)
 .debug_str     0x0000000000000000       0xdc /Users/snowyang/workspace/MSP432_DriverLib_3_10_00_09/driverlib/MSP432P4xx/ccs/msp432p4xx_driverlib.lib(i2c.o)
 .debug_pubtypes
                0x0000000000000000      0x27f /Users/snowyang/workspace/MSP432_DriverLib_3_10_00_09/driverlib/MSP432P4xx/ccs/msp432p4xx_driverlib.lib(i2c.o)
 .debug_pubtypes
                0x0000000000000000       0xdd /Users/snowyang/workspace/MSP432_DriverLib_3_10_00_09/driverlib/MSP432P4xx/ccs/msp432p4xx_driverlib.lib(i2c.o)
 .debug_pubtypes
                0x0000000000000000      0x1c6 /Users/snowyang/workspace/MSP432_DriverLib_3_10_00_09/driverlib/MSP432P4xx/ccs/msp432p4xx_driverlib.lib(i2c.o)
 .debug_pubtypes
                0x0000000000000000       0x92 /Users/snowyang/workspace/MSP432_DriverLib_3_10_00_09/driverlib/MSP432P4xx/ccs/msp432p4xx_driverlib.lib(i2c.o)
 .debug_pubtypes
                0x0000000000000000       0x2c /Users/snowyang/workspace/MSP432_DriverLib_3_10_00_09/driverlib/MSP432P4xx/ccs/msp432p4xx_driverlib.lib(i2c.o)
 __TI_DW.debug_info.core_cm4.h.3e0d370993f2fb13b428b353093627d8
                0x0000000000000000       0x18 /Users/snowyang/workspace/MSP432_DriverLib_3_10_00_09/driverlib/MSP432P4xx/ccs/msp432p4xx_driverlib.lib(interrupt.o)
 __TI_DW.debug_info.msp432p401r.h.6d8a8070feb1cbdf17cfd12c13726284
                0x0000000000000000       0x18 /Users/snowyang/workspace/MSP432_DriverLib_3_10_00_09/driverlib/MSP432P4xx/ccs/msp432p4xx_driverlib.lib(interrupt.o)
 __TI_DW.debug_info.$base_types.a3001db55c69772f4e2efd565078122a
                0x0000000000000000       0x18 /Users/snowyang/workspace/MSP432_DriverLib_3_10_00_09/driverlib/MSP432P4xx/ccs/msp432p4xx_driverlib.lib(interrupt.o)
 __TI_DW.debug_info.stdint.h.066348b889ca56249dcd34de01246954
                0x0000000000000000       0x18 /Users/snowyang/workspace/MSP432_DriverLib_3_10_00_09/driverlib/MSP432P4xx/ccs/msp432p4xx_driverlib.lib(interrupt.o)
 __TI_DW.debug_info.yvals.h.3104962cf0c0d1dd116d97cae467d0f3
                0x0000000000000000       0x18 /Users/snowyang/workspace/MSP432_DriverLib_3_10_00_09/driverlib/MSP432P4xx/ccs/msp432p4xx_driverlib.lib(interrupt.o)
 __TI_DW.debug_info.interrupt.c.cb9aae39771082ddf4b1b590b3eebca4
                0x0000000000000000       0x18 /Users/snowyang/workspace/MSP432_DriverLib_3_10_00_09/driverlib/MSP432P4xx/ccs/msp432p4xx_driverlib.lib(interrupt.o)
 __TI_DW.debug_info.stdarg.h.94a6efd7e0ac1e1539e5ef9b3dac1248
                0x0000000000000000       0x18 /Users/snowyang/workspace/MSP432_DriverLib_3_10_00_09/driverlib/MSP432P4xx/ccs/msp432p4xx_driverlib.lib(interrupt.o)
 .const:g_pulRegs
                0x0000000000000000       0x50 /Users/snowyang/workspace/MSP432_DriverLib_3_10_00_09/driverlib/MSP432P4xx/ccs/msp432p4xx_driverlib.lib(interrupt.o)
 .text:Interrupt_unregisterInterrupt
                0x0000000000000000       0x14 /Users/snowyang/workspace/MSP432_DriverLib_3_10_00_09/driverlib/MSP432P4xx/ccs/msp432p4xx_driverlib.lib(interrupt.o)
 .text:Interrupt_unpendInterrupt
                0x0000000000000000       0x44 /Users/snowyang/workspace/MSP432_DriverLib_3_10_00_09/driverlib/MSP432P4xx/ccs/msp432p4xx_driverlib.lib(interrupt.o)
 .text:Interrupt_setVectorTableAddress
                0x0000000000000000        0xc /Users/snowyang/workspace/MSP432_DriverLib_3_10_00_09/driverlib/MSP432P4xx/ccs/msp432p4xx_driverlib.lib(interrupt.o)
 .text:Interrupt_setPriorityMask
                0x0000000000000000        0x4 /Users/snowyang/workspace/MSP432_DriverLib_3_10_00_09/driverlib/MSP432P4xx/ccs/msp432p4xx_driverlib.lib(interrupt.o)
 .text:Interrupt_setPriorityGrouping
                0x0000000000000000       0x20 /Users/snowyang/workspace/MSP432_DriverLib_3_10_00_09/driverlib/MSP432P4xx/ccs/msp432p4xx_driverlib.lib(interrupt.o)
 .text:Interrupt_setPriority
                0x0000000000000000       0x24 /Users/snowyang/workspace/MSP432_DriverLib_3_10_00_09/driverlib/MSP432P4xx/ccs/msp432p4xx_driverlib.lib(interrupt.o)
 .text:Interrupt_pendInterrupt
                0x0000000000000000       0x50 /Users/snowyang/workspace/MSP432_DriverLib_3_10_00_09/driverlib/MSP432P4xx/ccs/msp432p4xx_driverlib.lib(interrupt.o)
 .text:Interrupt_isEnabled
                0x0000000000000000       0x68 /Users/snowyang/workspace/MSP432_DriverLib_3_10_00_09/driverlib/MSP432P4xx/ccs/msp432p4xx_driverlib.lib(interrupt.o)
 .text:Interrupt_getVectorTableAddress
                0x0000000000000000        0xc /Users/snowyang/workspace/MSP432_DriverLib_3_10_00_09/driverlib/MSP432P4xx/ccs/msp432p4xx_driverlib.lib(interrupt.o)
 .text:Interrupt_getPriorityMask
                0x0000000000000000        0xa /Users/snowyang/workspace/MSP432_DriverLib_3_10_00_09/driverlib/MSP432P4xx/ccs/msp432p4xx_driverlib.lib(interrupt.o)
 .text:Interrupt_getPriorityGrouping
                0x0000000000000000       0x30 /Users/snowyang/workspace/MSP432_DriverLib_3_10_00_09/driverlib/MSP432P4xx/ccs/msp432p4xx_driverlib.lib(interrupt.o)
 .text:Interrupt_getPriority
                0x0000000000000000       0x1c /Users/snowyang/workspace/MSP432_DriverLib_3_10_00_09/driverlib/MSP432P4xx/ccs/msp432p4xx_driverlib.lib(interrupt.o)
 .text:Interrupt_enableSleepOnIsrExit
                0x0000000000000000       0x14 /Users/snowyang/workspace/MSP432_DriverLib_3_10_00_09/driverlib/MSP432P4xx/ccs/msp432p4xx_driverlib.lib(interrupt.o)
 .text:Interrupt_enableMaster
                0x0000000000000000       0x10 /Users/snowyang/workspace/MSP432_DriverLib_3_10_00_09/driverlib/MSP432P4xx/ccs/msp432p4xx_driverlib.lib(interrupt.o)
 .text:Interrupt_disableSleepOnIsrExit
                0x0000000000000000       0x14 /Users/snowyang/workspace/MSP432_DriverLib_3_10_00_09/driverlib/MSP432P4xx/ccs/msp432p4xx_driverlib.lib(interrupt.o)
 .text:Interrupt_disableMaster
                0x0000000000000000       0x10 /Users/snowyang/workspace/MSP432_DriverLib_3_10_00_09/driverlib/MSP432P4xx/ccs/msp432p4xx_driverlib.lib(interrupt.o)
 .text:Interrupt_disableInterrupt
                0x0000000000000000       0x64 /Users/snowyang/workspace/MSP432_DriverLib_3_10_00_09/driverlib/MSP432P4xx/ccs/msp432p4xx_driverlib.lib(interrupt.o)
 .text:IntDefaultHandler
                0x0000000000000000        0x2 /Users/snowyang/workspace/MSP432_DriverLib_3_10_00_09/driverlib/MSP432P4xx/ccs/msp432p4xx_driverlib.lib(interrupt.o)
 .debug_info    0x0000000000000000     0x103e /Users/snowyang/workspace/MSP432_DriverLib_3_10_00_09/driverlib/MSP432P4xx/ccs/msp432p4xx_driverlib.lib(interrupt.o)
 .debug_info    0x0000000000000000     0x35df /Users/snowyang/workspace/MSP432_DriverLib_3_10_00_09/driverlib/MSP432P4xx/ccs/msp432p4xx_driverlib.lib(interrupt.o)
 .debug_info    0x0000000000000000       0x8b /Users/snowyang/workspace/MSP432_DriverLib_3_10_00_09/driverlib/MSP432P4xx/ccs/msp432p4xx_driverlib.lib(interrupt.o)
 .debug_info    0x0000000000000000      0x18b /Users/snowyang/workspace/MSP432_DriverLib_3_10_00_09/driverlib/MSP432P4xx/ccs/msp432p4xx_driverlib.lib(interrupt.o)
 .debug_info    0x0000000000000000       0xa7 /Users/snowyang/workspace/MSP432_DriverLib_3_10_00_09/driverlib/MSP432P4xx/ccs/msp432p4xx_driverlib.lib(interrupt.o)
 .debug_info    0x0000000000000000       0x4e /Users/snowyang/workspace/MSP432_DriverLib_3_10_00_09/driverlib/MSP432P4xx/ccs/msp432p4xx_driverlib.lib(interrupt.o)
 .debug_line    0x0000000000000000       0x5e /Users/snowyang/workspace/MSP432_DriverLib_3_10_00_09/driverlib/MSP432P4xx/ccs/msp432p4xx_driverlib.lib(interrupt.o)
 .debug_line    0x0000000000000000       0x5b /Users/snowyang/workspace/MSP432_DriverLib_3_10_00_09/driverlib/MSP432P4xx/ccs/msp432p4xx_driverlib.lib(interrupt.o)
 .debug_line    0x0000000000000000       0x20 /Users/snowyang/workspace/MSP432_DriverLib_3_10_00_09/driverlib/MSP432P4xx/ccs/msp432p4xx_driverlib.lib(interrupt.o)
 .debug_line    0x0000000000000000       0x69 /Users/snowyang/workspace/MSP432_DriverLib_3_10_00_09/driverlib/MSP432P4xx/ccs/msp432p4xx_driverlib.lib(interrupt.o)
 .debug_line    0x0000000000000000       0x68 /Users/snowyang/workspace/MSP432_DriverLib_3_10_00_09/driverlib/MSP432P4xx/ccs/msp432p4xx_driverlib.lib(interrupt.o)
 .debug_line    0x0000000000000000       0x69 /Users/snowyang/workspace/MSP432_DriverLib_3_10_00_09/driverlib/MSP432P4xx/ccs/msp432p4xx_driverlib.lib(interrupt.o)
 .debug_abbrev  0x0000000000000000       0x97 /Users/snowyang/workspace/MSP432_DriverLib_3_10_00_09/driverlib/MSP432P4xx/ccs/msp432p4xx_driverlib.lib(interrupt.o)
 .debug_str     0x0000000000000000      0x465 /Users/snowyang/workspace/MSP432_DriverLib_3_10_00_09/driverlib/MSP432P4xx/ccs/msp432p4xx_driverlib.lib(interrupt.o)
 .debug_abbrev  0x0000000000000000       0xbd /Users/snowyang/workspace/MSP432_DriverLib_3_10_00_09/driverlib/MSP432P4xx/ccs/msp432p4xx_driverlib.lib(interrupt.o)
 .debug_str     0x0000000000000000     0x15f0 /Users/snowyang/workspace/MSP432_DriverLib_3_10_00_09/driverlib/MSP432P4xx/ccs/msp432p4xx_driverlib.lib(interrupt.o)
 .debug_abbrev  0x0000000000000000       0x1f /Users/snowyang/workspace/MSP432_DriverLib_3_10_00_09/driverlib/MSP432P4xx/ccs/msp432p4xx_driverlib.lib(interrupt.o)
 .debug_str     0x0000000000000000       0xf5 /Users/snowyang/workspace/MSP432_DriverLib_3_10_00_09/driverlib/MSP432P4xx/ccs/msp432p4xx_driverlib.lib(interrupt.o)
 .debug_abbrev  0x0000000000000000       0x35 /Users/snowyang/workspace/MSP432_DriverLib_3_10_00_09/driverlib/MSP432P4xx/ccs/msp432p4xx_driverlib.lib(interrupt.o)
 .debug_str     0x0000000000000000      0x209 /Users/snowyang/workspace/MSP432_DriverLib_3_10_00_09/driverlib/MSP432P4xx/ccs/msp432p4xx_driverlib.lib(interrupt.o)
 .debug_abbrev  0x0000000000000000       0x35 /Users/snowyang/workspace/MSP432_DriverLib_3_10_00_09/driverlib/MSP432P4xx/ccs/msp432p4xx_driverlib.lib(interrupt.o)
 .debug_str     0x0000000000000000      0x11c /Users/snowyang/workspace/MSP432_DriverLib_3_10_00_09/driverlib/MSP432P4xx/ccs/msp432p4xx_driverlib.lib(interrupt.o)
 .debug_abbrev  0x0000000000000000       0x4b /Users/snowyang/workspace/MSP432_DriverLib_3_10_00_09/driverlib/MSP432P4xx/ccs/msp432p4xx_driverlib.lib(interrupt.o)
 .debug_str     0x0000000000000000       0xdc /Users/snowyang/workspace/MSP432_DriverLib_3_10_00_09/driverlib/MSP432P4xx/ccs/msp432p4xx_driverlib.lib(interrupt.o)
 .debug_pubtypes
                0x0000000000000000       0xdd /Users/snowyang/workspace/MSP432_DriverLib_3_10_00_09/driverlib/MSP432P4xx/ccs/msp432p4xx_driverlib.lib(interrupt.o)
 .debug_pubtypes
                0x0000000000000000      0x27f /Users/snowyang/workspace/MSP432_DriverLib_3_10_00_09/driverlib/MSP432P4xx/ccs/msp432p4xx_driverlib.lib(interrupt.o)
 .debug_pubtypes
                0x0000000000000000       0xff /Users/snowyang/workspace/MSP432_DriverLib_3_10_00_09/driverlib/MSP432P4xx/ccs/msp432p4xx_driverlib.lib(interrupt.o)
 .debug_pubtypes
                0x0000000000000000      0x1c6 /Users/snowyang/workspace/MSP432_DriverLib_3_10_00_09/driverlib/MSP432P4xx/ccs/msp432p4xx_driverlib.lib(interrupt.o)
 .debug_pubtypes
                0x0000000000000000       0x92 /Users/snowyang/workspace/MSP432_DriverLib_3_10_00_09/driverlib/MSP432P4xx/ccs/msp432p4xx_driverlib.lib(interrupt.o)
 .debug_pubtypes
                0x0000000000000000       0x2c /Users/snowyang/workspace/MSP432_DriverLib_3_10_00_09/driverlib/MSP432P4xx/ccs/msp432p4xx_driverlib.lib(interrupt.o)
 __TI_DW.debug_info.msp432p401r.h.6d8a8070feb1cbdf17cfd12c13726284
                0x0000000000000000       0x18 /Users/snowyang/workspace/MSP432_DriverLib_3_10_00_09/driverlib/MSP432P4xx/ccs/msp432p4xx_driverlib.lib(uart.o)
 __TI_DW.debug_info.core_cm4.h.3e0d370993f2fb13b428b353093627d8
                0x0000000000000000       0x18 /Users/snowyang/workspace/MSP432_DriverLib_3_10_00_09/driverlib/MSP432P4xx/ccs/msp432p4xx_driverlib.lib(uart.o)
 __TI_DW.debug_info.$base_types.a3001db55c69772f4e2efd565078122a
                0x0000000000000000       0x18 /Users/snowyang/workspace/MSP432_DriverLib_3_10_00_09/driverlib/MSP432P4xx/ccs/msp432p4xx_driverlib.lib(uart.o)
 __TI_DW.debug_info.stdint.h.066348b889ca56249dcd34de01246954
                0x0000000000000000       0x18 /Users/snowyang/workspace/MSP432_DriverLib_3_10_00_09/driverlib/MSP432P4xx/ccs/msp432p4xx_driverlib.lib(uart.o)
 __TI_DW.debug_info.yvals.h.3104962cf0c0d1dd116d97cae467d0f3
                0x0000000000000000       0x18 /Users/snowyang/workspace/MSP432_DriverLib_3_10_00_09/driverlib/MSP432P4xx/ccs/msp432p4xx_driverlib.lib(uart.o)
 __TI_DW.debug_info.uart.c.cce5d63d853ed742f8ce997a4b36a7fc
                0x0000000000000000       0x18 /Users/snowyang/workspace/MSP432_DriverLib_3_10_00_09/driverlib/MSP432P4xx/ccs/msp432p4xx_driverlib.lib(uart.o)
 __TI_DW.debug_info.stdarg.h.94a6efd7e0ac1e1539e5ef9b3dac1248
                0x0000000000000000       0x18 /Users/snowyang/workspace/MSP432_DriverLib_3_10_00_09/driverlib/MSP432P4xx/ccs/msp432p4xx_driverlib.lib(uart.o)
 __TI_DW.debug_info.uart.h.fb38e74a725c4613f99c8bafacdf9017
                0x0000000000000000       0x18 /Users/snowyang/workspace/MSP432_DriverLib_3_10_00_09/driverlib/MSP432P4xx/ccs/msp432p4xx_driverlib.lib(uart.o)
 .text:UART_unregisterInterrupt
                0x0000000000000000       0x4c /Users/snowyang/workspace/MSP432_DriverLib_3_10_00_09/driverlib/MSP432P4xx/ccs/msp432p4xx_driverlib.lib(uart.o)
 .text:UART_transmitData
                0x0000000000000000       0x24 /Users/snowyang/workspace/MSP432_DriverLib_3_10_00_09/driverlib/MSP432P4xx/ccs/msp432p4xx_driverlib.lib(uart.o)
 .text:UART_transmitBreak
                0x0000000000000000       0x38 /Users/snowyang/workspace/MSP432_DriverLib_3_10_00_09/driverlib/MSP432P4xx/ccs/msp432p4xx_driverlib.lib(uart.o)
 .text:UART_transmitAddress
                0x0000000000000000       0x14 /Users/snowyang/workspace/MSP432_DriverLib_3_10_00_09/driverlib/MSP432P4xx/ccs/msp432p4xx_driverlib.lib(uart.o)
 .text:UART_setDormant
                0x0000000000000000       0x10 /Users/snowyang/workspace/MSP432_DriverLib_3_10_00_09/driverlib/MSP432P4xx/ccs/msp432p4xx_driverlib.lib(uart.o)
 .text:UART_selectDeglitchTime
                0x0000000000000000        0xe /Users/snowyang/workspace/MSP432_DriverLib_3_10_00_09/driverlib/MSP432P4xx/ccs/msp432p4xx_driverlib.lib(uart.o)
 .text:UART_resetDormant
                0x0000000000000000       0x10 /Users/snowyang/workspace/MSP432_DriverLib_3_10_00_09/driverlib/MSP432P4xx/ccs/msp432p4xx_driverlib.lib(uart.o)
 .text:UART_receiveData
                0x0000000000000000       0x24 /Users/snowyang/workspace/MSP432_DriverLib_3_10_00_09/driverlib/MSP432P4xx/ccs/msp432p4xx_driverlib.lib(uart.o)
 .text:UART_queryStatusFlags
                0x0000000000000000        0x6 /Users/snowyang/workspace/MSP432_DriverLib_3_10_00_09/driverlib/MSP432P4xx/ccs/msp432p4xx_driverlib.lib(uart.o)
 .text:UART_initModule
                0x0000000000000000       0x94 /Users/snowyang/workspace/MSP432_DriverLib_3_10_00_09/driverlib/MSP432P4xx/ccs/msp432p4xx_driverlib.lib(uart.o)
 .text:UART_getTransmitBufferAddressForDMA
                0x0000000000000000        0x4 /Users/snowyang/workspace/MSP432_DriverLib_3_10_00_09/driverlib/MSP432P4xx/ccs/msp432p4xx_driverlib.lib(uart.o)
 .text:UART_getReceiveBufferAddressForDMA
                0x0000000000000000        0x4 /Users/snowyang/workspace/MSP432_DriverLib_3_10_00_09/driverlib/MSP432P4xx/ccs/msp432p4xx_driverlib.lib(uart.o)
 .text:UART_getEnabledInterruptStatus
                0x0000000000000000       0x30 /Users/snowyang/workspace/MSP432_DriverLib_3_10_00_09/driverlib/MSP432P4xx/ccs/msp432p4xx_driverlib.lib(uart.o)
 .text:UART_enableModule
                0x0000000000000000        0xc /Users/snowyang/workspace/MSP432_DriverLib_3_10_00_09/driverlib/MSP432P4xx/ccs/msp432p4xx_driverlib.lib(uart.o)
 .text:UART_enableInterrupt
                0x0000000000000000       0x16 /Users/snowyang/workspace/MSP432_DriverLib_3_10_00_09/driverlib/MSP432P4xx/ccs/msp432p4xx_driverlib.lib(uart.o)
 .text:UART_disableModule
                0x0000000000000000        0xc /Users/snowyang/workspace/MSP432_DriverLib_3_10_00_09/driverlib/MSP432P4xx/ccs/msp432p4xx_driverlib.lib(uart.o)
 .text:UART_disableInterrupt
                0x0000000000000000       0x24 /Users/snowyang/workspace/MSP432_DriverLib_3_10_00_09/driverlib/MSP432P4xx/ccs/msp432p4xx_driverlib.lib(uart.o)
 .text:UART_clearInterruptFlag
                0x0000000000000000        0xe /Users/snowyang/workspace/MSP432_DriverLib_3_10_00_09/driverlib/MSP432P4xx/ccs/msp432p4xx_driverlib.lib(uart.o)
 .debug_info    0x0000000000000000     0x35df /Users/snowyang/workspace/MSP432_DriverLib_3_10_00_09/driverlib/MSP432P4xx/ccs/msp432p4xx_driverlib.lib(uart.o)
 .debug_info    0x0000000000000000     0x103e /Users/snowyang/workspace/MSP432_DriverLib_3_10_00_09/driverlib/MSP432P4xx/ccs/msp432p4xx_driverlib.lib(uart.o)
 .debug_info    0x0000000000000000       0x8b /Users/snowyang/workspace/MSP432_DriverLib_3_10_00_09/driverlib/MSP432P4xx/ccs/msp432p4xx_driverlib.lib(uart.o)
 .debug_info    0x0000000000000000      0x18b /Users/snowyang/workspace/MSP432_DriverLib_3_10_00_09/driverlib/MSP432P4xx/ccs/msp432p4xx_driverlib.lib(uart.o)
 .debug_info    0x0000000000000000       0xa7 /Users/snowyang/workspace/MSP432_DriverLib_3_10_00_09/driverlib/MSP432P4xx/ccs/msp432p4xx_driverlib.lib(uart.o)
 .debug_info    0x0000000000000000       0x4e /Users/snowyang/workspace/MSP432_DriverLib_3_10_00_09/driverlib/MSP432P4xx/ccs/msp432p4xx_driverlib.lib(uart.o)
 .debug_line    0x0000000000000000       0x5b /Users/snowyang/workspace/MSP432_DriverLib_3_10_00_09/driverlib/MSP432P4xx/ccs/msp432p4xx_driverlib.lib(uart.o)
 .debug_line    0x0000000000000000       0x5e /Users/snowyang/workspace/MSP432_DriverLib_3_10_00_09/driverlib/MSP432P4xx/ccs/msp432p4xx_driverlib.lib(uart.o)
 .debug_line    0x0000000000000000       0x20 /Users/snowyang/workspace/MSP432_DriverLib_3_10_00_09/driverlib/MSP432P4xx/ccs/msp432p4xx_driverlib.lib(uart.o)
 .debug_line    0x0000000000000000       0x69 /Users/snowyang/workspace/MSP432_DriverLib_3_10_00_09/driverlib/MSP432P4xx/ccs/msp432p4xx_driverlib.lib(uart.o)
 .debug_line    0x0000000000000000       0x68 /Users/snowyang/workspace/MSP432_DriverLib_3_10_00_09/driverlib/MSP432P4xx/ccs/msp432p4xx_driverlib.lib(uart.o)
 .debug_line    0x0000000000000000       0x69 /Users/snowyang/workspace/MSP432_DriverLib_3_10_00_09/driverlib/MSP432P4xx/ccs/msp432p4xx_driverlib.lib(uart.o)
 .debug_abbrev  0x0000000000000000       0xbd /Users/snowyang/workspace/MSP432_DriverLib_3_10_00_09/driverlib/MSP432P4xx/ccs/msp432p4xx_driverlib.lib(uart.o)
 .debug_str     0x0000000000000000     0x15f0 /Users/snowyang/workspace/MSP432_DriverLib_3_10_00_09/driverlib/MSP432P4xx/ccs/msp432p4xx_driverlib.lib(uart.o)
 .debug_abbrev  0x0000000000000000       0x97 /Users/snowyang/workspace/MSP432_DriverLib_3_10_00_09/driverlib/MSP432P4xx/ccs/msp432p4xx_driverlib.lib(uart.o)
 .debug_str     0x0000000000000000      0x465 /Users/snowyang/workspace/MSP432_DriverLib_3_10_00_09/driverlib/MSP432P4xx/ccs/msp432p4xx_driverlib.lib(uart.o)
 .debug_abbrev  0x0000000000000000       0x1f /Users/snowyang/workspace/MSP432_DriverLib_3_10_00_09/driverlib/MSP432P4xx/ccs/msp432p4xx_driverlib.lib(uart.o)
 .debug_str     0x0000000000000000       0xf5 /Users/snowyang/workspace/MSP432_DriverLib_3_10_00_09/driverlib/MSP432P4xx/ccs/msp432p4xx_driverlib.lib(uart.o)
 .debug_abbrev  0x0000000000000000       0x35 /Users/snowyang/workspace/MSP432_DriverLib_3_10_00_09/driverlib/MSP432P4xx/ccs/msp432p4xx_driverlib.lib(uart.o)
 .debug_str     0x0000000000000000      0x209 /Users/snowyang/workspace/MSP432_DriverLib_3_10_00_09/driverlib/MSP432P4xx/ccs/msp432p4xx_driverlib.lib(uart.o)
 .debug_abbrev  0x0000000000000000       0x35 /Users/snowyang/workspace/MSP432_DriverLib_3_10_00_09/driverlib/MSP432P4xx/ccs/msp432p4xx_driverlib.lib(uart.o)
 .debug_str     0x0000000000000000      0x11c /Users/snowyang/workspace/MSP432_DriverLib_3_10_00_09/driverlib/MSP432P4xx/ccs/msp432p4xx_driverlib.lib(uart.o)
 .debug_abbrev  0x0000000000000000       0x4b /Users/snowyang/workspace/MSP432_DriverLib_3_10_00_09/driverlib/MSP432P4xx/ccs/msp432p4xx_driverlib.lib(uart.o)
 .debug_str     0x0000000000000000       0xdc /Users/snowyang/workspace/MSP432_DriverLib_3_10_00_09/driverlib/MSP432P4xx/ccs/msp432p4xx_driverlib.lib(uart.o)
 .debug_pubtypes
                0x0000000000000000      0x27f /Users/snowyang/workspace/MSP432_DriverLib_3_10_00_09/driverlib/MSP432P4xx/ccs/msp432p4xx_driverlib.lib(uart.o)
 .debug_pubtypes
                0x0000000000000000       0xdd /Users/snowyang/workspace/MSP432_DriverLib_3_10_00_09/driverlib/MSP432P4xx/ccs/msp432p4xx_driverlib.lib(uart.o)
 .debug_pubtypes
                0x0000000000000000       0xff /Users/snowyang/workspace/MSP432_DriverLib_3_10_00_09/driverlib/MSP432P4xx/ccs/msp432p4xx_driverlib.lib(uart.o)
 .debug_pubtypes
                0x0000000000000000      0x1c6 /Users/snowyang/workspace/MSP432_DriverLib_3_10_00_09/driverlib/MSP432P4xx/ccs/msp432p4xx_driverlib.lib(uart.o)
 .debug_pubtypes
                0x0000000000000000       0x92 /Users/snowyang/workspace/MSP432_DriverLib_3_10_00_09/driverlib/MSP432P4xx/ccs/msp432p4xx_driverlib.lib(uart.o)
 .debug_pubtypes
                0x0000000000000000       0x2c /Users/snowyang/workspace/MSP432_DriverLib_3_10_00_09/driverlib/MSP432P4xx/ccs/msp432p4xx_driverlib.lib(uart.o)
 __TI_DW.debug_info.core_cm4.h.3e0d370993f2fb13b428b353093627d8
                0x0000000000000000       0x18 /Users/snowyang/workspace/MSP432_DriverLib_3_10_00_09/driverlib/MSP432P4xx/ccs/msp432p4xx_driverlib.lib(cpu.o)
 __TI_DW.debug_info.msp432p401r.h.6d8a8070feb1cbdf17cfd12c13726284
                0x0000000000000000       0x18 /Users/snowyang/workspace/MSP432_DriverLib_3_10_00_09/driverlib/MSP432P4xx/ccs/msp432p4xx_driverlib.lib(cpu.o)
 __TI_DW.debug_info.$base_types.c8c38483d660372cd06395436475430b
                0x0000000000000000       0x18 /Users/snowyang/workspace/MSP432_DriverLib_3_10_00_09/driverlib/MSP432P4xx/ccs/msp432p4xx_driverlib.lib(cpu.o)
 __TI_DW.debug_info.stdint.h.066348b889ca56249dcd34de01246954
                0x0000000000000000       0x18 /Users/snowyang/workspace/MSP432_DriverLib_3_10_00_09/driverlib/MSP432P4xx/ccs/msp432p4xx_driverlib.lib(cpu.o)
 __TI_DW.debug_info.cpu.c.1d849d960c8f480bc1a6ea4cd208cb5a
                0x0000000000000000       0x18 /Users/snowyang/workspace/MSP432_DriverLib_3_10_00_09/driverlib/MSP432P4xx/ccs/msp432p4xx_driverlib.lib(cpu.o)
 .text:CPU_wfi  0x0000000000000000        0x4 /Users/snowyang/workspace/MSP432_DriverLib_3_10_00_09/driverlib/MSP432P4xx/ccs/msp432p4xx_driverlib.lib(cpu.o)
 .text:CPU_primask
                0x0000000000000000        0xa /Users/snowyang/workspace/MSP432_DriverLib_3_10_00_09/driverlib/MSP432P4xx/ccs/msp432p4xx_driverlib.lib(cpu.o)
 .text:CPU_cpsie
                0x0000000000000000        0xc /Users/snowyang/workspace/MSP432_DriverLib_3_10_00_09/driverlib/MSP432P4xx/ccs/msp432p4xx_driverlib.lib(cpu.o)
 .text:CPU_cpsid
                0x0000000000000000        0xc /Users/snowyang/workspace/MSP432_DriverLib_3_10_00_09/driverlib/MSP432P4xx/ccs/msp432p4xx_driverlib.lib(cpu.o)
 .text:CPU_basepriSet
                0x0000000000000000        0x6 /Users/snowyang/workspace/MSP432_DriverLib_3_10_00_09/driverlib/MSP432P4xx/ccs/msp432p4xx_driverlib.lib(cpu.o)
 .text:CPU_basepriGet
                0x0000000000000000        0xa /Users/snowyang/workspace/MSP432_DriverLib_3_10_00_09/driverlib/MSP432P4xx/ccs/msp432p4xx_driverlib.lib(cpu.o)
 .debug_info    0x0000000000000000     0x103e /Users/snowyang/workspace/MSP432_DriverLib_3_10_00_09/driverlib/MSP432P4xx/ccs/msp432p4xx_driverlib.lib(cpu.o)
 .debug_info    0x0000000000000000     0x35df /Users/snowyang/workspace/MSP432_DriverLib_3_10_00_09/driverlib/MSP432P4xx/ccs/msp432p4xx_driverlib.lib(cpu.o)
 .debug_info    0x0000000000000000       0x84 /Users/snowyang/workspace/MSP432_DriverLib_3_10_00_09/driverlib/MSP432P4xx/ccs/msp432p4xx_driverlib.lib(cpu.o)
 .debug_info    0x0000000000000000      0x18b /Users/snowyang/workspace/MSP432_DriverLib_3_10_00_09/driverlib/MSP432P4xx/ccs/msp432p4xx_driverlib.lib(cpu.o)
 .debug_line    0x0000000000000000       0x5e /Users/snowyang/workspace/MSP432_DriverLib_3_10_00_09/driverlib/MSP432P4xx/ccs/msp432p4xx_driverlib.lib(cpu.o)
 .debug_line    0x0000000000000000       0x5b /Users/snowyang/workspace/MSP432_DriverLib_3_10_00_09/driverlib/MSP432P4xx/ccs/msp432p4xx_driverlib.lib(cpu.o)
 .debug_line    0x0000000000000000       0x20 /Users/snowyang/workspace/MSP432_DriverLib_3_10_00_09/driverlib/MSP432P4xx/ccs/msp432p4xx_driverlib.lib(cpu.o)
 .debug_line    0x0000000000000000       0x69 /Users/snowyang/workspace/MSP432_DriverLib_3_10_00_09/driverlib/MSP432P4xx/ccs/msp432p4xx_driverlib.lib(cpu.o)
 .debug_abbrev  0x0000000000000000       0x97 /Users/snowyang/workspace/MSP432_DriverLib_3_10_00_09/driverlib/MSP432P4xx/ccs/msp432p4xx_driverlib.lib(cpu.o)
 .debug_str     0x0000000000000000      0x465 /Users/snowyang/workspace/MSP432_DriverLib_3_10_00_09/driverlib/MSP432P4xx/ccs/msp432p4xx_driverlib.lib(cpu.o)
 .debug_abbrev  0x0000000000000000       0xbd /Users/snowyang/workspace/MSP432_DriverLib_3_10_00_09/driverlib/MSP432P4xx/ccs/msp432p4xx_driverlib.lib(cpu.o)
 .debug_str     0x0000000000000000     0x15f0 /Users/snowyang/workspace/MSP432_DriverLib_3_10_00_09/driverlib/MSP432P4xx/ccs/msp432p4xx_driverlib.lib(cpu.o)
 .debug_abbrev  0x0000000000000000       0x1f /Users/snowyang/workspace/MSP432_DriverLib_3_10_00_09/driverlib/MSP432P4xx/ccs/msp432p4xx_driverlib.lib(cpu.o)
 .debug_str     0x0000000000000000       0xf5 /Users/snowyang/workspace/MSP432_DriverLib_3_10_00_09/driverlib/MSP432P4xx/ccs/msp432p4xx_driverlib.lib(cpu.o)
 .debug_abbrev  0x0000000000000000       0x35 /Users/snowyang/workspace/MSP432_DriverLib_3_10_00_09/driverlib/MSP432P4xx/ccs/msp432p4xx_driverlib.lib(cpu.o)
 .debug_str     0x0000000000000000      0x209 /Users/snowyang/workspace/MSP432_DriverLib_3_10_00_09/driverlib/MSP432P4xx/ccs/msp432p4xx_driverlib.lib(cpu.o)
 .debug_pubtypes
                0x0000000000000000       0xdd /Users/snowyang/workspace/MSP432_DriverLib_3_10_00_09/driverlib/MSP432P4xx/ccs/msp432p4xx_driverlib.lib(cpu.o)
 .debug_pubtypes
                0x0000000000000000      0x27f /Users/snowyang/workspace/MSP432_DriverLib_3_10_00_09/driverlib/MSP432P4xx/ccs/msp432p4xx_driverlib.lib(cpu.o)
 .debug_pubtypes
                0x0000000000000000       0xed /Users/snowyang/workspace/MSP432_DriverLib_3_10_00_09/driverlib/MSP432P4xx/ccs/msp432p4xx_driverlib.lib(cpu.o)
 .debug_pubtypes
                0x0000000000000000      0x1c6 /Users/snowyang/workspace/MSP432_DriverLib_3_10_00_09/driverlib/MSP432P4xx/ccs/msp432p4xx_driverlib.lib(cpu.o)
 .text.__assert
                0x0000000000000000        0xc /Applications/ti/ccsv6/tools/compiler/gcc-arm-none-eabi-4_9-2015q3/bin/../lib/gcc/arm-none-eabi/4.9.3/../../../../arm-none-eabi/lib/armv7e-m/fpu/libc.a(lib_a-assert.o)
 .text._fiprintf_r
                0x0000000000000000       0x1c /Applications/ti/ccsv6/tools/compiler/gcc-arm-none-eabi-4_9-2015q3/bin/../lib/gcc/arm-none-eabi/4.9.3/../../../../arm-none-eabi/lib/armv7e-m/fpu/libc.a(lib_a-fiprintf.o)
 .text._printf_r
                0x0000000000000000       0x20 /Applications/ti/ccsv6/tools/compiler/gcc-arm-none-eabi-4_9-2015q3/bin/../lib/gcc/arm-none-eabi/4.9.3/../../../../arm-none-eabi/lib/armv7e-m/fpu/libc.a(lib_a-printf.o)
 .text._snprintf_r
                0x0000000000000000       0x90 /Applications/ti/ccsv6/tools/compiler/gcc-arm-none-eabi-4_9-2015q3/bin/../lib/gcc/arm-none-eabi/4.9.3/../../../../arm-none-eabi/lib/armv7e-m/fpu/libc.a(lib_a-snprintf.o)
 .text._sprintf_r
                0x0000000000000000       0x44 /Applications/ti/ccsv6/tools/compiler/gcc-arm-none-eabi-4_9-2015q3/bin/../lib/gcc/arm-none-eabi/4.9.3/../../../../arm-none-eabi/lib/armv7e-m/fpu/libc.a(lib_a-sprintf.o)
 .text._sscanf_r
                0x0000000000000000       0x54 /Applications/ti/ccsv6/tools/compiler/gcc-arm-none-eabi-4_9-2015q3/bin/../lib/gcc/arm-none-eabi/4.9.3/../../../../arm-none-eabi/lib/armv7e-m/fpu/libc.a(lib_a-sscanf.o)
 .eh_frame      0x0000000000000000       0x70 /Applications/ti/ccsv6/tools/compiler/gcc-arm-none-eabi-4_9-2015q3/bin/../lib/gcc/arm-none-eabi/4.9.3/../../../../arm-none-eabi/lib/armv7e-m/fpu/libc.a(lib_a-strcmp.o)
 .text.strtoul  0x0000000000000000       0x18 /Applications/ti/ccsv6/tools/compiler/gcc-arm-none-eabi-4_9-2015q3/bin/../lib/gcc/arm-none-eabi/4.9.3/../../../../arm-none-eabi/lib/armv7e-m/fpu/libc.a(lib_a-strtoul.o)
 .text.strtoull
                0x0000000000000000       0x18 /Applications/ti/ccsv6/tools/compiler/gcc-arm-none-eabi-4_9-2015q3/bin/../lib/gcc/arm-none-eabi/4.9.3/../../../../arm-none-eabi/lib/armv7e-m/fpu/libc.a(lib_a-strtoull.o)
 .text.vfiprintf
                0x0000000000000000       0x18 /Applications/ti/ccsv6/tools/compiler/gcc-arm-none-eabi-4_9-2015q3/bin/../lib/gcc/arm-none-eabi/4.9.3/../../../../arm-none-eabi/lib/armv7e-m/fpu/libc.a(lib_a-vfiprintf.o)
 .text.vfprintf
                0x0000000000000000       0x18 /Applications/ti/ccsv6/tools/compiler/gcc-arm-none-eabi-4_9-2015q3/bin/../lib/gcc/arm-none-eabi/4.9.3/../../../../arm-none-eabi/lib/armv7e-m/fpu/libc.a(lib_a-vfprintf.o)
 .text._vprintf_r
                0x0000000000000000        0xc /Applications/ti/ccsv6/tools/compiler/gcc-arm-none-eabi-4_9-2015q3/bin/../lib/gcc/arm-none-eabi/4.9.3/../../../../arm-none-eabi/lib/armv7e-m/fpu/libc.a(lib_a-vprintf.o)
 .text.fflush   0x0000000000000000       0x24 /Applications/ti/ccsv6/tools/compiler/gcc-arm-none-eabi-4_9-2015q3/bin/../lib/gcc/arm-none-eabi/4.9.3/../../../../arm-none-eabi/lib/armv7e-m/fpu/libc.a(lib_a-fflush.o)
 .text.__fp_lock
                0x0000000000000000        0x4 /Applications/ti/ccsv6/tools/compiler/gcc-arm-none-eabi-4_9-2015q3/bin/../lib/gcc/arm-none-eabi/4.9.3/../../../../arm-none-eabi/lib/armv7e-m/fpu/libc.a(lib_a-findfp.o)
 .text.__fp_unlock
                0x0000000000000000        0x4 /Applications/ti/ccsv6/tools/compiler/gcc-arm-none-eabi-4_9-2015q3/bin/../lib/gcc/arm-none-eabi/4.9.3/../../../../arm-none-eabi/lib/armv7e-m/fpu/libc.a(lib_a-findfp.o)
 .text.__sfmoreglue
                0x0000000000000000       0x30 /Applications/ti/ccsv6/tools/compiler/gcc-arm-none-eabi-4_9-2015q3/bin/../lib/gcc/arm-none-eabi/4.9.3/../../../../arm-none-eabi/lib/armv7e-m/fpu/libc.a(lib_a-findfp.o)
 .text.__sfp    0x0000000000000000       0x88 /Applications/ti/ccsv6/tools/compiler/gcc-arm-none-eabi-4_9-2015q3/bin/../lib/gcc/arm-none-eabi/4.9.3/../../../../arm-none-eabi/lib/armv7e-m/fpu/libc.a(lib_a-findfp.o)
 .text._cleanup
                0x0000000000000000       0x14 /Applications/ti/ccsv6/tools/compiler/gcc-arm-none-eabi-4_9-2015q3/bin/../lib/gcc/arm-none-eabi/4.9.3/../../../../arm-none-eabi/lib/armv7e-m/fpu/libc.a(lib_a-findfp.o)
 .text.__sinit_lock_acquire
                0x0000000000000000        0x4 /Applications/ti/ccsv6/tools/compiler/gcc-arm-none-eabi-4_9-2015q3/bin/../lib/gcc/arm-none-eabi/4.9.3/../../../../arm-none-eabi/lib/armv7e-m/fpu/libc.a(lib_a-findfp.o)
 .text.__sinit_lock_release
                0x0000000000000000        0x4 /Applications/ti/ccsv6/tools/compiler/gcc-arm-none-eabi-4_9-2015q3/bin/../lib/gcc/arm-none-eabi/4.9.3/../../../../arm-none-eabi/lib/armv7e-m/fpu/libc.a(lib_a-findfp.o)
 .text.__fp_lock_all
                0x0000000000000000       0x14 /Applications/ti/ccsv6/tools/compiler/gcc-arm-none-eabi-4_9-2015q3/bin/../lib/gcc/arm-none-eabi/4.9.3/../../../../arm-none-eabi/lib/armv7e-m/fpu/libc.a(lib_a-findfp.o)
 .text.__fp_unlock_all
                0x0000000000000000       0x14 /Applications/ti/ccsv6/tools/compiler/gcc-arm-none-eabi-4_9-2015q3/bin/../lib/gcc/arm-none-eabi/4.9.3/../../../../arm-none-eabi/lib/armv7e-m/fpu/libc.a(lib_a-findfp.o)
 .text.fputwc   0x0000000000000000       0x28 /Applications/ti/ccsv6/tools/compiler/gcc-arm-none-eabi-4_9-2015q3/bin/../lib/gcc/arm-none-eabi/4.9.3/../../../../arm-none-eabi/lib/armv7e-m/fpu/libc.a(lib_a-fputwc.o)
 .text._fwalk   0x0000000000000000       0x4c /Applications/ti/ccsv6/tools/compiler/gcc-arm-none-eabi-4_9-2015q3/bin/../lib/gcc/arm-none-eabi/4.9.3/../../../../arm-none-eabi/lib/armv7e-m/fpu/libc.a(lib_a-fwalk.o)
 .text._setlocale_r
                0x0000000000000000       0x44 /Applications/ti/ccsv6/tools/compiler/gcc-arm-none-eabi-4_9-2015q3/bin/../lib/gcc/arm-none-eabi/4.9.3/../../../../arm-none-eabi/lib/armv7e-m/fpu/libc.a(lib_a-locale.o)
 .text.__locale_msgcharset
                0x0000000000000000        0x8 /Applications/ti/ccsv6/tools/compiler/gcc-arm-none-eabi-4_9-2015q3/bin/../lib/gcc/arm-none-eabi/4.9.3/../../../../arm-none-eabi/lib/armv7e-m/fpu/libc.a(lib_a-locale.o)
 .text.__locale_cjk_lang
                0x0000000000000000        0x4 /Applications/ti/ccsv6/tools/compiler/gcc-arm-none-eabi-4_9-2015q3/bin/../lib/gcc/arm-none-eabi/4.9.3/../../../../arm-none-eabi/lib/armv7e-m/fpu/libc.a(lib_a-locale.o)
 .text.setlocale
                0x0000000000000000       0x10 /Applications/ti/ccsv6/tools/compiler/gcc-arm-none-eabi-4_9-2015q3/bin/../lib/gcc/arm-none-eabi/4.9.3/../../../../arm-none-eabi/lib/armv7e-m/fpu/libc.a(lib_a-locale.o)
 .text.localeconv
                0x0000000000000000        0x8 /Applications/ti/ccsv6/tools/compiler/gcc-arm-none-eabi-4_9-2015q3/bin/../lib/gcc/arm-none-eabi/4.9.3/../../../../arm-none-eabi/lib/armv7e-m/fpu/libc.a(lib_a-locale.o)
 .bss._PathLocale
                0x0000000000000000        0x4 /Applications/ti/ccsv6/tools/compiler/gcc-arm-none-eabi-4_9-2015q3/bin/../lib/gcc/arm-none-eabi/4.9.3/../../../../arm-none-eabi/lib/armv7e-m/fpu/libc.a(lib_a-locale.o)
 .bss.__nlocale_changed
                0x0000000000000000        0x4 /Applications/ti/ccsv6/tools/compiler/gcc-arm-none-eabi-4_9-2015q3/bin/../lib/gcc/arm-none-eabi/4.9.3/../../../../arm-none-eabi/lib/armv7e-m/fpu/libc.a(lib_a-locale.o)
 .bss.__mlocale_changed
                0x0000000000000000        0x4 /Applications/ti/ccsv6/tools/compiler/gcc-arm-none-eabi-4_9-2015q3/bin/../lib/gcc/arm-none-eabi/4.9.3/../../../../arm-none-eabi/lib/armv7e-m/fpu/libc.a(lib_a-locale.o)
 .text.mbrtowc  0x0000000000000000       0x64 /Applications/ti/ccsv6/tools/compiler/gcc-arm-none-eabi-4_9-2015q3/bin/../lib/gcc/arm-none-eabi/4.9.3/../../../../arm-none-eabi/lib/armv7e-m/fpu/libc.a(lib_a-mbrtowc.o)
 .text._mbtowc_r
                0x0000000000000000       0x30 /Applications/ti/ccsv6/tools/compiler/gcc-arm-none-eabi-4_9-2015q3/bin/../lib/gcc/arm-none-eabi/4.9.3/../../../../arm-none-eabi/lib/armv7e-m/fpu/libc.a(lib_a-mbtowc_r.o)
 .text._mprec_log10
                0x0000000000000000       0x38 /Applications/ti/ccsv6/tools/compiler/gcc-arm-none-eabi-4_9-2015q3/bin/../lib/gcc/arm-none-eabi/4.9.3/../../../../arm-none-eabi/lib/armv7e-m/fpu/libc.a(lib_a-mprec.o)
 .rodata.__mprec_tinytens
                0x0000000000000000       0x28 /Applications/ti/ccsv6/tools/compiler/gcc-arm-none-eabi-4_9-2015q3/bin/../lib/gcc/arm-none-eabi/4.9.3/../../../../arm-none-eabi/lib/armv7e-m/fpu/libc.a(lib_a-mprec.o)
 .text.cleanup_glue
                0x0000000000000000       0x1c /Applications/ti/ccsv6/tools/compiler/gcc-arm-none-eabi-4_9-2015q3/bin/../lib/gcc/arm-none-eabi/4.9.3/../../../../arm-none-eabi/lib/armv7e-m/fpu/libc.a(lib_a-reent.o)
 .text._reclaim_reent
                0x0000000000000000       0x88 /Applications/ti/ccsv6/tools/compiler/gcc-arm-none-eabi-4_9-2015q3/bin/../lib/gcc/arm-none-eabi/4.9.3/../../../../arm-none-eabi/lib/armv7e-m/fpu/libc.a(lib_a-reent.o)
 .text._init_signal_r
                0x0000000000000000       0x38 /Applications/ti/ccsv6/tools/compiler/gcc-arm-none-eabi-4_9-2015q3/bin/../lib/gcc/arm-none-eabi/4.9.3/../../../../arm-none-eabi/lib/armv7e-m/fpu/libc.a(lib_a-signal.o)
 .text._signal_r
                0x0000000000000000       0x38 /Applications/ti/ccsv6/tools/compiler/gcc-arm-none-eabi-4_9-2015q3/bin/../lib/gcc/arm-none-eabi/4.9.3/../../../../arm-none-eabi/lib/armv7e-m/fpu/libc.a(lib_a-signal.o)
 .text.__sigtramp_r
                0x0000000000000000       0x54 /Applications/ti/ccsv6/tools/compiler/gcc-arm-none-eabi-4_9-2015q3/bin/../lib/gcc/arm-none-eabi/4.9.3/../../../../arm-none-eabi/lib/armv7e-m/fpu/libc.a(lib_a-signal.o)
 .text.signal   0x0000000000000000       0x10 /Applications/ti/ccsv6/tools/compiler/gcc-arm-none-eabi-4_9-2015q3/bin/../lib/gcc/arm-none-eabi/4.9.3/../../../../arm-none-eabi/lib/armv7e-m/fpu/libc.a(lib_a-signal.o)
 .text._init_signal
                0x0000000000000000        0xc /Applications/ti/ccsv6/tools/compiler/gcc-arm-none-eabi-4_9-2015q3/bin/../lib/gcc/arm-none-eabi/4.9.3/../../../../arm-none-eabi/lib/armv7e-m/fpu/libc.a(lib_a-signal.o)
 .text.__sigtramp
                0x0000000000000000       0x10 /Applications/ti/ccsv6/tools/compiler/gcc-arm-none-eabi-4_9-2015q3/bin/../lib/gcc/arm-none-eabi/4.9.3/../../../../arm-none-eabi/lib/armv7e-m/fpu/libc.a(lib_a-signal.o)
 .text.strtod   0x0000000000000000       0x10 /Applications/ti/ccsv6/tools/compiler/gcc-arm-none-eabi-4_9-2015q3/bin/../lib/gcc/arm-none-eabi/4.9.3/../../../../arm-none-eabi/lib/armv7e-m/fpu/libc.a(lib_a-strtod.o)
 .text.strtof   0x0000000000000000       0x44 /Applications/ti/ccsv6/tools/compiler/gcc-arm-none-eabi-4_9-2015q3/bin/../lib/gcc/arm-none-eabi/4.9.3/../../../../arm-none-eabi/lib/armv7e-m/fpu/libc.a(lib_a-strtod.o)
 .text.strtol   0x0000000000000000       0x18 /Applications/ti/ccsv6/tools/compiler/gcc-arm-none-eabi-4_9-2015q3/bin/../lib/gcc/arm-none-eabi/4.9.3/../../../../arm-none-eabi/lib/armv7e-m/fpu/libc.a(lib_a-strtol.o)
 .text._svfiprintf_r
                0x0000000000000000      0xaa0 /Applications/ti/ccsv6/tools/compiler/gcc-arm-none-eabi-4_9-2015q3/bin/../lib/gcc/arm-none-eabi/4.9.3/../../../../arm-none-eabi/lib/armv7e-m/fpu/libc.a(lib_a-svfiprintf.o)
 .rodata.blanks.6854
                0x0000000000000000       0x10 /Applications/ti/ccsv6/tools/compiler/gcc-arm-none-eabi-4_9-2015q3/bin/../lib/gcc/arm-none-eabi/4.9.3/../../../../arm-none-eabi/lib/armv7e-m/fpu/libc.a(lib_a-svfiprintf.o)
 .rodata.str1.4
                0x0000000000000000       0x2f /Applications/ti/ccsv6/tools/compiler/gcc-arm-none-eabi-4_9-2015q3/bin/../lib/gcc/arm-none-eabi/4.9.3/../../../../arm-none-eabi/lib/armv7e-m/fpu/libc.a(lib_a-svfiprintf.o)
 .rodata.zeroes.6855
                0x0000000000000000       0x10 /Applications/ti/ccsv6/tools/compiler/gcc-arm-none-eabi-4_9-2015q3/bin/../lib/gcc/arm-none-eabi/4.9.3/../../../../arm-none-eabi/lib/armv7e-m/fpu/libc.a(lib_a-svfiprintf.o)
 .text.__ssvfiscanf_r
                0x0000000000000000      0x9b8 /Applications/ti/ccsv6/tools/compiler/gcc-arm-none-eabi-4_9-2015q3/bin/../lib/gcc/arm-none-eabi/4.9.3/../../../../arm-none-eabi/lib/armv7e-m/fpu/libc.a(lib_a-svfiscanf.o)
 .rodata.basefix.6311
                0x0000000000000000       0x22 /Applications/ti/ccsv6/tools/compiler/gcc-arm-none-eabi-4_9-2015q3/bin/../lib/gcc/arm-none-eabi/4.9.3/../../../../arm-none-eabi/lib/armv7e-m/fpu/libc.a(lib_a-svfiscanf.o)
 .text._ungetc_r
                0x0000000000000000       0xd4 /Applications/ti/ccsv6/tools/compiler/gcc-arm-none-eabi-4_9-2015q3/bin/../lib/gcc/arm-none-eabi/4.9.3/../../../../arm-none-eabi/lib/armv7e-m/fpu/libc.a(lib_a-ungetc.o)
 .text.ungetc   0x0000000000000000       0x10 /Applications/ti/ccsv6/tools/compiler/gcc-arm-none-eabi-4_9-2015q3/bin/../lib/gcc/arm-none-eabi/4.9.3/../../../../arm-none-eabi/lib/armv7e-m/fpu/libc.a(lib_a-ungetc.o)
 .text.__swbuf  0x0000000000000000       0x10 /Applications/ti/ccsv6/tools/compiler/gcc-arm-none-eabi-4_9-2015q3/bin/../lib/gcc/arm-none-eabi/4.9.3/../../../../arm-none-eabi/lib/armv7e-m/fpu/libc.a(lib_a-wbuf.o)
 .text.wcrtomb  0x0000000000000000       0x58 /Applications/ti/ccsv6/tools/compiler/gcc-arm-none-eabi-4_9-2015q3/bin/../lib/gcc/arm-none-eabi/4.9.3/../../../../arm-none-eabi/lib/armv7e-m/fpu/libc.a(lib_a-wcrtomb.o)
 .text._wctomb_r
                0x0000000000000000       0x30 /Applications/ti/ccsv6/tools/compiler/gcc-arm-none-eabi-4_9-2015q3/bin/../lib/gcc/arm-none-eabi/4.9.3/../../../../arm-none-eabi/lib/armv7e-m/fpu/libc.a(lib_a-wctomb_r.o)
 .text.fclose   0x0000000000000000       0x10 /Applications/ti/ccsv6/tools/compiler/gcc-arm-none-eabi-4_9-2015q3/bin/../lib/gcc/arm-none-eabi/4.9.3/../../../../arm-none-eabi/lib/armv7e-m/fpu/libc.a(lib_a-fclose.o)
 .ARM.extab     0x0000000000000000        0x0 /Applications/ti/ccsv6/tools/compiler/gcc-arm-none-eabi-4_9-2015q3/bin/../lib/gcc/arm-none-eabi/4.9.3/armv7e-m/fpu/libgcc.a(_divdi3.o)
 .ARM.extab     0x0000000000000000        0x0 /Applications/ti/ccsv6/tools/compiler/gcc-arm-none-eabi-4_9-2015q3/bin/../lib/gcc/arm-none-eabi/4.9.3/armv7e-m/fpu/libgcc.a(_udivdi3.o)
 .eh_frame      0x0000000000000000        0x4 /Applications/ti/ccsv6/tools/compiler/gcc-arm-none-eabi-4_9-2015q3/bin/../lib/gcc/arm-none-eabi/4.9.3/armv7e-m/fpu/crtend.o
 .jcr           0x0000000000000000        0x4 /Applications/ti/ccsv6/tools/compiler/gcc-arm-none-eabi-4_9-2015q3/bin/../lib/gcc/arm-none-eabi/4.9.3/armv7e-m/fpu/crtend.o
 .init          0x0000000000000000        0x8 /Applications/ti/ccsv6/tools/compiler/gcc-arm-none-eabi-4_9-2015q3/bin/../lib/gcc/arm-none-eabi/4.9.3/armv7e-m/fpu/crtn.o
 .fini          0x0000000000000000        0x8 /Applications/ti/ccsv6/tools/compiler/gcc-arm-none-eabi-4_9-2015q3/bin/../lib/gcc/arm-none-eabi/4.9.3/armv7e-m/fpu/crtn.o

Memory Configuration

Name             Origin             Length             Attributes
MAIN_FLASH       0x0000000000000000 0x0000000000040000 xr
INFO_FLASH       0x0000000000200000 0x0000000000004000 xr
SRAM_CODE        0x0000000001000000 0x0000000000010000 xrw
SRAM_DATA        0x0000000020000000 0x0000000000010000 rw
*default*        0x0000000000000000 0xffffffffffffffff

Linker script and memory map

LOAD /Applications/ti/ccsv6/tools/compiler/gcc-arm-none-eabi-4_9-2015q3/bin/../lib/gcc/arm-none-eabi/4.9.3/armv7e-m/fpu/crti.o
LOAD /Applications/ti/ccsv6/tools/compiler/gcc-arm-none-eabi-4_9-2015q3/bin/../lib/gcc/arm-none-eabi/4.9.3/armv7e-m/fpu/crtbegin.o
LOAD /Applications/ti/ccsv6/tools/compiler/gcc-arm-none-eabi-4_9-2015q3/bin/../lib/gcc/arm-none-eabi/4.9.3/../../../../arm-none-eabi/lib/armv7e-m/fpu/crt0.o
LOAD ./app_console.o
LOAD ./app_rgbled.o
LOAD ./app_sht20.o
LOAD ./app_switch.o
LOAD ./main.o
LOAD ./startup_msp432p401r_gcc.o
LOAD ./system_msp432p401r.o
LOAD ./Board/AliCloud_SDS/alicloud_sds.o
LOAD ./Board/drv_VGM128064/oled.o
LOAD ./Board/drv_board.o
LOAD ./Board/drv_board_test.o
LOAD ./Board/drv_button/io_button.o
LOAD ./Board/drv_color_led/color_led.o
LOAD ./Board/drv_color_led/hsb2rgb.o
LOAD ./Board/drv_sht20/sht2x.o
LOAD ./Board/helper/emhost/ATCmdParser/ATCmdParser.o
LOAD ./Board/helper/emhost/ATCmdParser/ATCmdParserTest.o
LOAD ./Board/helper/emhost/emh_alisds.o
LOAD ./Board/helper/emhost/emh_arg.o
LOAD ./Board/helper/emhost/emh_module.o
LOAD ./Board/helper/emhost/emh_wlan.o
LOAD ./Board/helper/hal/mx_hal_atomic.o
LOAD ./Board/helper/hal/mx_i2c.o
LOAD ./Board/helper/hal/mx_serial.o
LOAD ./Board/helper/hal/mx_stdio.o
LOAD ./Board/helper/hal/mx_tick.o
LOAD ./Board/helper/jsmn/jsmn.o
LOAD ./Board/helper/jsmn/json_escape_str.o
LOAD ./Board/helper/jsmn/json_generator.o
LOAD ./Board/helper/jsmn/json_utils.o
LOAD ./Board/helper/jsmn/json_wrappers.o
LOAD ./Board/helper/mx_utils/mx_ringbuffer.o
LOAD ./aos/soc_impl.o
LOAD ./aos/trace_impl.o
LOAD ./core/k_buf_queue.o
LOAD ./core/k_dyn_mem_proc.o
LOAD ./core/k_err.o
LOAD ./core/k_event.o
LOAD ./core/k_idle.o
LOAD ./core/k_mm.o
LOAD ./core/k_mm_blk.o
LOAD ./core/k_mm_debug.o
LOAD ./core/k_mutex.o
LOAD ./core/k_obj.o
LOAD ./core/k_pend.o
LOAD ./core/k_queue.o
LOAD ./core/k_ringbuf.o
LOAD ./core/k_sched.o
LOAD ./core/k_sem.o
LOAD ./core/k_stats.o
LOAD ./core/k_sys.o
LOAD ./core/k_task.o
LOAD ./core/k_task_sem.o
LOAD ./core/k_tick.o
LOAD ./core/k_time.o
LOAD ./core/k_timer.o
LOAD ./core/k_workqueue.o
LOAD ./m4/port_c.o
LOAD ./m4/port_s.o
                0x000000002000fffc                _estack = 0x2000fffc
                0x0000000000000000                PROVIDE (_intvecs_base_address, DEFINED (_intvecs_base_address)?_intvecs_base_address:0x0)

.intvecs        0x0000000000000000      0x140
 *(.intvecs)
 .intvecs       0x0000000000000000      0x140 ./startup_msp432p401r_gcc.o
                0x0000000000000000                interruptVectors
                0x0000000020000000                PROVIDE (_vtable_base_address, DEFINED (_vtable_base_address)?_vtable_base_address:0x20000000)

.vtable         0x0000000020000000       0xe4
 *(.vtable)
 *fill*         0x0000000020000000        0x0 
 .vtable        0x0000000020000000       0xe4 /Users/snowyang/workspace/MSP432_DriverLib_3_10_00_09/driverlib/MSP432P4xx/ccs/msp432p4xx_driverlib.lib(interrupt.o)
                0x0000000020000000                g_pfnRAMVectors

.text           0x0000000000000140    0x13958
 CREATE_OBJECT_SYMBOLS
 *(.text)
 .text          0x0000000000000140        0x0 /Applications/ti/ccsv6/tools/compiler/gcc-arm-none-eabi-4_9-2015q3/bin/../lib/gcc/arm-none-eabi/4.9.3/armv7e-m/fpu/crti.o
 .text          0x0000000000000140       0x5c /Applications/ti/ccsv6/tools/compiler/gcc-arm-none-eabi-4_9-2015q3/bin/../lib/gcc/arm-none-eabi/4.9.3/armv7e-m/fpu/crtbegin.o
 .text          0x000000000000019c       0x74 /Applications/ti/ccsv6/tools/compiler/gcc-arm-none-eabi-4_9-2015q3/bin/../lib/gcc/arm-none-eabi/4.9.3/../../../../arm-none-eabi/lib/armv7e-m/fpu/crt0.o
                0x000000000000019c                _mainCRTStartup
                0x000000000000019c                _start
 .text          0x0000000000000210        0x0 ./app_console.o
 .text          0x0000000000000210        0x0 ./app_rgbled.o
 .text          0x0000000000000210        0x0 ./app_sht20.o
 .text          0x0000000000000210        0x0 ./app_switch.o
 .text          0x0000000000000210        0x0 ./main.o
 .text          0x0000000000000210        0x0 ./startup_msp432p401r_gcc.o
 .text          0x0000000000000210        0x0 ./system_msp432p401r.o
 .text          0x0000000000000210        0x0 ./Board/AliCloud_SDS/alicloud_sds.o
 .text          0x0000000000000210        0x0 ./Board/drv_VGM128064/oled.o
 .text          0x0000000000000210        0x0 ./Board/drv_board.o
 .text          0x0000000000000210        0x0 ./Board/drv_board_test.o
 .text          0x0000000000000210        0x0 ./Board/drv_button/io_button.o
 .text          0x0000000000000210        0x0 ./Board/drv_color_led/color_led.o
 .text          0x0000000000000210        0x0 ./Board/drv_color_led/hsb2rgb.o
 .text          0x0000000000000210        0x0 ./Board/drv_sht20/sht2x.o
 .text          0x0000000000000210        0x0 ./Board/helper/emhost/ATCmdParser/ATCmdParser.o
 .text          0x0000000000000210        0x0 ./Board/helper/emhost/ATCmdParser/ATCmdParserTest.o
 .text          0x0000000000000210        0x0 ./Board/helper/emhost/emh_alisds.o
 .text          0x0000000000000210        0x0 ./Board/helper/emhost/emh_arg.o
 .text          0x0000000000000210        0x0 ./Board/helper/emhost/emh_module.o
 .text          0x0000000000000210        0x0 ./Board/helper/emhost/emh_wlan.o
 .text          0x0000000000000210        0x0 ./Board/helper/hal/mx_hal_atomic.o
 .text          0x0000000000000210        0x0 ./Board/helper/hal/mx_i2c.o
 .text          0x0000000000000210        0x0 ./Board/helper/hal/mx_serial.o
 .text          0x0000000000000210        0x0 ./Board/helper/hal/mx_stdio.o
 .text          0x0000000000000210        0x0 ./Board/helper/hal/mx_tick.o
 .text          0x0000000000000210        0x0 ./Board/helper/jsmn/jsmn.o
 .text          0x0000000000000210        0x0 ./Board/helper/jsmn/json_escape_str.o
 .text          0x0000000000000210        0x0 ./Board/helper/jsmn/json_generator.o
 .text          0x0000000000000210        0x0 ./Board/helper/jsmn/json_utils.o
 .text          0x0000000000000210        0x0 ./Board/helper/jsmn/json_wrappers.o
 .text          0x0000000000000210        0x0 ./Board/helper/mx_utils/mx_ringbuffer.o
 .text          0x0000000000000210        0x0 ./aos/soc_impl.o
 .text          0x0000000000000210        0x0 ./aos/trace_impl.o
 .text          0x0000000000000210        0x0 ./core/k_buf_queue.o
 .text          0x0000000000000210        0x0 ./core/k_dyn_mem_proc.o
 .text          0x0000000000000210        0x0 ./core/k_err.o
 .text          0x0000000000000210        0x0 ./core/k_event.o
 .text          0x0000000000000210        0x0 ./core/k_idle.o
 .text          0x0000000000000210        0x0 ./core/k_mm.o
 .text          0x0000000000000210        0x0 ./core/k_mm_blk.o
 .text          0x0000000000000210        0x0 ./core/k_mm_debug.o
 .text          0x0000000000000210        0x0 ./core/k_mutex.o
 .text          0x0000000000000210        0x0 ./core/k_obj.o
 .text          0x0000000000000210        0x0 ./core/k_pend.o
 .text          0x0000000000000210        0x0 ./core/k_queue.o
 .text          0x0000000000000210        0x0 ./core/k_ringbuf.o
 .text          0x0000000000000210        0x0 ./core/k_sched.o
 .text          0x0000000000000210        0x0 ./core/k_sem.o
 .text          0x0000000000000210        0x0 ./core/k_stats.o
 .text          0x0000000000000210        0x0 ./core/k_sys.o
 .text          0x0000000000000210        0x0 ./core/k_task.o
 .text          0x0000000000000210        0x0 ./core/k_task_sem.o
 .text          0x0000000000000210        0x0 ./core/k_tick.o
 .text          0x0000000000000210        0x0 ./core/k_time.o
 .text          0x0000000000000210        0x0 ./core/k_timer.o
 .text          0x0000000000000210        0x0 ./core/k_workqueue.o
 .text          0x0000000000000210        0x0 ./m4/port_c.o
 .text          0x0000000000000210       0xa0 ./m4/port_s.o
                0x0000000000000210                cpu_intrpt_save
                0x0000000000000218                cpu_intrpt_restore
                0x000000000000021e                cpu_task_switch
                0x0000000000000226                cpu_intrpt_switch
                0x000000000000022e                cpu_first_task_start
                0x0000000000000256                PendSV_Handler
 .text          0x00000000000002b0        0x0 /Users/snowyang/workspace/MSP432_DriverLib_3_10_00_09/driverlib/MSP432P4xx/ccs/msp432p4xx_driverlib.lib(gpio.o)
 .text          0x00000000000002b0        0x0 /Users/snowyang/workspace/MSP432_DriverLib_3_10_00_09/driverlib/MSP432P4xx/ccs/msp432p4xx_driverlib.lib(i2c.o)
 .text          0x00000000000002b0        0x0 /Users/snowyang/workspace/MSP432_DriverLib_3_10_00_09/driverlib/MSP432P4xx/ccs/msp432p4xx_driverlib.lib(interrupt.o)
 .text          0x00000000000002b0        0x0 /Users/snowyang/workspace/MSP432_DriverLib_3_10_00_09/driverlib/MSP432P4xx/ccs/msp432p4xx_driverlib.lib(uart.o)
 .text          0x00000000000002b0        0x0 /Users/snowyang/workspace/MSP432_DriverLib_3_10_00_09/driverlib/MSP432P4xx/ccs/msp432p4xx_driverlib.lib(cpu.o)
 .text          0x00000000000002b0        0x0 /Applications/ti/ccsv6/tools/compiler/gcc-arm-none-eabi-4_9-2015q3/bin/../lib/gcc/arm-none-eabi/4.9.3/../../../../arm-none-eabi/lib/armv7e-m/fpu/libm.a(lib_a-w_pow.o)
 .text          0x00000000000002b0        0x0 /Applications/ti/ccsv6/tools/compiler/gcc-arm-none-eabi-4_9-2015q3/bin/../lib/gcc/arm-none-eabi/4.9.3/../../../../arm-none-eabi/lib/armv7e-m/fpu/libm.a(lib_a-e_pow.o)
 .text          0x00000000000002b0        0x0 /Applications/ti/ccsv6/tools/compiler/gcc-arm-none-eabi-4_9-2015q3/bin/../lib/gcc/arm-none-eabi/4.9.3/../../../../arm-none-eabi/lib/armv7e-m/fpu/libm.a(lib_a-e_sqrt.o)
 .text          0x00000000000002b0        0x0 /Applications/ti/ccsv6/tools/compiler/gcc-arm-none-eabi-4_9-2015q3/bin/../lib/gcc/arm-none-eabi/4.9.3/../../../../arm-none-eabi/lib/armv7e-m/fpu/libm.a(lib_a-s_fabs.o)
 .text          0x00000000000002b0        0x0 /Applications/ti/ccsv6/tools/compiler/gcc-arm-none-eabi-4_9-2015q3/bin/../lib/gcc/arm-none-eabi/4.9.3/../../../../arm-none-eabi/lib/armv7e-m/fpu/libm.a(lib_a-s_finite.o)
 .text          0x00000000000002b0        0x0 /Applications/ti/ccsv6/tools/compiler/gcc-arm-none-eabi-4_9-2015q3/bin/../lib/gcc/arm-none-eabi/4.9.3/../../../../arm-none-eabi/lib/armv7e-m/fpu/libm.a(lib_a-s_fpclassify.o)
 .text          0x00000000000002b0        0x0 /Applications/ti/ccsv6/tools/compiler/gcc-arm-none-eabi-4_9-2015q3/bin/../lib/gcc/arm-none-eabi/4.9.3/../../../../arm-none-eabi/lib/armv7e-m/fpu/libm.a(lib_a-s_lib_ver.o)
 .text          0x00000000000002b0        0x0 /Applications/ti/ccsv6/tools/compiler/gcc-arm-none-eabi-4_9-2015q3/bin/../lib/gcc/arm-none-eabi/4.9.3/../../../../arm-none-eabi/lib/armv7e-m/fpu/libm.a(lib_a-s_matherr.o)
 .text          0x00000000000002b0        0x0 /Applications/ti/ccsv6/tools/compiler/gcc-arm-none-eabi-4_9-2015q3/bin/../lib/gcc/arm-none-eabi/4.9.3/../../../../arm-none-eabi/lib/armv7e-m/fpu/libm.a(lib_a-s_nan.o)
 .text          0x00000000000002b0        0x0 /Applications/ti/ccsv6/tools/compiler/gcc-arm-none-eabi-4_9-2015q3/bin/../lib/gcc/arm-none-eabi/4.9.3/../../../../arm-none-eabi/lib/armv7e-m/fpu/libm.a(lib_a-s_rint.o)
 .text          0x00000000000002b0        0x0 /Applications/ti/ccsv6/tools/compiler/gcc-arm-none-eabi-4_9-2015q3/bin/../lib/gcc/arm-none-eabi/4.9.3/../../../../arm-none-eabi/lib/armv7e-m/fpu/libm.a(lib_a-s_scalbn.o)
 .text          0x00000000000002b0        0x0 /Applications/ti/ccsv6/tools/compiler/gcc-arm-none-eabi-4_9-2015q3/bin/../lib/gcc/arm-none-eabi/4.9.3/../../../../arm-none-eabi/lib/armv7e-m/fpu/libm.a(lib_a-s_copysign.o)
 .text          0x00000000000002b0        0x0 /Applications/ti/ccsv6/tools/compiler/gcc-arm-none-eabi-4_9-2015q3/bin/../lib/gcc/arm-none-eabi/4.9.3/../../../../arm-none-eabi/lib/armv7e-m/fpu/libc.a(lib_a-assert.o)
 .text          0x00000000000002b0        0x0 /Applications/ti/ccsv6/tools/compiler/gcc-arm-none-eabi-4_9-2015q3/bin/../lib/gcc/arm-none-eabi/4.9.3/../../../../arm-none-eabi/lib/armv7e-m/fpu/libc.a(lib_a-calloc.o)
 .text          0x00000000000002b0        0x0 /Applications/ti/ccsv6/tools/compiler/gcc-arm-none-eabi-4_9-2015q3/bin/../lib/gcc/arm-none-eabi/4.9.3/../../../../arm-none-eabi/lib/armv7e-m/fpu/libc.a(lib_a-callocr.o)
 .text          0x00000000000002b0        0x0 /Applications/ti/ccsv6/tools/compiler/gcc-arm-none-eabi-4_9-2015q3/bin/../lib/gcc/arm-none-eabi/4.9.3/../../../../arm-none-eabi/lib/armv7e-m/fpu/libc.a(lib_a-errno.o)
 .text          0x00000000000002b0        0x0 /Applications/ti/ccsv6/tools/compiler/gcc-arm-none-eabi-4_9-2015q3/bin/../lib/gcc/arm-none-eabi/4.9.3/../../../../arm-none-eabi/lib/armv7e-m/fpu/libc.a(lib_a-exit.o)
 .text          0x00000000000002b0        0x0 /Applications/ti/ccsv6/tools/compiler/gcc-arm-none-eabi-4_9-2015q3/bin/../lib/gcc/arm-none-eabi/4.9.3/../../../../arm-none-eabi/lib/armv7e-m/fpu/libc.a(lib_a-fiprintf.o)
 .text          0x00000000000002b0        0x0 /Applications/ti/ccsv6/tools/compiler/gcc-arm-none-eabi-4_9-2015q3/bin/../lib/gcc/arm-none-eabi/4.9.3/../../../../arm-none-eabi/lib/armv7e-m/fpu/libc.a(lib_a-impure.o)
 .text          0x00000000000002b0        0x0 /Applications/ti/ccsv6/tools/compiler/gcc-arm-none-eabi-4_9-2015q3/bin/../lib/gcc/arm-none-eabi/4.9.3/../../../../arm-none-eabi/lib/armv7e-m/fpu/libc.a(lib_a-init.o)
 .text          0x00000000000002b0        0x0 /Applications/ti/ccsv6/tools/compiler/gcc-arm-none-eabi-4_9-2015q3/bin/../lib/gcc/arm-none-eabi/4.9.3/../../../../arm-none-eabi/lib/armv7e-m/fpu/libc.a(lib_a-malloc.o)
 .text          0x00000000000002b0        0x0 /Applications/ti/ccsv6/tools/compiler/gcc-arm-none-eabi-4_9-2015q3/bin/../lib/gcc/arm-none-eabi/4.9.3/../../../../arm-none-eabi/lib/armv7e-m/fpu/libc.a(lib_a-mallocr.o)
 .text          0x00000000000002b0        0x0 /Applications/ti/ccsv6/tools/compiler/gcc-arm-none-eabi-4_9-2015q3/bin/../lib/gcc/arm-none-eabi/4.9.3/../../../../arm-none-eabi/lib/armv7e-m/fpu/libc.a(lib_a-memcmp.o)
 .text          0x00000000000002b0      0x134 /Applications/ti/ccsv6/tools/compiler/gcc-arm-none-eabi-4_9-2015q3/bin/../lib/gcc/arm-none-eabi/4.9.3/../../../../arm-none-eabi/lib/armv7e-m/fpu/libc.a(lib_a-memcpy.o)
                0x00000000000002b0                memcpy
 .text          0x00000000000003e4        0x0 /Applications/ti/ccsv6/tools/compiler/gcc-arm-none-eabi-4_9-2015q3/bin/../lib/gcc/arm-none-eabi/4.9.3/../../../../arm-none-eabi/lib/armv7e-m/fpu/libc.a(lib_a-memset.o)
 .text          0x00000000000003e4        0x0 /Applications/ti/ccsv6/tools/compiler/gcc-arm-none-eabi-4_9-2015q3/bin/../lib/gcc/arm-none-eabi/4.9.3/../../../../arm-none-eabi/lib/armv7e-m/fpu/libc.a(lib_a-mlock.o)
 .text          0x00000000000003e4        0x0 /Applications/ti/ccsv6/tools/compiler/gcc-arm-none-eabi-4_9-2015q3/bin/../lib/gcc/arm-none-eabi/4.9.3/../../../../arm-none-eabi/lib/armv7e-m/fpu/libc.a(lib_a-printf.o)
 .text          0x00000000000003e4        0x0 /Applications/ti/ccsv6/tools/compiler/gcc-arm-none-eabi-4_9-2015q3/bin/../lib/gcc/arm-none-eabi/4.9.3/../../../../arm-none-eabi/lib/armv7e-m/fpu/libc.a(lib_a-puts.o)
 .text          0x00000000000003e4        0x0 /Applications/ti/ccsv6/tools/compiler/gcc-arm-none-eabi-4_9-2015q3/bin/../lib/gcc/arm-none-eabi/4.9.3/../../../../arm-none-eabi/lib/armv7e-m/fpu/libc.a(lib_a-realloc.o)
 .text          0x00000000000003e4        0x0 /Applications/ti/ccsv6/tools/compiler/gcc-arm-none-eabi-4_9-2015q3/bin/../lib/gcc/arm-none-eabi/4.9.3/../../../../arm-none-eabi/lib/armv7e-m/fpu/libc.a(lib_a-reallocr.o)
 .text          0x00000000000003e4        0x0 /Applications/ti/ccsv6/tools/compiler/gcc-arm-none-eabi-4_9-2015q3/bin/../lib/gcc/arm-none-eabi/4.9.3/../../../../arm-none-eabi/lib/armv7e-m/fpu/libc.a(lib_a-sbrkr.o)
 .text          0x00000000000003e4        0x0 /Applications/ti/ccsv6/tools/compiler/gcc-arm-none-eabi-4_9-2015q3/bin/../lib/gcc/arm-none-eabi/4.9.3/../../../../arm-none-eabi/lib/armv7e-m/fpu/libc.a(lib_a-snprintf.o)
 .text          0x00000000000003e4        0x0 /Applications/ti/ccsv6/tools/compiler/gcc-arm-none-eabi-4_9-2015q3/bin/../lib/gcc/arm-none-eabi/4.9.3/../../../../arm-none-eabi/lib/armv7e-m/fpu/libc.a(lib_a-sprintf.o)
 .text          0x00000000000003e4        0x0 /Applications/ti/ccsv6/tools/compiler/gcc-arm-none-eabi-4_9-2015q3/bin/../lib/gcc/arm-none-eabi/4.9.3/../../../../arm-none-eabi/lib/armv7e-m/fpu/libc.a(lib_a-sscanf.o)
 .text          0x00000000000003e4        0x0 /Applications/ti/ccsv6/tools/compiler/gcc-arm-none-eabi-4_9-2015q3/bin/../lib/gcc/arm-none-eabi/4.9.3/../../../../arm-none-eabi/lib/armv7e-m/fpu/libc.a(lib_a-stdio.o)
 *fill*         0x00000000000003e4       0x1c 
 .text          0x0000000000000400      0x2dc /Applications/ti/ccsv6/tools/compiler/gcc-arm-none-eabi-4_9-2015q3/bin/../lib/gcc/arm-none-eabi/4.9.3/../../../../arm-none-eabi/lib/armv7e-m/fpu/libc.a(lib_a-strcmp.o)
                0x0000000000000408                strcmp
 .text          0x00000000000006dc        0x0 /Applications/ti/ccsv6/tools/compiler/gcc-arm-none-eabi-4_9-2015q3/bin/../lib/gcc/arm-none-eabi/4.9.3/../../../../arm-none-eabi/lib/armv7e-m/fpu/libc.a(lib_a-strcpy.o)
 .text          0x00000000000006dc        0x0 /Applications/ti/ccsv6/tools/compiler/gcc-arm-none-eabi-4_9-2015q3/bin/../lib/gcc/arm-none-eabi/4.9.3/../../../../arm-none-eabi/lib/armv7e-m/fpu/libc.a(lib_a-strlen.o)
 .text          0x00000000000006dc        0x0 /Applications/ti/ccsv6/tools/compiler/gcc-arm-none-eabi-4_9-2015q3/bin/../lib/gcc/arm-none-eabi/4.9.3/../../../../arm-none-eabi/lib/armv7e-m/fpu/libc.a(lib_a-strncmp.o)
 .text          0x00000000000006dc        0x0 /Applications/ti/ccsv6/tools/compiler/gcc-arm-none-eabi-4_9-2015q3/bin/../lib/gcc/arm-none-eabi/4.9.3/../../../../arm-none-eabi/lib/armv7e-m/fpu/libc.a(lib_a-strncpy.o)
 .text          0x00000000000006dc        0x0 /Applications/ti/ccsv6/tools/compiler/gcc-arm-none-eabi-4_9-2015q3/bin/../lib/gcc/arm-none-eabi/4.9.3/../../../../arm-none-eabi/lib/armv7e-m/fpu/libc.a(lib_a-strtoul.o)
 .text          0x00000000000006dc        0x0 /Applications/ti/ccsv6/tools/compiler/gcc-arm-none-eabi-4_9-2015q3/bin/../lib/gcc/arm-none-eabi/4.9.3/../../../../arm-none-eabi/lib/armv7e-m/fpu/libc.a(lib_a-strtoull.o)
 .text          0x00000000000006dc        0x0 /Applications/ti/ccsv6/tools/compiler/gcc-arm-none-eabi-4_9-2015q3/bin/../lib/gcc/arm-none-eabi/4.9.3/../../../../arm-none-eabi/lib/armv7e-m/fpu/libc.a(lib_a-strtoull_r.o)
 .text          0x00000000000006dc        0x0 /Applications/ti/ccsv6/tools/compiler/gcc-arm-none-eabi-4_9-2015q3/bin/../lib/gcc/arm-none-eabi/4.9.3/../../../../arm-none-eabi/lib/armv7e-m/fpu/libc.a(lib_a-svfprintf.o)
 .text          0x00000000000006dc        0x0 /Applications/ti/ccsv6/tools/compiler/gcc-arm-none-eabi-4_9-2015q3/bin/../lib/gcc/arm-none-eabi/4.9.3/../../../../arm-none-eabi/lib/armv7e-m/fpu/libc.a(lib_a-svfscanf.o)
 .text          0x00000000000006dc        0x0 /Applications/ti/ccsv6/tools/compiler/gcc-arm-none-eabi-4_9-2015q3/bin/../lib/gcc/arm-none-eabi/4.9.3/../../../../arm-none-eabi/lib/armv7e-m/fpu/libc.a(lib_a-vfiprintf.o)
 .text          0x00000000000006dc        0x0 /Applications/ti/ccsv6/tools/compiler/gcc-arm-none-eabi-4_9-2015q3/bin/../lib/gcc/arm-none-eabi/4.9.3/../../../../arm-none-eabi/lib/armv7e-m/fpu/libc.a(lib_a-vfprintf.o)
 .text          0x00000000000006dc        0x0 /Applications/ti/ccsv6/tools/compiler/gcc-arm-none-eabi-4_9-2015q3/bin/../lib/gcc/arm-none-eabi/4.9.3/../../../../arm-none-eabi/lib/armv7e-m/fpu/libc.a(lib_a-vprintf.o)
 .text          0x00000000000006dc        0x0 /Applications/ti/ccsv6/tools/compiler/gcc-arm-none-eabi-4_9-2015q3/bin/../lib/gcc/arm-none-eabi/4.9.3/../../../../arm-none-eabi/lib/armv7e-m/fpu/libc.a(lib_a-vsprintf.o)
 .text          0x00000000000006dc        0x0 /Applications/ti/ccsv6/tools/compiler/gcc-arm-none-eabi-4_9-2015q3/bin/../lib/gcc/arm-none-eabi/4.9.3/../../../../arm-none-eabi/lib/armv7e-m/fpu/libc.a(lib_a-vsscanf.o)
 .text          0x00000000000006dc        0x0 /Applications/ti/ccsv6/tools/compiler/gcc-arm-none-eabi-4_9-2015q3/bin/../lib/gcc/arm-none-eabi/4.9.3/../../../../arm-none-eabi/lib/armv7e-m/fpu/libc.a(lib_a-writer.o)
 .text          0x00000000000006dc        0x0 /Applications/ti/ccsv6/tools/compiler/gcc-arm-none-eabi-4_9-2015q3/bin/../lib/gcc/arm-none-eabi/4.9.3/../../../../arm-none-eabi/lib/armv7e-m/fpu/libc.a(lib_a-wsetup.o)
 .text          0x00000000000006dc        0x0 /Applications/ti/ccsv6/tools/compiler/gcc-arm-none-eabi-4_9-2015q3/bin/../lib/gcc/arm-none-eabi/4.9.3/../../../../arm-none-eabi/lib/armv7e-m/fpu/libc.a(lib_a-__call_atexit.o)
 .text          0x00000000000006dc        0x0 /Applications/ti/ccsv6/tools/compiler/gcc-arm-none-eabi-4_9-2015q3/bin/../lib/gcc/arm-none-eabi/4.9.3/../../../../arm-none-eabi/lib/armv7e-m/fpu/libc.a(lib_a-abort.o)
 .text          0x00000000000006dc        0x0 /Applications/ti/ccsv6/tools/compiler/gcc-arm-none-eabi-4_9-2015q3/bin/../lib/gcc/arm-none-eabi/4.9.3/../../../../arm-none-eabi/lib/armv7e-m/fpu/libc.a(lib_a-atexit.o)
 .text          0x00000000000006dc        0x0 /Applications/ti/ccsv6/tools/compiler/gcc-arm-none-eabi-4_9-2015q3/bin/../lib/gcc/arm-none-eabi/4.9.3/../../../../arm-none-eabi/lib/armv7e-m/fpu/libc.a(lib_a-closer.o)
 .text          0x00000000000006dc        0x0 /Applications/ti/ccsv6/tools/compiler/gcc-arm-none-eabi-4_9-2015q3/bin/../lib/gcc/arm-none-eabi/4.9.3/../../../../arm-none-eabi/lib/armv7e-m/fpu/libc.a(lib_a-ctype_.o)
 .text          0x00000000000006dc        0x0 /Applications/ti/ccsv6/tools/compiler/gcc-arm-none-eabi-4_9-2015q3/bin/../lib/gcc/arm-none-eabi/4.9.3/../../../../arm-none-eabi/lib/armv7e-m/fpu/libc.a(lib_a-dtoa.o)
 .text          0x00000000000006dc        0x0 /Applications/ti/ccsv6/tools/compiler/gcc-arm-none-eabi-4_9-2015q3/bin/../lib/gcc/arm-none-eabi/4.9.3/../../../../arm-none-eabi/lib/armv7e-m/fpu/libc.a(lib_a-fflush.o)
 .text          0x00000000000006dc        0x0 /Applications/ti/ccsv6/tools/compiler/gcc-arm-none-eabi-4_9-2015q3/bin/../lib/gcc/arm-none-eabi/4.9.3/../../../../arm-none-eabi/lib/armv7e-m/fpu/libc.a(lib_a-findfp.o)
 .text          0x00000000000006dc        0x0 /Applications/ti/ccsv6/tools/compiler/gcc-arm-none-eabi-4_9-2015q3/bin/../lib/gcc/arm-none-eabi/4.9.3/../../../../arm-none-eabi/lib/armv7e-m/fpu/libc.a(lib_a-fini.o)
 .text          0x00000000000006dc        0x0 /Applications/ti/ccsv6/tools/compiler/gcc-arm-none-eabi-4_9-2015q3/bin/../lib/gcc/arm-none-eabi/4.9.3/../../../../arm-none-eabi/lib/armv7e-m/fpu/libc.a(lib_a-fputwc.o)
 .text          0x00000000000006dc        0x0 /Applications/ti/ccsv6/tools/compiler/gcc-arm-none-eabi-4_9-2015q3/bin/../lib/gcc/arm-none-eabi/4.9.3/../../../../arm-none-eabi/lib/armv7e-m/fpu/libc.a(lib_a-freer.o)
 .text          0x00000000000006dc        0x0 /Applications/ti/ccsv6/tools/compiler/gcc-arm-none-eabi-4_9-2015q3/bin/../lib/gcc/arm-none-eabi/4.9.3/../../../../arm-none-eabi/lib/armv7e-m/fpu/libc.a(lib_a-fvwrite.o)
 .text          0x00000000000006dc        0x0 /Applications/ti/ccsv6/tools/compiler/gcc-arm-none-eabi-4_9-2015q3/bin/../lib/gcc/arm-none-eabi/4.9.3/../../../../arm-none-eabi/lib/armv7e-m/fpu/libc.a(lib_a-fwalk.o)
 .text          0x00000000000006dc        0x0 /Applications/ti/ccsv6/tools/compiler/gcc-arm-none-eabi-4_9-2015q3/bin/../lib/gcc/arm-none-eabi/4.9.3/../../../../arm-none-eabi/lib/armv7e-m/fpu/libc.a(lib_a-iswspace.o)
 .text          0x00000000000006dc        0x0 /Applications/ti/ccsv6/tools/compiler/gcc-arm-none-eabi-4_9-2015q3/bin/../lib/gcc/arm-none-eabi/4.9.3/../../../../arm-none-eabi/lib/armv7e-m/fpu/libc.a(lib_a-locale.o)
 .text          0x00000000000006dc        0x0 /Applications/ti/ccsv6/tools/compiler/gcc-arm-none-eabi-4_9-2015q3/bin/../lib/gcc/arm-none-eabi/4.9.3/../../../../arm-none-eabi/lib/armv7e-m/fpu/libc.a(lib_a-lseekr.o)
 .text          0x00000000000006dc        0x0 /Applications/ti/ccsv6/tools/compiler/gcc-arm-none-eabi-4_9-2015q3/bin/../lib/gcc/arm-none-eabi/4.9.3/../../../../arm-none-eabi/lib/armv7e-m/fpu/libc.a(lib_a-makebuf.o)
 .text          0x00000000000006dc        0x0 /Applications/ti/ccsv6/tools/compiler/gcc-arm-none-eabi-4_9-2015q3/bin/../lib/gcc/arm-none-eabi/4.9.3/../../../../arm-none-eabi/lib/armv7e-m/fpu/libc.a(lib_a-mbrtowc.o)
 .text          0x00000000000006dc        0x0 /Applications/ti/ccsv6/tools/compiler/gcc-arm-none-eabi-4_9-2015q3/bin/../lib/gcc/arm-none-eabi/4.9.3/../../../../arm-none-eabi/lib/armv7e-m/fpu/libc.a(lib_a-mbtowc_r.o)
 .text          0x00000000000006dc        0x0 /Applications/ti/ccsv6/tools/compiler/gcc-arm-none-eabi-4_9-2015q3/bin/../lib/gcc/arm-none-eabi/4.9.3/../../../../arm-none-eabi/lib/armv7e-m/fpu/libc.a(lib_a-memchr.o)
 .text          0x00000000000006dc        0x0 /Applications/ti/ccsv6/tools/compiler/gcc-arm-none-eabi-4_9-2015q3/bin/../lib/gcc/arm-none-eabi/4.9.3/../../../../arm-none-eabi/lib/armv7e-m/fpu/libc.a(lib_a-memmove.o)
 .text          0x00000000000006dc        0x0 /Applications/ti/ccsv6/tools/compiler/gcc-arm-none-eabi-4_9-2015q3/bin/../lib/gcc/arm-none-eabi/4.9.3/../../../../arm-none-eabi/lib/armv7e-m/fpu/libc.a(lib_a-mprec.o)
 .text          0x00000000000006dc        0x0 /Applications/ti/ccsv6/tools/compiler/gcc-arm-none-eabi-4_9-2015q3/bin/../lib/gcc/arm-none-eabi/4.9.3/../../../../arm-none-eabi/lib/armv7e-m/fpu/libc.a(lib_a-readr.o)
 .text          0x00000000000006dc        0x0 /Applications/ti/ccsv6/tools/compiler/gcc-arm-none-eabi-4_9-2015q3/bin/../lib/gcc/arm-none-eabi/4.9.3/../../../../arm-none-eabi/lib/armv7e-m/fpu/libc.a(lib_a-reent.o)
 .text          0x00000000000006dc        0x0 /Applications/ti/ccsv6/tools/compiler/gcc-arm-none-eabi-4_9-2015q3/bin/../lib/gcc/arm-none-eabi/4.9.3/../../../../arm-none-eabi/lib/armv7e-m/fpu/libc.a(lib_a-sccl.o)
 .text          0x00000000000006dc        0x0 /Applications/ti/ccsv6/tools/compiler/gcc-arm-none-eabi-4_9-2015q3/bin/../lib/gcc/arm-none-eabi/4.9.3/../../../../arm-none-eabi/lib/armv7e-m/fpu/libc.a(lib_a-sf_nan.o)
 .text          0x00000000000006dc        0x0 /Applications/ti/ccsv6/tools/compiler/gcc-arm-none-eabi-4_9-2015q3/bin/../lib/gcc/arm-none-eabi/4.9.3/../../../../arm-none-eabi/lib/armv7e-m/fpu/libc.a(lib_a-signal.o)
 .text          0x00000000000006dc        0x0 /Applications/ti/ccsv6/tools/compiler/gcc-arm-none-eabi-4_9-2015q3/bin/../lib/gcc/arm-none-eabi/4.9.3/../../../../arm-none-eabi/lib/armv7e-m/fpu/libc.a(lib_a-signalr.o)
 .text          0x00000000000006dc        0x0 /Applications/ti/ccsv6/tools/compiler/gcc-arm-none-eabi-4_9-2015q3/bin/../lib/gcc/arm-none-eabi/4.9.3/../../../../arm-none-eabi/lib/armv7e-m/fpu/libc.a(lib_a-strtod.o)
 .text          0x00000000000006dc        0x0 /Applications/ti/ccsv6/tools/compiler/gcc-arm-none-eabi-4_9-2015q3/bin/../lib/gcc/arm-none-eabi/4.9.3/../../../../arm-none-eabi/lib/armv7e-m/fpu/libc.a(lib_a-strtol.o)
 .text          0x00000000000006dc        0x0 /Applications/ti/ccsv6/tools/compiler/gcc-arm-none-eabi-4_9-2015q3/bin/../lib/gcc/arm-none-eabi/4.9.3/../../../../arm-none-eabi/lib/armv7e-m/fpu/libc.a(lib_a-strtoll_r.o)
 .text          0x00000000000006dc        0x0 /Applications/ti/ccsv6/tools/compiler/gcc-arm-none-eabi-4_9-2015q3/bin/../lib/gcc/arm-none-eabi/4.9.3/../../../../arm-none-eabi/lib/armv7e-m/fpu/libc.a(lib_a-svfiprintf.o)
 .text          0x00000000000006dc        0x0 /Applications/ti/ccsv6/tools/compiler/gcc-arm-none-eabi-4_9-2015q3/bin/../lib/gcc/arm-none-eabi/4.9.3/../../../../arm-none-eabi/lib/armv7e-m/fpu/libc.a(lib_a-svfiscanf.o)
 .text          0x00000000000006dc        0x0 /Applications/ti/ccsv6/tools/compiler/gcc-arm-none-eabi-4_9-2015q3/bin/../lib/gcc/arm-none-eabi/4.9.3/../../../../arm-none-eabi/lib/armv7e-m/fpu/libc.a(lib_a-ungetc.o)
 .text          0x00000000000006dc        0x0 /Applications/ti/ccsv6/tools/compiler/gcc-arm-none-eabi-4_9-2015q3/bin/../lib/gcc/arm-none-eabi/4.9.3/../../../../arm-none-eabi/lib/armv7e-m/fpu/libc.a(lib_a-wbuf.o)
 .text          0x00000000000006dc        0x0 /Applications/ti/ccsv6/tools/compiler/gcc-arm-none-eabi-4_9-2015q3/bin/../lib/gcc/arm-none-eabi/4.9.3/../../../../arm-none-eabi/lib/armv7e-m/fpu/libc.a(lib_a-wcrtomb.o)
 .text          0x00000000000006dc        0x0 /Applications/ti/ccsv6/tools/compiler/gcc-arm-none-eabi-4_9-2015q3/bin/../lib/gcc/arm-none-eabi/4.9.3/../../../../arm-none-eabi/lib/armv7e-m/fpu/libc.a(lib_a-wctomb_r.o)
 .text          0x00000000000006dc        0x0 /Applications/ti/ccsv6/tools/compiler/gcc-arm-none-eabi-4_9-2015q3/bin/../lib/gcc/arm-none-eabi/4.9.3/../../../../arm-none-eabi/lib/armv7e-m/fpu/libc.a(lib_a-__atexit.o)
 .text          0x00000000000006dc        0x0 /Applications/ti/ccsv6/tools/compiler/gcc-arm-none-eabi-4_9-2015q3/bin/../lib/gcc/arm-none-eabi/4.9.3/../../../../arm-none-eabi/lib/armv7e-m/fpu/libc.a(lib_a-fclose.o)
 .text          0x00000000000006dc        0x0 /Applications/ti/ccsv6/tools/compiler/gcc-arm-none-eabi-4_9-2015q3/bin/../lib/gcc/arm-none-eabi/4.9.3/../../../../arm-none-eabi/lib/armv7e-m/fpu/libc.a(lib_a-fstatr.o)
 .text          0x00000000000006dc        0x0 /Applications/ti/ccsv6/tools/compiler/gcc-arm-none-eabi-4_9-2015q3/bin/../lib/gcc/arm-none-eabi/4.9.3/../../../../arm-none-eabi/lib/armv7e-m/fpu/libc.a(lib_a-gdtoa-gethex.o)
 .text          0x00000000000006dc        0x0 /Applications/ti/ccsv6/tools/compiler/gcc-arm-none-eabi-4_9-2015q3/bin/../lib/gcc/arm-none-eabi/4.9.3/../../../../arm-none-eabi/lib/armv7e-m/fpu/libc.a(lib_a-gdtoa-hexnan.o)
 .text          0x00000000000006dc        0x0 /Applications/ti/ccsv6/tools/compiler/gcc-arm-none-eabi-4_9-2015q3/bin/../lib/gcc/arm-none-eabi/4.9.3/../../../../arm-none-eabi/lib/armv7e-m/fpu/libc.a(lib_a-isattyr.o)
 .text          0x00000000000006dc        0x0 /Applications/ti/ccsv6/tools/compiler/gcc-arm-none-eabi-4_9-2015q3/bin/../lib/gcc/arm-none-eabi/4.9.3/../../../../arm-none-eabi/lib/armv7e-m/fpu/libnosys.a(close.o)
 .text          0x00000000000006dc        0x0 /Applications/ti/ccsv6/tools/compiler/gcc-arm-none-eabi-4_9-2015q3/bin/../lib/gcc/arm-none-eabi/4.9.3/../../../../arm-none-eabi/lib/armv7e-m/fpu/libnosys.a(fstat.o)
 .text          0x00000000000006dc        0x0 /Applications/ti/ccsv6/tools/compiler/gcc-arm-none-eabi-4_9-2015q3/bin/../lib/gcc/arm-none-eabi/4.9.3/../../../../arm-none-eabi/lib/armv7e-m/fpu/libnosys.a(getpid.o)
 .text          0x00000000000006dc        0x0 /Applications/ti/ccsv6/tools/compiler/gcc-arm-none-eabi-4_9-2015q3/bin/../lib/gcc/arm-none-eabi/4.9.3/../../../../arm-none-eabi/lib/armv7e-m/fpu/libnosys.a(isatty.o)
 .text          0x00000000000006dc        0x0 /Applications/ti/ccsv6/tools/compiler/gcc-arm-none-eabi-4_9-2015q3/bin/../lib/gcc/arm-none-eabi/4.9.3/../../../../arm-none-eabi/lib/armv7e-m/fpu/libnosys.a(kill.o)
 .text          0x00000000000006dc        0x0 /Applications/ti/ccsv6/tools/compiler/gcc-arm-none-eabi-4_9-2015q3/bin/../lib/gcc/arm-none-eabi/4.9.3/../../../../arm-none-eabi/lib/armv7e-m/fpu/libnosys.a(lseek.o)
 .text          0x00000000000006dc        0x0 /Applications/ti/ccsv6/tools/compiler/gcc-arm-none-eabi-4_9-2015q3/bin/../lib/gcc/arm-none-eabi/4.9.3/../../../../arm-none-eabi/lib/armv7e-m/fpu/libnosys.a(read.o)
 .text          0x00000000000006dc        0x0 /Applications/ti/ccsv6/tools/compiler/gcc-arm-none-eabi-4_9-2015q3/bin/../lib/gcc/arm-none-eabi/4.9.3/../../../../arm-none-eabi/lib/armv7e-m/fpu/libnosys.a(sbrk.o)
 .text          0x00000000000006dc        0x0 /Applications/ti/ccsv6/tools/compiler/gcc-arm-none-eabi-4_9-2015q3/bin/../lib/gcc/arm-none-eabi/4.9.3/../../../../arm-none-eabi/lib/armv7e-m/fpu/libnosys.a(_exit.o)
 .text          0x00000000000006dc      0x370 /Applications/ti/ccsv6/tools/compiler/gcc-arm-none-eabi-4_9-2015q3/bin/../lib/gcc/arm-none-eabi/4.9.3/armv7e-m/fpu/libgcc.a(_arm_addsubdf3.o)
                0x00000000000006dc                __aeabi_drsub
                0x00000000000006e4                __subdf3
                0x00000000000006e4                __aeabi_dsub
                0x00000000000006e8                __aeabi_dadd
                0x00000000000006e8                __adddf3
                0x0000000000000960                __aeabi_ui2d
                0x0000000000000960                __floatunsidf
                0x0000000000000980                __floatsidf
                0x0000000000000980                __aeabi_i2d
                0x00000000000009a4                __extendsfdf2
                0x00000000000009a4                __aeabi_f2d
                0x00000000000009e0                __aeabi_ul2d
                0x00000000000009e0                __floatundidf
                0x00000000000009f0                __aeabi_l2d
                0x00000000000009f0                __floatdidf
 .text          0x0000000000000a4c      0x424 /Applications/ti/ccsv6/tools/compiler/gcc-arm-none-eabi-4_9-2015q3/bin/../lib/gcc/arm-none-eabi/4.9.3/armv7e-m/fpu/libgcc.a(_arm_muldivdf3.o)
                0x0000000000000a4c                __aeabi_dmul
                0x0000000000000a4c                __muldf3
                0x0000000000000ca0                __aeabi_ddiv
                0x0000000000000ca0                __divdf3
 .text          0x0000000000000e70      0x110 /Applications/ti/ccsv6/tools/compiler/gcc-arm-none-eabi-4_9-2015q3/bin/../lib/gcc/arm-none-eabi/4.9.3/armv7e-m/fpu/libgcc.a(_arm_cmpdf2.o)
                0x0000000000000e70                __gedf2
                0x0000000000000e70                __gtdf2
                0x0000000000000e78                __ledf2
                0x0000000000000e78                __ltdf2
                0x0000000000000e80                __cmpdf2
                0x0000000000000e80                __eqdf2
                0x0000000000000e80                __nedf2
                0x0000000000000efc                __aeabi_cdrcmple
                0x0000000000000f0c                __aeabi_cdcmple
                0x0000000000000f0c                __aeabi_cdcmpeq
                0x0000000000000f1c                __aeabi_dcmpeq
                0x0000000000000f30                __aeabi_dcmplt
                0x0000000000000f44                __aeabi_dcmple
                0x0000000000000f58                __aeabi_dcmpge
                0x0000000000000f6c                __aeabi_dcmpgt
 .text          0x0000000000000f80       0x50 /Applications/ti/ccsv6/tools/compiler/gcc-arm-none-eabi-4_9-2015q3/bin/../lib/gcc/arm-none-eabi/4.9.3/armv7e-m/fpu/libgcc.a(_arm_fixdfsi.o)
                0x0000000000000f80                __fixdfsi
                0x0000000000000f80                __aeabi_d2iz
 .text          0x0000000000000fd0       0x40 /Applications/ti/ccsv6/tools/compiler/gcc-arm-none-eabi-4_9-2015q3/bin/../lib/gcc/arm-none-eabi/4.9.3/armv7e-m/fpu/libgcc.a(_arm_fixunsdfsi.o)
                0x0000000000000fd0                __fixunsdfsi
                0x0000000000000fd0                __aeabi_d2uiz
 .text          0x0000000000001010       0xa0 /Applications/ti/ccsv6/tools/compiler/gcc-arm-none-eabi-4_9-2015q3/bin/../lib/gcc/arm-none-eabi/4.9.3/armv7e-m/fpu/libgcc.a(_arm_truncdfsf2.o)
                0x0000000000001010                __aeabi_d2f
                0x0000000000001010                __truncdfsf2
 .text          0x00000000000010b0       0x30 /Applications/ti/ccsv6/tools/compiler/gcc-arm-none-eabi-4_9-2015q3/bin/../lib/gcc/arm-none-eabi/4.9.3/armv7e-m/fpu/libgcc.a(_aeabi_uldivmod.o)
                0x00000000000010b0                __aeabi_uldivmod
 .text          0x00000000000010e0       0x60 /Applications/ti/ccsv6/tools/compiler/gcc-arm-none-eabi-4_9-2015q3/bin/../lib/gcc/arm-none-eabi/4.9.3/armv7e-m/fpu/libgcc.a(bpabi.o)
                0x00000000000010e0                __gnu_ldivmod_helper
                0x0000000000001110                __gnu_uldivmod_helper
 .text          0x0000000000001140        0x4 /Applications/ti/ccsv6/tools/compiler/gcc-arm-none-eabi-4_9-2015q3/bin/../lib/gcc/arm-none-eabi/4.9.3/armv7e-m/fpu/libgcc.a(_dvmd_tls.o)
                0x0000000000001140                __aeabi_ldiv0
                0x0000000000001140                __aeabi_idiv0
 .text          0x0000000000001144      0x29c /Applications/ti/ccsv6/tools/compiler/gcc-arm-none-eabi-4_9-2015q3/bin/../lib/gcc/arm-none-eabi/4.9.3/armv7e-m/fpu/libgcc.a(_divdi3.o)
                0x0000000000001144                __divdi3
 .text          0x00000000000013e0      0x26c /Applications/ti/ccsv6/tools/compiler/gcc-arm-none-eabi-4_9-2015q3/bin/../lib/gcc/arm-none-eabi/4.9.3/armv7e-m/fpu/libgcc.a(_udivdi3.o)
                0x00000000000013e0                __udivdi3
 .text          0x000000000000164c        0x0 /Applications/ti/ccsv6/tools/compiler/gcc-arm-none-eabi-4_9-2015q3/bin/../lib/gcc/arm-none-eabi/4.9.3/armv7e-m/fpu/crtend.o
 .text          0x000000000000164c        0x0 /Applications/ti/ccsv6/tools/compiler/gcc-arm-none-eabi-4_9-2015q3/bin/../lib/gcc/arm-none-eabi/4.9.3/armv7e-m/fpu/crtn.o
 *(.text.*)
 .text.console_task_init
                0x000000000000164c       0x3c ./app_console.o
                0x000000000000164c                console_task_init
 .text.OLED_ShowStatusString
                0x0000000000001688       0x28 ./app_console.o
                0x0000000000001688                OLED_ShowStatusString
 .text.handle_read_console
                0x00000000000016b0       0x20 ./app_console.o
                0x00000000000016b0                handle_read_console
 .text.handle_write_console
                0x00000000000016d0       0x5c ./app_console.o
                0x00000000000016d0                handle_write_console
 .text.alisds_event_handler
                0x000000000000172c       0x90 ./app_console.o
                0x000000000000172c                alisds_event_handler
 .text.rgbled_task_init
                0x00000000000017bc       0xec ./app_rgbled.o
                0x00000000000017bc                rgbled_task_init
 .text.handle_write_cur_saturation
                0x00000000000018a8       0x60 ./app_rgbled.o
                0x00000000000018a8                handle_write_cur_saturation
 .text.handle_write_cur_bright
                0x0000000000001908       0x60 ./app_rgbled.o
                0x0000000000001908                handle_write_cur_bright
 .text.handle_write_cur_hue
                0x0000000000001968       0xb0 ./app_rgbled.o
                0x0000000000001968                handle_write_cur_hue
 .text.handle_write_cur_light_switch
                0x0000000000001a18       0x5c ./app_rgbled.o
                0x0000000000001a18                handle_write_cur_light_switch
 .text.handle_read_cur_saturation
                0x0000000000001a74       0x2c ./app_rgbled.o
                0x0000000000001a74                handle_read_cur_saturation
 .text.handle_read_cur_bright
                0x0000000000001aa0       0x2c ./app_rgbled.o
                0x0000000000001aa0                handle_read_cur_bright
 .text.handle_read_cur_hue
                0x0000000000001acc       0x2c ./app_rgbled.o
                0x0000000000001acc                handle_read_cur_hue
 .text.handle_read_cur_light_switch
                0x0000000000001af8       0x24 ./app_rgbled.o
                0x0000000000001af8                handle_read_cur_light_switch
 .text.SHT20_task_init
                0x0000000000001b1c       0xd0 ./app_sht20.o
                0x0000000000001b1c                SHT20_task_init
 .text.SHT20_task
                0x0000000000001bec       0xa8 ./app_sht20.o
                0x0000000000001bec                SHT20_task
 .text.handle_read_cur_humidity
                0x0000000000001c94       0x2c ./app_sht20.o
                0x0000000000001c94                handle_read_cur_humidity
 .text.handle_read_cur_temperature
                0x0000000000001cc0       0x2c ./app_sht20.o
                0x0000000000001cc0                handle_read_cur_temperature
 .text.switch_task_init
                0x0000000000001cec       0xa4 ./app_switch.o
                0x0000000000001cec                switch_task_init
 .text.switch_task
                0x0000000000001d90       0x74 ./app_switch.o
                0x0000000000001d90                switch_task
 .text.handle_read_cur_switch_1
                0x0000000000001e04       0x24 ./app_switch.o
                0x0000000000001e04                handle_read_cur_switch_1
 .text.handle_read_cur_switch_2
                0x0000000000001e28       0x24 ./app_switch.o
                0x0000000000001e28                handle_read_cur_switch_2
 .text.NVIC_SetPriority
                0x0000000000001e4c       0x54 ./main.o
 .text.SysTick_Config
                0x0000000000001ea0       0x44 ./main.o
 .text.PORT4_IRQHandler
                0x0000000000001ee4       0x34 ./main.o
                0x0000000000001ee4                PORT4_IRQHandler
 .text.usr_clicked_handler
                0x0000000000001f18        0xc ./main.o
                0x0000000000001f18                usr_clicked_handler
 .text.usr_long_pressed_handler
                0x0000000000001f24       0x2c ./main.o
                0x0000000000001f24                usr_long_pressed_handler
 .text._main    0x0000000000001f50       0xa4 ./main.o
                0x0000000000001f50                _main
 .text.demo_task
                0x0000000000001ff4       0x14 ./main.o
                0x0000000000001ff4                demo_task
 .text.soc_init
                0x0000000000002008       0x24 ./main.o
                0x0000000000002008                soc_init
 .text.main     0x000000000000202c       0x54 ./main.o
                0x000000000000202c                main
 .text.SysTick_Handler
                0x0000000000002080       0x18 ./main.o
                0x0000000000002080                SysTick_Handler
 .text._write   0x0000000000002098       0x64 ./main.o
                0x0000000000002098                _write
 .text.resetISR
                0x00000000000020fc       0x5c ./startup_msp432p401r_gcc.o
 .text.nmiISR   0x0000000000002158        0x8 ./startup_msp432p401r_gcc.o
 .text.faultISR
                0x0000000000002160        0x8 ./startup_msp432p401r_gcc.o
 .text.defaultISR
                0x0000000000002168        0x8 ./startup_msp432p401r_gcc.o
 .text.SystemInit
                0x0000000000002170       0xa8 ./system_msp432p401r.o
                0x0000000000002170                SystemInit
 .text.alisds_init
                0x0000000000002218      0x13c ./Board/AliCloud_SDS/alicloud_sds.o
                0x0000000000002218                alisds_init
 .text.alisds_attr_init
                0x0000000000002354       0x64 ./Board/AliCloud_SDS/alicloud_sds.o
                0x0000000000002354                alisds_attr_init
 .text._handle_state_initialize
                0x00000000000023b8      0x164 ./Board/AliCloud_SDS/alicloud_sds.o
 .text.alisds_attr_indicate_by_handle
                0x000000000000251c       0x64 ./Board/AliCloud_SDS/alicloud_sds.o
                0x000000000000251c                alisds_attr_indicate_by_handle
 .text.alisds_runloop
                0x0000000000002580       0xac ./Board/AliCloud_SDS/alicloud_sds.o
                0x0000000000002580                alisds_runloop
 .text.emh_ev_wlan
                0x000000000000262c       0x54 ./Board/AliCloud_SDS/alicloud_sds.o
                0x000000000000262c                emh_ev_wlan
 .text.emh_ev_alisds_connection
                0x0000000000002680       0x84 ./Board/AliCloud_SDS/alicloud_sds.o
                0x0000000000002680                emh_ev_alisds_connection
 .text.emh_ev_alisds_set_local_atts
                0x0000000000002704      0x2e8 ./Board/AliCloud_SDS/alicloud_sds.o
                0x0000000000002704                emh_ev_alisds_set_local_atts
 .text.alisds_indicate_local_atts
                0x00000000000029ec      0x608 ./Board/AliCloud_SDS/alicloud_sds.o
 .text.alisds_provision
                0x0000000000002ff4       0xd8 ./Board/AliCloud_SDS/alicloud_sds.o
                0x0000000000002ff4                alisds_provision
 .text.alisds_restore
                0x00000000000030cc       0x28 ./Board/AliCloud_SDS/alicloud_sds.o
                0x00000000000030cc                alisds_restore
 .text.OLED_WR_Bytes
                0x00000000000030f4       0x38 ./Board/drv_VGM128064/oled.o
                0x00000000000030f4                OLED_WR_Bytes
 .text.OLED_WR_Byte
                0x000000000000312c       0x24 ./Board/drv_VGM128064/oled.o
                0x000000000000312c                OLED_WR_Byte
 .text.OLED_Set_Pos
                0x0000000000003150       0x4c ./Board/drv_VGM128064/oled.o
                0x0000000000003150                OLED_Set_Pos
 .text.OLED_Clear
                0x000000000000319c       0x6c ./Board/drv_VGM128064/oled.o
                0x000000000000319c                OLED_Clear
 .text.OLED_ShowChar
                0x0000000000003208       0x7c ./Board/drv_VGM128064/oled.o
                0x0000000000003208                OLED_ShowChar
 .text.OLED_ShowString
                0x0000000000003284       0xe4 ./Board/drv_VGM128064/oled.o
                0x0000000000003284                OLED_ShowString
 .text.OLED_Init
                0x0000000000003368      0x10c ./Board/drv_VGM128064/oled.o
                0x0000000000003368                OLED_Init
 .text.ssd1106_delay_ms
                0x0000000000003474       0x18 ./Board/drv_VGM128064/oled.o
 .text.ssd1106_i2c_bus_init
                0x000000000000348c       0x48 ./Board/drv_VGM128064/oled.o
 .text.ssd1106_i2c_bus_write
                0x00000000000034d4       0x48 ./Board/drv_VGM128064/oled.o
 .text.drv_board_init
                0x000000000000351c       0x20 ./Board/drv_board.o
                0x000000000000351c                drv_board_init
 .text.drv_board_test
                0x000000000000353c      0x200 ./Board/drv_board_test.o
                0x000000000000353c                drv_board_test
 .text.button_irq_handler
                0x000000000000373c       0x94 ./Board/drv_button/io_button.o
                0x000000000000373c                button_irq_handler
 .text.button_srv
                0x00000000000037d0       0x8c ./Board/drv_button/io_button.o
                0x00000000000037d0                button_srv
 .text.button_init
                0x000000000000385c       0x54 ./Board/drv_button/io_button.o
                0x000000000000385c                button_init
 .text.color_led_init
                0x00000000000038b0       0x50 ./Board/drv_color_led/color_led.o
                0x00000000000038b0                color_led_init
 .text.color_led_open_rgb
                0x0000000000003900       0xb8 ./Board/drv_color_led/color_led.o
                0x0000000000003900                color_led_open_rgb
 .text.color_led_close
                0x00000000000039b8       0x58 ./Board/drv_color_led/color_led.o
                0x00000000000039b8                color_led_close
 .text.constrain
                0x0000000000003a10       0x54 ./Board/drv_color_led/hsb2rgb.o
 .text.H2R_HSBtoRGB
                0x0000000000003a64      0x42c ./Board/drv_color_led/hsb2rgb.o
 .text.color_led_open_hsb
                0x0000000000003e90      0x12c ./Board/drv_color_led/hsb2rgb.o
                0x0000000000003e90                color_led_open_hsb
 .text.ht20_i2c_bus_write
                0x0000000000003fbc       0x64 ./Board/drv_sht20/sht2x.o
                0x0000000000003fbc                ht20_i2c_bus_write
 .text.ht20_i2c_bus_read
                0x0000000000004020       0x64 ./Board/drv_sht20/sht2x.o
                0x0000000000004020                ht20_i2c_bus_read
 .text.SHT2x_Init
                0x0000000000004084       0x34 ./Board/drv_sht20/sht2x.o
                0x0000000000004084                SHT2x_Init
 .text.SHT2x_SoftReset
                0x00000000000040b8       0x18 ./Board/drv_sht20/sht2x.o
                0x00000000000040b8                SHT2x_SoftReset
 .text.SHT2x_GetTempPoll
                0x00000000000040d0       0x60 ./Board/drv_sht20/sht2x.o
                0x00000000000040d0                SHT2x_GetTempPoll
 .text.SHT2x_GetHumiPoll
                0x0000000000004130       0x5c ./Board/drv_sht20/sht2x.o
                0x0000000000004130                SHT2x_GetHumiPoll
 .text.debug_if
                0x000000000000418c       0x2c ./Board/helper/emhost/ATCmdParser/ATCmdParser.o
 .text.ATCmdParser_vrecv
                0x00000000000041b8      0x3b8 ./Board/helper/emhost/ATCmdParser/ATCmdParser.o
                0x00000000000041b8                ATCmdParser_vrecv
 .text.ATCmdParser_vsend
                0x0000000000004570       0xb8 ./Board/helper/emhost/ATCmdParser/ATCmdParser.o
                0x0000000000004570                ATCmdParser_vsend
 .text.ATCmdParser_recv
                0x0000000000004628       0x2c ./Board/helper/emhost/ATCmdParser/ATCmdParser.o
                0x0000000000004628                ATCmdParser_recv
 .text.ATCmdParser_send
                0x0000000000004654       0x2c ./Board/helper/emhost/ATCmdParser/ATCmdParser.o
                0x0000000000004654                ATCmdParser_send
 .text.ATCmdParser_write
                0x0000000000004680       0x44 ./Board/helper/emhost/ATCmdParser/ATCmdParser.o
                0x0000000000004680                ATCmdParser_write
 .text.ATCmdParser_read
                0x00000000000046c4       0x48 ./Board/helper/emhost/ATCmdParser/ATCmdParser.o
                0x00000000000046c4                ATCmdParser_read
 .text.ATCmdParser_add_oob
                0x000000000000470c       0x44 ./Board/helper/emhost/ATCmdParser/ATCmdParser.o
                0x000000000000470c                ATCmdParser_add_oob
 .text.ATCmdParser_process_oob
                0x0000000000004750      0x100 ./Board/helper/emhost/ATCmdParser/ATCmdParser.o
                0x0000000000004750                ATCmdParser_process_oob
 .text.ATCmdParser_analyse_args
                0x0000000000004850       0xdc ./Board/helper/emhost/ATCmdParser/ATCmdParser.o
                0x0000000000004850                ATCmdParser_analyse_args
 .text.ATCmdParser_init
                0x000000000000492c       0x5c ./Board/helper/emhost/ATCmdParser/ATCmdParser.o
                0x000000000000492c                ATCmdParser_init
 .text.emh_alisds_config
                0x0000000000004988      0x208 ./Board/helper/emhost/emh_alisds.o
                0x0000000000004988                emh_alisds_config
 .text.emh_alisds_start_service
                0x0000000000004b90       0x30 ./Board/helper/emhost/emh_alisds.o
                0x0000000000004b90                emh_alisds_start_service
 .text.emh_alisds_get_status
                0x0000000000004bc0       0x68 ./Board/helper/emhost/emh_alisds.o
                0x0000000000004bc0                emh_alisds_get_status
 .text.emh_alisds_provision
                0x0000000000004c28       0x50 ./Board/helper/emhost/emh_alisds.o
                0x0000000000004c28                emh_alisds_provision
 .text.emh_alisds_unbound
                0x0000000000004c78       0x30 ./Board/helper/emhost/emh_alisds.o
                0x0000000000004c78                emh_alisds_unbound
 .text.emh_alisds_set_cloud_atts
                0x0000000000004ca8       0x60 ./Board/helper/emhost/emh_alisds.o
                0x0000000000004ca8                emh_alisds_set_cloud_atts
 .text.emh_alisds_event_handler
                0x0000000000004d08      0x2a4 ./Board/helper/emhost/emh_alisds.o
                0x0000000000004d08                emh_alisds_event_handler
 .text.emh_arg_for_type
                0x0000000000004fac       0x24 ./Board/helper/emhost/emh_arg.o
                0x0000000000004fac                emh_arg_for_type
 .text.emh_arg_for_arg
                0x0000000000004fd0       0x68 ./Board/helper/emhost/emh_arg.o
                0x0000000000004fd0                emh_arg_for_arg
 .text.emh_module_reset
                0x0000000000005038       0x94 ./Board/helper/emhost/emh_module.o
                0x0000000000005038                emh_module_reset
 .text.emh_module_restore_settings
                0x00000000000050cc       0x94 ./Board/helper/emhost/emh_module.o
                0x00000000000050cc                emh_module_restore_settings
 .text.emh_init
                0x0000000000005160       0x68 ./Board/helper/emhost/emh_module.o
                0x0000000000005160                emh_init
 .text.emh_module_get_fw_version
                0x00000000000051c8       0x40 ./Board/helper/emhost/emh_module.o
                0x00000000000051c8                emh_module_get_fw_version
 .text.emh_runloop
                0x0000000000005208       0x14 ./Board/helper/emhost/emh_module.o
                0x0000000000005208                emh_runloop
 .text.emh_wlan_get_para
                0x000000000000521c       0xa4 ./Board/helper/emhost/emh_wlan.o
                0x000000000000521c                emh_wlan_get_para
 .text.emh_wlan_event_handler
                0x00000000000052c0       0x98 ./Board/helper/emhost/emh_wlan.o
                0x00000000000052c0                emh_wlan_event_handler
 .text.atomic_enter_critical
                0x0000000000005358       0x24 ./Board/helper/hal/mx_hal_atomic.o
                0x0000000000005358                atomic_enter_critical
 .text.atomic_leave_critical
                0x000000000000537c       0x24 ./Board/helper/hal/mx_hal_atomic.o
                0x000000000000537c                atomic_leave_critical
 .text.mx_hal_i2c_init
                0x00000000000053a0       0x54 ./Board/helper/hal/mx_i2c.o
                0x00000000000053a0                mx_hal_i2c_init
 .text.mx_hal_i2c_cmd_write
                0x00000000000053f4      0x14c ./Board/helper/hal/mx_i2c.o
                0x00000000000053f4                mx_hal_i2c_cmd_write
 .text.mx_hal_i2c_cmd_read
                0x0000000000005540      0x128 ./Board/helper/hal/mx_i2c.o
                0x0000000000005540                mx_hal_i2c_cmd_read
 .text.mx_hal_serial_init
                0x0000000000005668       0x74 ./Board/helper/hal/mx_serial.o
                0x0000000000005668                mx_hal_serial_init
 .text.mx_hal_serial_putc
                0x00000000000056dc       0x60 ./Board/helper/hal/mx_serial.o
                0x00000000000056dc                mx_hal_serial_putc
 .text.mx_hal_serial_getc
                0x000000000000573c       0x44 ./Board/helper/hal/mx_serial.o
                0x000000000000573c                mx_hal_serial_getc
 .text.mx_hal_serial_readable
                0x0000000000005780       0x20 ./Board/helper/hal/mx_serial.o
                0x0000000000005780                mx_hal_serial_readable
 .text.ATCMD_RX_ISR
                0x00000000000057a0       0x58 ./Board/helper/hal/mx_serial.o
                0x00000000000057a0                ATCMD_RX_ISR
 .text.at_async_read
                0x00000000000057f8       0x70 ./Board/helper/hal/mx_serial.o
 .text.mx_hal_stdio_init
                0x0000000000005868       0x34 ./Board/helper/hal/mx_stdio.o
                0x0000000000005868                mx_hal_stdio_init
 .text._SysTick_Handler
                0x000000000000589c       0x1c ./Board/helper/hal/mx_tick.o
                0x000000000000589c                _SysTick_Handler
 .text.mx_hal_ms_ticker_read
                0x00000000000058b8       0x18 ./Board/helper/hal/mx_tick.o
                0x00000000000058b8                mx_hal_ms_ticker_read
 .text.mx_hal_delay_ms
                0x00000000000058d0       0x2c ./Board/helper/hal/mx_tick.o
                0x00000000000058d0                mx_hal_delay_ms
 .text.jsmn_alloc_token
                0x00000000000058fc       0x64 ./Board/helper/jsmn/jsmn.o
 .text.jsmn_fill_token
                0x0000000000005960       0x38 ./Board/helper/jsmn/jsmn.o
 .text.jsmn_parse_primitive
                0x0000000000005998      0x118 ./Board/helper/jsmn/jsmn.o
 .text.jsmn_parse_string
                0x0000000000005ab0      0x320 ./Board/helper/jsmn/jsmn.o
 .text.jsmn_parse
                0x0000000000005dd0      0x444 ./Board/helper/jsmn/jsmn.o
                0x0000000000005dd0                jsmn_parse
 .text.jsmn_init
                0x0000000000006214       0x28 ./Board/helper/jsmn/jsmn.o
                0x0000000000006214                jsmn_init
 .text.json_printbuf_new
                0x000000000000623c       0x58 ./Board/helper/jsmn/json_escape_str.o
                0x000000000000623c                json_printbuf_new
 .text.json_printbuf_free
                0x0000000000006294       0x24 ./Board/helper/jsmn/json_escape_str.o
                0x0000000000006294                json_printbuf_free
 .text.json_printbuf_memappend
                0x00000000000062b8       0x98 ./Board/helper/jsmn/json_escape_str.o
 .text.json_escape_str
                0x0000000000006350      0x1b0 ./Board/helper/jsmn/json_escape_str.o
                0x0000000000006350                json_escape_str
 .text.skip     0x0000000000006500       0x2c ./Board/helper/jsmn/json_generator.o
 .text.rev_skip
                0x000000000000652c       0x2c ./Board/helper/jsmn/json_generator.o
 .text.print_float
                0x0000000000006558       0xbc ./Board/helper/jsmn/json_generator.o
 .text.verify_json_start
                0x0000000000006614       0x44 ./Board/helper/jsmn/json_generator.o
                0x0000000000006614                verify_json_start
 .text.verify_buffer_limit
                0x0000000000006658       0x40 ./Board/helper/jsmn/json_generator.o
 .text.json_str_init
                0x0000000000006698       0x34 ./Board/helper/jsmn/json_generator.o
                0x0000000000006698                json_str_init
 .text.json_push_object
                0x00000000000066cc       0x90 ./Board/helper/jsmn/json_generator.o
                0x00000000000066cc                json_push_object
 .text.json_push_array_object
                0x000000000000675c       0x90 ./Board/helper/jsmn/json_generator.o
                0x000000000000675c                json_push_array_object
 .text.json_start_object
                0x00000000000067ec       0x74 ./Board/helper/jsmn/json_generator.o
                0x00000000000067ec                json_start_object
 .text.json_close_object
                0x0000000000006860       0x3c ./Board/helper/jsmn/json_generator.o
                0x0000000000006860                json_close_object
 .text.json_pop_array_object
                0x000000000000689c       0x3c ./Board/helper/jsmn/json_generator.o
                0x000000000000689c                json_pop_array_object
 .text.json_set_array_value
                0x00000000000068d8      0x170 ./Board/helper/jsmn/json_generator.o
                0x00000000000068d8                json_set_array_value
 .text.json_set_object_value
                0x0000000000006a48      0x280 ./Board/helper/jsmn/json_generator.o
                0x0000000000006a48                json_set_object_value
 .text.json_token_streq
                0x0000000000006cc8       0x64 ./Board/helper/jsmn/json_wrappers.o
 .text.skip_to_last
                0x0000000000006d2c       0x4c ./Board/helper/jsmn/json_wrappers.o
 .text.json_str_to_str
                0x0000000000006d78       0x84 ./Board/helper/jsmn/json_wrappers.o
 .text.json_get_value
                0x0000000000006dfc       0xe8 ./Board/helper/jsmn/json_wrappers.o
 .text.json_get_val_str
                0x0000000000006ee4       0x40 ./Board/helper/jsmn/json_wrappers.o
                0x0000000000006ee4                json_get_val_str
 .text.json_get_composite_object
                0x0000000000006f24       0x5c ./Board/helper/jsmn/json_wrappers.o
                0x0000000000006f24                json_get_composite_object
 .text.json_release_composite_object
                0x0000000000006f80       0x3c ./Board/helper/jsmn/json_wrappers.o
                0x0000000000006f80                json_release_composite_object
 .text.json_get_array_object
                0x0000000000006fbc       0x5c ./Board/helper/jsmn/json_wrappers.o
                0x0000000000006fbc                json_get_array_object
 .text.json_release_array_object
                0x0000000000007018       0x18 ./Board/helper/jsmn/json_wrappers.o
                0x0000000000007018                json_release_array_object
 .text.json_get_array_index
                0x0000000000007030       0x98 ./Board/helper/jsmn/json_wrappers.o
 .text.json_array_get_str
                0x00000000000070c8       0x44 ./Board/helper/jsmn/json_wrappers.o
                0x00000000000070c8                json_array_get_str
 .text.json_obj_init
                0x000000000000710c       0x34 ./Board/helper/jsmn/json_wrappers.o
 .text.json_init
                0x0000000000007140       0xb8 ./Board/helper/jsmn/json_wrappers.o
                0x0000000000007140                json_init
 .text.ringbuffer_init
                0x00000000000071f8       0x94 ./Board/helper/mx_utils/mx_ringbuffer.o
                0x00000000000071f8                ringbuffer_init
 .text.ringbuffer_get
                0x000000000000728c       0x84 ./Board/helper/mx_utils/mx_ringbuffer.o
                0x000000000000728c                ringbuffer_get
 .text.ringbuffer_put
                0x0000000000007310       0x88 ./Board/helper/mx_utils/mx_ringbuffer.o
                0x0000000000007310                ringbuffer_put
 .text.ringbuffer_num
                0x0000000000007398       0x20 ./Board/helper/mx_utils/mx_ringbuffer.o
                0x0000000000007398                ringbuffer_num
 .text.soc_err_proc
                0x00000000000073b8       0x24 ./aos/soc_impl.o
                0x00000000000073b8                soc_err_proc
 .text.k_err_proc
                0x00000000000073dc       0x28 ./core/k_err.o
                0x00000000000073dc                k_err_proc
 .text.cpu_cur_get
                0x0000000000007404       0x10 ./core/k_idle.o
 .text.idle_task
                0x0000000000007414       0x3c ./core/k_idle.o
                0x0000000000007414                idle_task
 .text.is_klist_empty
                0x0000000000007450       0x24 ./core/k_mutex.o
 .text.mutex_release
                0x0000000000007474       0x34 ./core/k_mutex.o
 .text.mutex_pri_look
                0x00000000000074a8       0x78 ./core/k_mutex.o
                0x00000000000074a8                mutex_pri_look
 .text.mutex_task_pri_reset
                0x0000000000007520       0x3c ./core/k_mutex.o
                0x0000000000007520                mutex_task_pri_reset
 .text.klist_insert
                0x000000000000755c       0x30 ./core/k_pend.o
 .text.klist_rm
                0x000000000000758c       0x28 ./core/k_pend.o
 .text.pend_list_add
                0x00000000000075b4       0x50 ./core/k_pend.o
 .text.pend_task_wakeup
                0x0000000000007604       0x70 ./core/k_pend.o
                0x0000000000007604                pend_task_wakeup
 .text.pend_list_reorder
                0x0000000000007674       0x30 ./core/k_pend.o
                0x0000000000007674                pend_list_reorder
 .text.krhino_bitmap_set
                0x00000000000076a4       0x3c ./core/k_sched.o
 .text.krhino_bitmap_clear
                0x00000000000076e0       0x40 ./core/k_sched.o
 .text.krhino_find_first_bit
                0x0000000000007720       0xa0 ./core/k_sched.o
 .text.klist_init
                0x00000000000077c0       0x20 ./core/k_sched.o
 .text.klist_insert
                0x00000000000077e0       0x30 ./core/k_sched.o
 .text.klist_rm
                0x0000000000007810       0x28 ./core/k_sched.o
 .text.cpu_cur_get
                0x0000000000007838       0x10 ./core/k_sched.o
 .text.core_sched
                0x0000000000007848       0x84 ./core/k_sched.o
                0x0000000000007848                core_sched
 .text.runqueue_init
                0x00000000000078cc       0x38 ./core/k_sched.o
                0x00000000000078cc                runqueue_init
 .text.ready_list_init
                0x0000000000007904       0x68 ./core/k_sched.o
 .text.is_ready_list_empty
                0x000000000000796c       0x2c ./core/k_sched.o
 .text._ready_list_add_tail
                0x0000000000007998       0x48 ./core/k_sched.o
 .text._ready_list_add_head
                0x00000000000079e0       0x5c ./core/k_sched.o
 .text.ready_list_add_head
                0x0000000000007a3c       0x18 ./core/k_sched.o
                0x0000000000007a3c                ready_list_add_head
 .text.ready_list_add_tail
                0x0000000000007a54       0x18 ./core/k_sched.o
                0x0000000000007a54                ready_list_add_tail
 .text.ready_list_add
                0x0000000000007a6c       0x44 ./core/k_sched.o
                0x0000000000007a6c                ready_list_add
 .text.ready_list_rm
                0x0000000000007ab0       0xa8 ./core/k_sched.o
                0x0000000000007ab0                ready_list_rm
 .text.preferred_cpu_ready_task_get
                0x0000000000007b58       0x38 ./core/k_sched.o
                0x0000000000007b58                preferred_cpu_ready_task_get
 .text.klist_init
                0x0000000000007b90       0x20 ./core/k_stats.o
 .text.cpu_cur_get
                0x0000000000007bb0       0x10 ./core/k_stats.o
 .text.kobj_list_init
                0x0000000000007bc0       0x38 ./core/k_stats.o
                0x0000000000007bc0                kobj_list_init
 .text.krhino_stack_ovf_check
                0x0000000000007bf8       0x58 ./core/k_stats.o
                0x0000000000007bf8                krhino_stack_ovf_check
 .text.cpu_cur_get
                0x0000000000007c50       0x10 ./core/k_sys.o
 .text.rhino_stack_check_init
                0x0000000000007c60        0xc ./core/k_sys.o
 .text.krhino_init
                0x0000000000007c6c       0x68 ./core/k_sys.o
                0x0000000000007c6c                krhino_init
 .text.krhino_start
                0x0000000000007cd4       0x40 ./core/k_sys.o
                0x0000000000007cd4                krhino_start
 .text.krhino_intrpt_enter
                0x0000000000007d14       0x34 ./core/k_sys.o
                0x0000000000007d14                krhino_intrpt_enter
 .text.krhino_intrpt_exit
                0x0000000000007d48       0x90 ./core/k_sys.o
                0x0000000000007d48                krhino_intrpt_exit
 .text.is_klist_empty
                0x0000000000007dd8       0x24 ./core/k_task.o
 .text.klist_insert
                0x0000000000007dfc       0x30 ./core/k_task.o
 .text.klist_rm
                0x0000000000007e2c       0x28 ./core/k_task.o
 .text.cpu_cur_get
                0x0000000000007e54       0x10 ./core/k_task.o
 .text.task_create
                0x0000000000007e64      0x190 ./core/k_task.o
 .text.krhino_task_create
                0x0000000000007ff4       0x4c ./core/k_task.o
                0x0000000000007ff4                krhino_task_create
 .text.krhino_cur_task_get
                0x0000000000008040       0x30 ./core/k_task.o
                0x0000000000008040                krhino_cur_task_get
 .text.task_pri_change
                0x0000000000008070      0x13c ./core/k_task.o
                0x0000000000008070                task_pri_change
 .text.task_mutex_free
                0x00000000000081ac       0x60 ./core/k_task.o
 .text.krhino_task_del
                0x000000000000820c      0x14c ./core/k_task.o
                0x000000000000820c                krhino_task_del
 .text.krhino_task_deathbed
                0x0000000000008358       0x24 ./core/k_task.o
                0x0000000000008358                krhino_task_deathbed
 .text.klist_init
                0x000000000000837c       0x20 ./core/k_tick.o
 .text.klist_rm
                0x000000000000839c       0x28 ./core/k_tick.o
 .text.tick_list_init
                0x00000000000083c4       0x10 ./core/k_tick.o
                0x00000000000083c4                tick_list_init
 .text.tick_list_rm
                0x00000000000083d4       0x2c ./core/k_tick.o
                0x00000000000083d4                tick_list_rm
 .text.tick_list_update
                0x0000000000008400      0x15c ./core/k_tick.o
                0x0000000000008400                tick_list_update
 .text.krhino_tick_proc
                0x000000000000855c       0x14 ./core/k_time.o
                0x000000000000855c                krhino_tick_proc
 .text.cpu_task_stack_init
                0x0000000000008570      0x1e0 ./m4/port_c.o
                0x0000000000008570                cpu_task_stack_init
 .text.pow      0x0000000000008750      0x340 /Applications/ti/ccsv6/tools/compiler/gcc-arm-none-eabi-4_9-2015q3/bin/../lib/gcc/arm-none-eabi/4.9.3/../../../../arm-none-eabi/lib/armv7e-m/fpu/libm.a(lib_a-w_pow.o)
                0x0000000000008750                pow
 .text.__ieee754_pow
                0x0000000000008a90      0xae0 /Applications/ti/ccsv6/tools/compiler/gcc-arm-none-eabi-4_9-2015q3/bin/../lib/gcc/arm-none-eabi/4.9.3/../../../../arm-none-eabi/lib/armv7e-m/fpu/libm.a(lib_a-e_pow.o)
                0x0000000000008a90                __ieee754_pow
 .text.__ieee754_sqrt
                0x0000000000009570      0x1a8 /Applications/ti/ccsv6/tools/compiler/gcc-arm-none-eabi-4_9-2015q3/bin/../lib/gcc/arm-none-eabi/4.9.3/../../../../arm-none-eabi/lib/armv7e-m/fpu/libm.a(lib_a-e_sqrt.o)
                0x0000000000009570                __ieee754_sqrt
 .text.fabs     0x0000000000009718       0x10 /Applications/ti/ccsv6/tools/compiler/gcc-arm-none-eabi-4_9-2015q3/bin/../lib/gcc/arm-none-eabi/4.9.3/../../../../arm-none-eabi/lib/armv7e-m/fpu/libm.a(lib_a-s_fabs.o)
                0x0000000000009718                fabs
 .text.finite   0x0000000000009728       0x10 /Applications/ti/ccsv6/tools/compiler/gcc-arm-none-eabi-4_9-2015q3/bin/../lib/gcc/arm-none-eabi/4.9.3/../../../../arm-none-eabi/lib/armv7e-m/fpu/libm.a(lib_a-s_finite.o)
                0x0000000000009728                finite
 .text.__fpclassifyd
                0x0000000000009738       0x5c /Applications/ti/ccsv6/tools/compiler/gcc-arm-none-eabi-4_9-2015q3/bin/../lib/gcc/arm-none-eabi/4.9.3/../../../../arm-none-eabi/lib/armv7e-m/fpu/libm.a(lib_a-s_fpclassify.o)
                0x0000000000009738                __fpclassifyd
 .text.matherr  0x0000000000009794        0x4 /Applications/ti/ccsv6/tools/compiler/gcc-arm-none-eabi-4_9-2015q3/bin/../lib/gcc/arm-none-eabi/4.9.3/../../../../arm-none-eabi/lib/armv7e-m/fpu/libm.a(lib_a-s_matherr.o)
                0x0000000000009794                matherr
 .text.nan      0x0000000000009798       0x10 /Applications/ti/ccsv6/tools/compiler/gcc-arm-none-eabi-4_9-2015q3/bin/../lib/gcc/arm-none-eabi/4.9.3/../../../../arm-none-eabi/lib/armv7e-m/fpu/libm.a(lib_a-s_nan.o)
                0x0000000000009798                nan
 .text.rint     0x00000000000097a8      0x124 /Applications/ti/ccsv6/tools/compiler/gcc-arm-none-eabi-4_9-2015q3/bin/../lib/gcc/arm-none-eabi/4.9.3/../../../../arm-none-eabi/lib/armv7e-m/fpu/libm.a(lib_a-s_rint.o)
                0x00000000000097a8                rint
 *fill*         0x00000000000098cc        0x4 
 .text.scalbn   0x00000000000098d0      0x104 /Applications/ti/ccsv6/tools/compiler/gcc-arm-none-eabi-4_9-2015q3/bin/../lib/gcc/arm-none-eabi/4.9.3/../../../../arm-none-eabi/lib/armv7e-m/fpu/libm.a(lib_a-s_scalbn.o)
                0x00000000000098d0                scalbn
 .text.copysign
                0x00000000000099d4       0x1c /Applications/ti/ccsv6/tools/compiler/gcc-arm-none-eabi-4_9-2015q3/bin/../lib/gcc/arm-none-eabi/4.9.3/../../../../arm-none-eabi/lib/armv7e-m/fpu/libm.a(lib_a-s_copysign.o)
                0x00000000000099d4                copysign
 .text.__assert_func
                0x00000000000099f0       0x3c /Applications/ti/ccsv6/tools/compiler/gcc-arm-none-eabi-4_9-2015q3/bin/../lib/gcc/arm-none-eabi/4.9.3/../../../../arm-none-eabi/lib/armv7e-m/fpu/libc.a(lib_a-assert.o)
                0x00000000000099f0                __assert_func
 .text.calloc   0x0000000000009a2c       0x10 /Applications/ti/ccsv6/tools/compiler/gcc-arm-none-eabi-4_9-2015q3/bin/../lib/gcc/arm-none-eabi/4.9.3/../../../../arm-none-eabi/lib/armv7e-m/fpu/libc.a(lib_a-calloc.o)
                0x0000000000009a2c                calloc
 .text._calloc_r
                0x0000000000009a3c       0x60 /Applications/ti/ccsv6/tools/compiler/gcc-arm-none-eabi-4_9-2015q3/bin/../lib/gcc/arm-none-eabi/4.9.3/../../../../arm-none-eabi/lib/armv7e-m/fpu/libc.a(lib_a-callocr.o)
                0x0000000000009a3c                _calloc_r
 .text.__errno  0x0000000000009a9c        0xc /Applications/ti/ccsv6/tools/compiler/gcc-arm-none-eabi-4_9-2015q3/bin/../lib/gcc/arm-none-eabi/4.9.3/../../../../arm-none-eabi/lib/armv7e-m/fpu/libc.a(lib_a-errno.o)
                0x0000000000009a9c                __errno
 .text.exit     0x0000000000009aa8       0x20 /Applications/ti/ccsv6/tools/compiler/gcc-arm-none-eabi-4_9-2015q3/bin/../lib/gcc/arm-none-eabi/4.9.3/../../../../arm-none-eabi/lib/armv7e-m/fpu/libc.a(lib_a-exit.o)
                0x0000000000009aa8                exit
 .text.fiprintf
                0x0000000000009ac8       0x28 /Applications/ti/ccsv6/tools/compiler/gcc-arm-none-eabi-4_9-2015q3/bin/../lib/gcc/arm-none-eabi/4.9.3/../../../../arm-none-eabi/lib/armv7e-m/fpu/libc.a(lib_a-fiprintf.o)
                0x0000000000009ac8                fiprintf
 .text.__libc_init_array
                0x0000000000009af0       0x50 /Applications/ti/ccsv6/tools/compiler/gcc-arm-none-eabi-4_9-2015q3/bin/../lib/gcc/arm-none-eabi/4.9.3/../../../../arm-none-eabi/lib/armv7e-m/fpu/libc.a(lib_a-init.o)
                0x0000000000009af0                __libc_init_array
 .text.malloc   0x0000000000009b40       0x10 /Applications/ti/ccsv6/tools/compiler/gcc-arm-none-eabi-4_9-2015q3/bin/../lib/gcc/arm-none-eabi/4.9.3/../../../../arm-none-eabi/lib/armv7e-m/fpu/libc.a(lib_a-malloc.o)
                0x0000000000009b40                malloc
 .text.free     0x0000000000009b50       0x10 /Applications/ti/ccsv6/tools/compiler/gcc-arm-none-eabi-4_9-2015q3/bin/../lib/gcc/arm-none-eabi/4.9.3/../../../../arm-none-eabi/lib/armv7e-m/fpu/libc.a(lib_a-malloc.o)
                0x0000000000009b50                free
 .text._malloc_r
                0x0000000000009b60      0x524 /Applications/ti/ccsv6/tools/compiler/gcc-arm-none-eabi-4_9-2015q3/bin/../lib/gcc/arm-none-eabi/4.9.3/../../../../arm-none-eabi/lib/armv7e-m/fpu/libc.a(lib_a-mallocr.o)
                0x0000000000009b60                _malloc_r
 .text.memcmp   0x000000000000a084       0x64 /Applications/ti/ccsv6/tools/compiler/gcc-arm-none-eabi-4_9-2015q3/bin/../lib/gcc/arm-none-eabi/4.9.3/../../../../arm-none-eabi/lib/armv7e-m/fpu/libc.a(lib_a-memcmp.o)
                0x000000000000a084                memcmp
 .text.memset   0x000000000000a0e8       0x9c /Applications/ti/ccsv6/tools/compiler/gcc-arm-none-eabi-4_9-2015q3/bin/../lib/gcc/arm-none-eabi/4.9.3/../../../../arm-none-eabi/lib/armv7e-m/fpu/libc.a(lib_a-memset.o)
                0x000000000000a0e8                memset
 .text.__malloc_lock
                0x000000000000a184        0x4 /Applications/ti/ccsv6/tools/compiler/gcc-arm-none-eabi-4_9-2015q3/bin/../lib/gcc/arm-none-eabi/4.9.3/../../../../arm-none-eabi/lib/armv7e-m/fpu/libc.a(lib_a-mlock.o)
                0x000000000000a184                __malloc_lock
 .text.__malloc_unlock
                0x000000000000a188        0x4 /Applications/ti/ccsv6/tools/compiler/gcc-arm-none-eabi-4_9-2015q3/bin/../lib/gcc/arm-none-eabi/4.9.3/../../../../arm-none-eabi/lib/armv7e-m/fpu/libc.a(lib_a-mlock.o)
                0x000000000000a188                __malloc_unlock
 .text.printf   0x000000000000a18c       0x28 /Applications/ti/ccsv6/tools/compiler/gcc-arm-none-eabi-4_9-2015q3/bin/../lib/gcc/arm-none-eabi/4.9.3/../../../../arm-none-eabi/lib/armv7e-m/fpu/libc.a(lib_a-printf.o)
                0x000000000000a18c                printf
 .text._puts_r  0x000000000000a1b4       0x64 /Applications/ti/ccsv6/tools/compiler/gcc-arm-none-eabi-4_9-2015q3/bin/../lib/gcc/arm-none-eabi/4.9.3/../../../../arm-none-eabi/lib/armv7e-m/fpu/libc.a(lib_a-puts.o)
                0x000000000000a1b4                _puts_r
 .text.puts     0x000000000000a218       0x10 /Applications/ti/ccsv6/tools/compiler/gcc-arm-none-eabi-4_9-2015q3/bin/../lib/gcc/arm-none-eabi/4.9.3/../../../../arm-none-eabi/lib/armv7e-m/fpu/libc.a(lib_a-puts.o)
                0x000000000000a218                puts
 .text.realloc  0x000000000000a228       0x10 /Applications/ti/ccsv6/tools/compiler/gcc-arm-none-eabi-4_9-2015q3/bin/../lib/gcc/arm-none-eabi/4.9.3/../../../../arm-none-eabi/lib/armv7e-m/fpu/libc.a(lib_a-realloc.o)
                0x000000000000a228                realloc
 .text._realloc_r
                0x000000000000a238      0x3ec /Applications/ti/ccsv6/tools/compiler/gcc-arm-none-eabi-4_9-2015q3/bin/../lib/gcc/arm-none-eabi/4.9.3/../../../../arm-none-eabi/lib/armv7e-m/fpu/libc.a(lib_a-reallocr.o)
                0x000000000000a238                _realloc_r
 .text._sbrk_r  0x000000000000a624       0x24 /Applications/ti/ccsv6/tools/compiler/gcc-arm-none-eabi-4_9-2015q3/bin/../lib/gcc/arm-none-eabi/4.9.3/../../../../arm-none-eabi/lib/armv7e-m/fpu/libc.a(lib_a-sbrkr.o)
                0x000000000000a624                _sbrk_r
 .text.snprintf
                0x000000000000a648       0x9c /Applications/ti/ccsv6/tools/compiler/gcc-arm-none-eabi-4_9-2015q3/bin/../lib/gcc/arm-none-eabi/4.9.3/../../../../arm-none-eabi/lib/armv7e-m/fpu/libc.a(lib_a-snprintf.o)
                0x000000000000a648                snprintf
 .text.sprintf  0x000000000000a6e4       0x4c /Applications/ti/ccsv6/tools/compiler/gcc-arm-none-eabi-4_9-2015q3/bin/../lib/gcc/arm-none-eabi/4.9.3/../../../../arm-none-eabi/lib/armv7e-m/fpu/libc.a(lib_a-sprintf.o)
                0x000000000000a6e4                sprintf
 .text.sscanf   0x000000000000a730       0x58 /Applications/ti/ccsv6/tools/compiler/gcc-arm-none-eabi-4_9-2015q3/bin/../lib/gcc/arm-none-eabi/4.9.3/../../../../arm-none-eabi/lib/armv7e-m/fpu/libc.a(lib_a-sscanf.o)
                0x000000000000a730                sscanf
 .text.__sread  0x000000000000a788       0x24 /Applications/ti/ccsv6/tools/compiler/gcc-arm-none-eabi-4_9-2015q3/bin/../lib/gcc/arm-none-eabi/4.9.3/../../../../arm-none-eabi/lib/armv7e-m/fpu/libc.a(lib_a-stdio.o)
                0x000000000000a788                __sread
 .text.__seofread
                0x000000000000a7ac        0x4 /Applications/ti/ccsv6/tools/compiler/gcc-arm-none-eabi-4_9-2015q3/bin/../lib/gcc/arm-none-eabi/4.9.3/../../../../arm-none-eabi/lib/armv7e-m/fpu/libc.a(lib_a-stdio.o)
                0x000000000000a7ac                __seofread
 .text.__swrite
                0x000000000000a7b0       0x38 /Applications/ti/ccsv6/tools/compiler/gcc-arm-none-eabi-4_9-2015q3/bin/../lib/gcc/arm-none-eabi/4.9.3/../../../../arm-none-eabi/lib/armv7e-m/fpu/libc.a(lib_a-stdio.o)
                0x000000000000a7b0                __swrite
 .text.__sseek  0x000000000000a7e8       0x20 /Applications/ti/ccsv6/tools/compiler/gcc-arm-none-eabi-4_9-2015q3/bin/../lib/gcc/arm-none-eabi/4.9.3/../../../../arm-none-eabi/lib/armv7e-m/fpu/libc.a(lib_a-stdio.o)
                0x000000000000a7e8                __sseek
 .text.__sclose
                0x000000000000a808        0x8 /Applications/ti/ccsv6/tools/compiler/gcc-arm-none-eabi-4_9-2015q3/bin/../lib/gcc/arm-none-eabi/4.9.3/../../../../arm-none-eabi/lib/armv7e-m/fpu/libc.a(lib_a-stdio.o)
                0x000000000000a808                __sclose
 .text.strcpy   0x000000000000a810       0xbc /Applications/ti/ccsv6/tools/compiler/gcc-arm-none-eabi-4_9-2015q3/bin/../lib/gcc/arm-none-eabi/4.9.3/../../../../arm-none-eabi/lib/armv7e-m/fpu/libc.a(lib_a-strcpy.o)
                0x000000000000a810                strcpy
 .text.strlen   0x000000000000a8cc       0x5c /Applications/ti/ccsv6/tools/compiler/gcc-arm-none-eabi-4_9-2015q3/bin/../lib/gcc/arm-none-eabi/4.9.3/../../../../arm-none-eabi/lib/armv7e-m/fpu/libc.a(lib_a-strlen.o)
                0x000000000000a8cc                strlen
 .text.strncmp  0x000000000000a928       0x98 /Applications/ti/ccsv6/tools/compiler/gcc-arm-none-eabi-4_9-2015q3/bin/../lib/gcc/arm-none-eabi/4.9.3/../../../../arm-none-eabi/lib/armv7e-m/fpu/libc.a(lib_a-strncmp.o)
                0x000000000000a928                strncmp
 .text.strncpy  0x000000000000a9c0       0x68 /Applications/ti/ccsv6/tools/compiler/gcc-arm-none-eabi-4_9-2015q3/bin/../lib/gcc/arm-none-eabi/4.9.3/../../../../arm-none-eabi/lib/armv7e-m/fpu/libc.a(lib_a-strncpy.o)
                0x000000000000a9c0                strncpy
 .text._strtoul_r
                0x000000000000aa28      0x128 /Applications/ti/ccsv6/tools/compiler/gcc-arm-none-eabi-4_9-2015q3/bin/../lib/gcc/arm-none-eabi/4.9.3/../../../../arm-none-eabi/lib/armv7e-m/fpu/libc.a(lib_a-strtoul.o)
                0x000000000000aa28                _strtoul_r
 .text._strtoull_r
                0x000000000000ab50      0x1d8 /Applications/ti/ccsv6/tools/compiler/gcc-arm-none-eabi-4_9-2015q3/bin/../lib/gcc/arm-none-eabi/4.9.3/../../../../arm-none-eabi/lib/armv7e-m/fpu/libc.a(lib_a-strtoull_r.o)
                0x000000000000ab50                _strtoull_r
 .text._svfprintf_r
                0x000000000000ad28     0x14cc /Applications/ti/ccsv6/tools/compiler/gcc-arm-none-eabi-4_9-2015q3/bin/../lib/gcc/arm-none-eabi/4.9.3/../../../../arm-none-eabi/lib/armv7e-m/fpu/libc.a(lib_a-svfprintf.o)
                0x000000000000ad28                _svfprintf_r
 .text.__ssvfscanf_r
                0x000000000000c1f4      0xe5c /Applications/ti/ccsv6/tools/compiler/gcc-arm-none-eabi-4_9-2015q3/bin/../lib/gcc/arm-none-eabi/4.9.3/../../../../arm-none-eabi/lib/armv7e-m/fpu/libc.a(lib_a-svfscanf.o)
                0x000000000000c1f4                __ssvfscanf_r
 .text.__sprint_r.part.0
                0x000000000000d050       0x78 /Applications/ti/ccsv6/tools/compiler/gcc-arm-none-eabi-4_9-2015q3/bin/../lib/gcc/arm-none-eabi/4.9.3/../../../../arm-none-eabi/lib/armv7e-m/fpu/libc.a(lib_a-vfiprintf.o)
 .text.__sprint_r
                0x000000000000d0c8       0x18 /Applications/ti/ccsv6/tools/compiler/gcc-arm-none-eabi-4_9-2015q3/bin/../lib/gcc/arm-none-eabi/4.9.3/../../../../arm-none-eabi/lib/armv7e-m/fpu/libc.a(lib_a-vfiprintf.o)
                0x000000000000d0c8                __sprint_r
 .text._vfiprintf_r
                0x000000000000d0e0      0xc10 /Applications/ti/ccsv6/tools/compiler/gcc-arm-none-eabi-4_9-2015q3/bin/../lib/gcc/arm-none-eabi/4.9.3/../../../../arm-none-eabi/lib/armv7e-m/fpu/libc.a(lib_a-vfiprintf.o)
                0x000000000000d0e0                _vfiprintf_r
 .text.__sbprintf
                0x000000000000dcf0       0x78 /Applications/ti/ccsv6/tools/compiler/gcc-arm-none-eabi-4_9-2015q3/bin/../lib/gcc/arm-none-eabi/4.9.3/../../../../arm-none-eabi/lib/armv7e-m/fpu/libc.a(lib_a-vfiprintf.o)
 .text._vfprintf_r
                0x000000000000dd68     0x1424 /Applications/ti/ccsv6/tools/compiler/gcc-arm-none-eabi-4_9-2015q3/bin/../lib/gcc/arm-none-eabi/4.9.3/../../../../arm-none-eabi/lib/armv7e-m/fpu/libc.a(lib_a-vfprintf.o)
                0x000000000000dd68                _vfprintf_r
 .text.__sbprintf
                0x000000000000f18c       0x78 /Applications/ti/ccsv6/tools/compiler/gcc-arm-none-eabi-4_9-2015q3/bin/../lib/gcc/arm-none-eabi/4.9.3/../../../../arm-none-eabi/lib/armv7e-m/fpu/libc.a(lib_a-vfprintf.o)
 .text.vprintf  0x000000000000f204       0x1c /Applications/ti/ccsv6/tools/compiler/gcc-arm-none-eabi-4_9-2015q3/bin/../lib/gcc/arm-none-eabi/4.9.3/../../../../arm-none-eabi/lib/armv7e-m/fpu/libc.a(lib_a-vprintf.o)
                0x000000000000f204                vprintf
 .text._vsprintf_r
                0x000000000000f220       0x34 /Applications/ti/ccsv6/tools/compiler/gcc-arm-none-eabi-4_9-2015q3/bin/../lib/gcc/arm-none-eabi/4.9.3/../../../../arm-none-eabi/lib/armv7e-m/fpu/libc.a(lib_a-vsprintf.o)
                0x000000000000f220                _vsprintf_r
 .text.vsprintf
                0x000000000000f254       0x18 /Applications/ti/ccsv6/tools/compiler/gcc-arm-none-eabi-4_9-2015q3/bin/../lib/gcc/arm-none-eabi/4.9.3/../../../../arm-none-eabi/lib/armv7e-m/fpu/libc.a(lib_a-vsprintf.o)
                0x000000000000f254                vsprintf
 .text._vsscanf_r
                0x000000000000f26c       0x48 /Applications/ti/ccsv6/tools/compiler/gcc-arm-none-eabi-4_9-2015q3/bin/../lib/gcc/arm-none-eabi/4.9.3/../../../../arm-none-eabi/lib/armv7e-m/fpu/libc.a(lib_a-vsscanf.o)
                0x000000000000f26c                _vsscanf_r
 .text.vsscanf  0x000000000000f2b4       0x18 /Applications/ti/ccsv6/tools/compiler/gcc-arm-none-eabi-4_9-2015q3/bin/../lib/gcc/arm-none-eabi/4.9.3/../../../../arm-none-eabi/lib/armv7e-m/fpu/libc.a(lib_a-vsscanf.o)
                0x000000000000f2b4                vsscanf
 .text._write_r
                0x000000000000f2cc       0x28 /Applications/ti/ccsv6/tools/compiler/gcc-arm-none-eabi-4_9-2015q3/bin/../lib/gcc/arm-none-eabi/4.9.3/../../../../arm-none-eabi/lib/armv7e-m/fpu/libc.a(lib_a-writer.o)
                0x000000000000f2cc                _write_r
 .text.__swsetup_r
                0x000000000000f2f4       0xc4 /Applications/ti/ccsv6/tools/compiler/gcc-arm-none-eabi-4_9-2015q3/bin/../lib/gcc/arm-none-eabi/4.9.3/../../../../arm-none-eabi/lib/armv7e-m/fpu/libc.a(lib_a-wsetup.o)
                0x000000000000f2f4                __swsetup_r
 .text.startup.register_fini
                0x000000000000f3b8       0x14 /Applications/ti/ccsv6/tools/compiler/gcc-arm-none-eabi-4_9-2015q3/bin/../lib/gcc/arm-none-eabi/4.9.3/../../../../arm-none-eabi/lib/armv7e-m/fpu/libc.a(lib_a-__call_atexit.o)
 .text.__call_exitprocs
                0x000000000000f3cc       0xd4 /Applications/ti/ccsv6/tools/compiler/gcc-arm-none-eabi-4_9-2015q3/bin/../lib/gcc/arm-none-eabi/4.9.3/../../../../arm-none-eabi/lib/armv7e-m/fpu/libc.a(lib_a-__call_atexit.o)
                0x000000000000f3cc                __call_exitprocs
 .text.abort    0x000000000000f4a0       0x10 /Applications/ti/ccsv6/tools/compiler/gcc-arm-none-eabi-4_9-2015q3/bin/../lib/gcc/arm-none-eabi/4.9.3/../../../../arm-none-eabi/lib/armv7e-m/fpu/libc.a(lib_a-abort.o)
                0x000000000000f4a0                abort
 .text.atexit   0x000000000000f4b0        0xc /Applications/ti/ccsv6/tools/compiler/gcc-arm-none-eabi-4_9-2015q3/bin/../lib/gcc/arm-none-eabi/4.9.3/../../../../arm-none-eabi/lib/armv7e-m/fpu/libc.a(lib_a-atexit.o)
                0x000000000000f4b0                atexit
 .text._close_r
                0x000000000000f4bc       0x24 /Applications/ti/ccsv6/tools/compiler/gcc-arm-none-eabi-4_9-2015q3/bin/../lib/gcc/arm-none-eabi/4.9.3/../../../../arm-none-eabi/lib/armv7e-m/fpu/libc.a(lib_a-closer.o)
                0x000000000000f4bc                _close_r
 .text.quorem   0x000000000000f4e0      0x12c /Applications/ti/ccsv6/tools/compiler/gcc-arm-none-eabi-4_9-2015q3/bin/../lib/gcc/arm-none-eabi/4.9.3/../../../../arm-none-eabi/lib/armv7e-m/fpu/libc.a(lib_a-dtoa.o)
 *fill*         0x000000000000f60c        0x4 
 .text._dtoa_r  0x000000000000f610      0xea4 /Applications/ti/ccsv6/tools/compiler/gcc-arm-none-eabi-4_9-2015q3/bin/../lib/gcc/arm-none-eabi/4.9.3/../../../../arm-none-eabi/lib/armv7e-m/fpu/libc.a(lib_a-dtoa.o)
                0x000000000000f610                _dtoa_r
 .text.__sflush_r
                0x00000000000104b4      0x154 /Applications/ti/ccsv6/tools/compiler/gcc-arm-none-eabi-4_9-2015q3/bin/../lib/gcc/arm-none-eabi/4.9.3/../../../../arm-none-eabi/lib/armv7e-m/fpu/libc.a(lib_a-fflush.o)
                0x00000000000104b4                __sflush_r
 .text._fflush_r
                0x0000000000010608       0x2c /Applications/ti/ccsv6/tools/compiler/gcc-arm-none-eabi-4_9-2015q3/bin/../lib/gcc/arm-none-eabi/4.9.3/../../../../arm-none-eabi/lib/armv7e-m/fpu/libc.a(lib_a-fflush.o)
                0x0000000000010608                _fflush_r
 .text._cleanup_r
                0x0000000000010634        0xc /Applications/ti/ccsv6/tools/compiler/gcc-arm-none-eabi-4_9-2015q3/bin/../lib/gcc/arm-none-eabi/4.9.3/../../../../arm-none-eabi/lib/armv7e-m/fpu/libc.a(lib_a-findfp.o)
                0x0000000000010634                _cleanup_r
 .text.__sinit.part.1
                0x0000000000010640       0xf0 /Applications/ti/ccsv6/tools/compiler/gcc-arm-none-eabi-4_9-2015q3/bin/../lib/gcc/arm-none-eabi/4.9.3/../../../../arm-none-eabi/lib/armv7e-m/fpu/libc.a(lib_a-findfp.o)
 .text.__sinit  0x0000000000010730        0xc /Applications/ti/ccsv6/tools/compiler/gcc-arm-none-eabi-4_9-2015q3/bin/../lib/gcc/arm-none-eabi/4.9.3/../../../../arm-none-eabi/lib/armv7e-m/fpu/libc.a(lib_a-findfp.o)
                0x0000000000010730                __sinit
 .text.__sfp_lock_acquire
                0x000000000001073c        0x4 /Applications/ti/ccsv6/tools/compiler/gcc-arm-none-eabi-4_9-2015q3/bin/../lib/gcc/arm-none-eabi/4.9.3/../../../../arm-none-eabi/lib/armv7e-m/fpu/libc.a(lib_a-findfp.o)
                0x000000000001073c                __sfp_lock_acquire
 .text.__sfp_lock_release
                0x0000000000010740        0x4 /Applications/ti/ccsv6/tools/compiler/gcc-arm-none-eabi-4_9-2015q3/bin/../lib/gcc/arm-none-eabi/4.9.3/../../../../arm-none-eabi/lib/armv7e-m/fpu/libc.a(lib_a-findfp.o)
                0x0000000000010740                __sfp_lock_release
 .text.__libc_fini_array
                0x0000000000010744       0x2c /Applications/ti/ccsv6/tools/compiler/gcc-arm-none-eabi-4_9-2015q3/bin/../lib/gcc/arm-none-eabi/4.9.3/../../../../arm-none-eabi/lib/armv7e-m/fpu/libc.a(lib_a-fini.o)
                0x0000000000010744                __libc_fini_array
 .text.__fputwc
                0x0000000000010770       0xb0 /Applications/ti/ccsv6/tools/compiler/gcc-arm-none-eabi-4_9-2015q3/bin/../lib/gcc/arm-none-eabi/4.9.3/../../../../arm-none-eabi/lib/armv7e-m/fpu/libc.a(lib_a-fputwc.o)
                0x0000000000010770                __fputwc
 .text._fputwc_r
                0x0000000000010820       0x24 /Applications/ti/ccsv6/tools/compiler/gcc-arm-none-eabi-4_9-2015q3/bin/../lib/gcc/arm-none-eabi/4.9.3/../../../../arm-none-eabi/lib/armv7e-m/fpu/libc.a(lib_a-fputwc.o)
                0x0000000000010820                _fputwc_r
 .text._malloc_trim_r
                0x0000000000010844       0x9c /Applications/ti/ccsv6/tools/compiler/gcc-arm-none-eabi-4_9-2015q3/bin/../lib/gcc/arm-none-eabi/4.9.3/../../../../arm-none-eabi/lib/armv7e-m/fpu/libc.a(lib_a-freer.o)
                0x0000000000010844                _malloc_trim_r
 .text._free_r  0x00000000000108e0      0x1b0 /Applications/ti/ccsv6/tools/compiler/gcc-arm-none-eabi-4_9-2015q3/bin/../lib/gcc/arm-none-eabi/4.9.3/../../../../arm-none-eabi/lib/armv7e-m/fpu/libc.a(lib_a-freer.o)
                0x00000000000108e0                _free_r
 .text.__sfvwrite_r
                0x0000000000010a90      0x318 /Applications/ti/ccsv6/tools/compiler/gcc-arm-none-eabi-4_9-2015q3/bin/../lib/gcc/arm-none-eabi/4.9.3/../../../../arm-none-eabi/lib/armv7e-m/fpu/libc.a(lib_a-fvwrite.o)
                0x0000000000010a90                __sfvwrite_r
 .text._fwalk_reent
                0x0000000000010da8       0x54 /Applications/ti/ccsv6/tools/compiler/gcc-arm-none-eabi-4_9-2015q3/bin/../lib/gcc/arm-none-eabi/4.9.3/../../../../arm-none-eabi/lib/armv7e-m/fpu/libc.a(lib_a-fwalk.o)
                0x0000000000010da8                _fwalk_reent
 .text.iswspace
                0x0000000000010dfc       0x1c /Applications/ti/ccsv6/tools/compiler/gcc-arm-none-eabi-4_9-2015q3/bin/../lib/gcc/arm-none-eabi/4.9.3/../../../../arm-none-eabi/lib/armv7e-m/fpu/libc.a(lib_a-iswspace.o)
                0x0000000000010dfc                iswspace
 .text.__locale_charset
                0x0000000000010e18        0x8 /Applications/ti/ccsv6/tools/compiler/gcc-arm-none-eabi-4_9-2015q3/bin/../lib/gcc/arm-none-eabi/4.9.3/../../../../arm-none-eabi/lib/armv7e-m/fpu/libc.a(lib_a-locale.o)
                0x0000000000010e18                __locale_charset
 .text.__locale_mb_cur_max
                0x0000000000010e20        0xc /Applications/ti/ccsv6/tools/compiler/gcc-arm-none-eabi-4_9-2015q3/bin/../lib/gcc/arm-none-eabi/4.9.3/../../../../arm-none-eabi/lib/armv7e-m/fpu/libc.a(lib_a-locale.o)
                0x0000000000010e20                __locale_mb_cur_max
 .text._localeconv_r
                0x0000000000010e2c        0x8 /Applications/ti/ccsv6/tools/compiler/gcc-arm-none-eabi-4_9-2015q3/bin/../lib/gcc/arm-none-eabi/4.9.3/../../../../arm-none-eabi/lib/armv7e-m/fpu/libc.a(lib_a-locale.o)
                0x0000000000010e2c                _localeconv_r
 .text._lseek_r
                0x0000000000010e34       0x28 /Applications/ti/ccsv6/tools/compiler/gcc-arm-none-eabi-4_9-2015q3/bin/../lib/gcc/arm-none-eabi/4.9.3/../../../../arm-none-eabi/lib/armv7e-m/fpu/libc.a(lib_a-lseekr.o)
                0x0000000000010e34                _lseek_r
 .text.__smakebuf_r
                0x0000000000010e5c       0xe0 /Applications/ti/ccsv6/tools/compiler/gcc-arm-none-eabi-4_9-2015q3/bin/../lib/gcc/arm-none-eabi/4.9.3/../../../../arm-none-eabi/lib/armv7e-m/fpu/libc.a(lib_a-makebuf.o)
                0x0000000000010e5c                __smakebuf_r
 .text._mbrtowc_r
                0x0000000000010f3c       0x5c /Applications/ti/ccsv6/tools/compiler/gcc-arm-none-eabi-4_9-2015q3/bin/../lib/gcc/arm-none-eabi/4.9.3/../../../../arm-none-eabi/lib/armv7e-m/fpu/libc.a(lib_a-mbrtowc.o)
                0x0000000000010f3c                _mbrtowc_r
 .text.__ascii_mbtowc
                0x0000000000010f98       0x2c /Applications/ti/ccsv6/tools/compiler/gcc-arm-none-eabi-4_9-2015q3/bin/../lib/gcc/arm-none-eabi/4.9.3/../../../../arm-none-eabi/lib/armv7e-m/fpu/libc.a(lib_a-mbtowc_r.o)
                0x0000000000010f98                __ascii_mbtowc
 .text.memchr   0x0000000000010fc4       0x94 /Applications/ti/ccsv6/tools/compiler/gcc-arm-none-eabi-4_9-2015q3/bin/../lib/gcc/arm-none-eabi/4.9.3/../../../../arm-none-eabi/lib/armv7e-m/fpu/libc.a(lib_a-memchr.o)
                0x0000000000010fc4                memchr
 .text.memmove  0x0000000000011058       0xc8 /Applications/ti/ccsv6/tools/compiler/gcc-arm-none-eabi-4_9-2015q3/bin/../lib/gcc/arm-none-eabi/4.9.3/../../../../arm-none-eabi/lib/armv7e-m/fpu/libc.a(lib_a-memmove.o)
                0x0000000000011058                memmove
 .text._Balloc  0x0000000000011120       0x4c /Applications/ti/ccsv6/tools/compiler/gcc-arm-none-eabi-4_9-2015q3/bin/../lib/gcc/arm-none-eabi/4.9.3/../../../../arm-none-eabi/lib/armv7e-m/fpu/libc.a(lib_a-mprec.o)
                0x0000000000011120                _Balloc
 .text._Bfree   0x000000000001116c       0x14 /Applications/ti/ccsv6/tools/compiler/gcc-arm-none-eabi-4_9-2015q3/bin/../lib/gcc/arm-none-eabi/4.9.3/../../../../arm-none-eabi/lib/armv7e-m/fpu/libc.a(lib_a-mprec.o)
                0x000000000001116c                _Bfree
 .text.__multadd
                0x0000000000011180       0x84 /Applications/ti/ccsv6/tools/compiler/gcc-arm-none-eabi-4_9-2015q3/bin/../lib/gcc/arm-none-eabi/4.9.3/../../../../arm-none-eabi/lib/armv7e-m/fpu/libc.a(lib_a-mprec.o)
                0x0000000000011180                __multadd
 .text.__s2b    0x0000000000011204       0x98 /Applications/ti/ccsv6/tools/compiler/gcc-arm-none-eabi-4_9-2015q3/bin/../lib/gcc/arm-none-eabi/4.9.3/../../../../arm-none-eabi/lib/armv7e-m/fpu/libc.a(lib_a-mprec.o)
                0x0000000000011204                __s2b
 .text.__hi0bits
                0x000000000001129c       0x40 /Applications/ti/ccsv6/tools/compiler/gcc-arm-none-eabi-4_9-2015q3/bin/../lib/gcc/arm-none-eabi/4.9.3/../../../../arm-none-eabi/lib/armv7e-m/fpu/libc.a(lib_a-mprec.o)
                0x000000000001129c                __hi0bits
 .text.__lo0bits
                0x00000000000112dc       0x5c /Applications/ti/ccsv6/tools/compiler/gcc-arm-none-eabi-4_9-2015q3/bin/../lib/gcc/arm-none-eabi/4.9.3/../../../../arm-none-eabi/lib/armv7e-m/fpu/libc.a(lib_a-mprec.o)
                0x00000000000112dc                __lo0bits
 .text.__i2b    0x0000000000011338       0x14 /Applications/ti/ccsv6/tools/compiler/gcc-arm-none-eabi-4_9-2015q3/bin/../lib/gcc/arm-none-eabi/4.9.3/../../../../arm-none-eabi/lib/armv7e-m/fpu/libc.a(lib_a-mprec.o)
                0x0000000000011338                __i2b
 .text.__multiply
                0x000000000001134c      0x134 /Applications/ti/ccsv6/tools/compiler/gcc-arm-none-eabi-4_9-2015q3/bin/../lib/gcc/arm-none-eabi/4.9.3/../../../../arm-none-eabi/lib/armv7e-m/fpu/libc.a(lib_a-mprec.o)
                0x000000000001134c                __multiply
 .text.__pow5mult
                0x0000000000011480       0xa0 /Applications/ti/ccsv6/tools/compiler/gcc-arm-none-eabi-4_9-2015q3/bin/../lib/gcc/arm-none-eabi/4.9.3/../../../../arm-none-eabi/lib/armv7e-m/fpu/libc.a(lib_a-mprec.o)
                0x0000000000011480                __pow5mult
 .text.__lshift
                0x0000000000011520       0xac /Applications/ti/ccsv6/tools/compiler/gcc-arm-none-eabi-4_9-2015q3/bin/../lib/gcc/arm-none-eabi/4.9.3/../../../../arm-none-eabi/lib/armv7e-m/fpu/libc.a(lib_a-mprec.o)
                0x0000000000011520                __lshift
 .text.__mcmp   0x00000000000115cc       0x48 /Applications/ti/ccsv6/tools/compiler/gcc-arm-none-eabi-4_9-2015q3/bin/../lib/gcc/arm-none-eabi/4.9.3/../../../../arm-none-eabi/lib/armv7e-m/fpu/libc.a(lib_a-mprec.o)
                0x00000000000115cc                __mcmp
 .text.__mdiff  0x0000000000011614       0xd4 /Applications/ti/ccsv6/tools/compiler/gcc-arm-none-eabi-4_9-2015q3/bin/../lib/gcc/arm-none-eabi/4.9.3/../../../../arm-none-eabi/lib/armv7e-m/fpu/libc.a(lib_a-mprec.o)
                0x0000000000011614                __mdiff
 .text.__ulp    0x00000000000116e8       0x50 /Applications/ti/ccsv6/tools/compiler/gcc-arm-none-eabi-4_9-2015q3/bin/../lib/gcc/arm-none-eabi/4.9.3/../../../../arm-none-eabi/lib/armv7e-m/fpu/libc.a(lib_a-mprec.o)
                0x00000000000116e8                __ulp
 .text.__b2d    0x0000000000011738       0xc4 /Applications/ti/ccsv6/tools/compiler/gcc-arm-none-eabi-4_9-2015q3/bin/../lib/gcc/arm-none-eabi/4.9.3/../../../../arm-none-eabi/lib/armv7e-m/fpu/libc.a(lib_a-mprec.o)
                0x0000000000011738                __b2d
 .text.__d2b    0x00000000000117fc       0xbc /Applications/ti/ccsv6/tools/compiler/gcc-arm-none-eabi-4_9-2015q3/bin/../lib/gcc/arm-none-eabi/4.9.3/../../../../arm-none-eabi/lib/armv7e-m/fpu/libc.a(lib_a-mprec.o)
                0x00000000000117fc                __d2b
 .text.__ratio  0x00000000000118b8       0x60 /Applications/ti/ccsv6/tools/compiler/gcc-arm-none-eabi-4_9-2015q3/bin/../lib/gcc/arm-none-eabi/4.9.3/../../../../arm-none-eabi/lib/armv7e-m/fpu/libc.a(lib_a-mprec.o)
                0x00000000000118b8                __ratio
 .text.__copybits
                0x0000000000011918       0x48 /Applications/ti/ccsv6/tools/compiler/gcc-arm-none-eabi-4_9-2015q3/bin/../lib/gcc/arm-none-eabi/4.9.3/../../../../arm-none-eabi/lib/armv7e-m/fpu/libc.a(lib_a-mprec.o)
                0x0000000000011918                __copybits
 .text.__any_on
                0x0000000000011960       0x60 /Applications/ti/ccsv6/tools/compiler/gcc-arm-none-eabi-4_9-2015q3/bin/../lib/gcc/arm-none-eabi/4.9.3/../../../../arm-none-eabi/lib/armv7e-m/fpu/libc.a(lib_a-mprec.o)
                0x0000000000011960                __any_on
 .text._read_r  0x00000000000119c0       0x28 /Applications/ti/ccsv6/tools/compiler/gcc-arm-none-eabi-4_9-2015q3/bin/../lib/gcc/arm-none-eabi/4.9.3/../../../../arm-none-eabi/lib/armv7e-m/fpu/libc.a(lib_a-readr.o)
                0x00000000000119c0                _read_r
 .text.__sccl   0x00000000000119e8       0x78 /Applications/ti/ccsv6/tools/compiler/gcc-arm-none-eabi-4_9-2015q3/bin/../lib/gcc/arm-none-eabi/4.9.3/../../../../arm-none-eabi/lib/armv7e-m/fpu/libc.a(lib_a-sccl.o)
                0x00000000000119e8                __sccl
 .text.nanf     0x0000000000011a60        0xc /Applications/ti/ccsv6/tools/compiler/gcc-arm-none-eabi-4_9-2015q3/bin/../lib/gcc/arm-none-eabi/4.9.3/../../../../arm-none-eabi/lib/armv7e-m/fpu/libc.a(lib_a-sf_nan.o)
                0x0000000000011a60                nanf
 .text._raise_r
                0x0000000000011a6c       0x58 /Applications/ti/ccsv6/tools/compiler/gcc-arm-none-eabi-4_9-2015q3/bin/../lib/gcc/arm-none-eabi/4.9.3/../../../../arm-none-eabi/lib/armv7e-m/fpu/libc.a(lib_a-signal.o)
                0x0000000000011a6c                _raise_r
 .text.raise    0x0000000000011ac4       0x10 /Applications/ti/ccsv6/tools/compiler/gcc-arm-none-eabi-4_9-2015q3/bin/../lib/gcc/arm-none-eabi/4.9.3/../../../../arm-none-eabi/lib/armv7e-m/fpu/libc.a(lib_a-signal.o)
                0x0000000000011ac4                raise
 .text._kill_r  0x0000000000011ad4       0x28 /Applications/ti/ccsv6/tools/compiler/gcc-arm-none-eabi-4_9-2015q3/bin/../lib/gcc/arm-none-eabi/4.9.3/../../../../arm-none-eabi/lib/armv7e-m/fpu/libc.a(lib_a-signalr.o)
                0x0000000000011ad4                _kill_r
 .text._getpid_r
                0x0000000000011afc        0x4 /Applications/ti/ccsv6/tools/compiler/gcc-arm-none-eabi-4_9-2015q3/bin/../lib/gcc/arm-none-eabi/4.9.3/../../../../arm-none-eabi/lib/armv7e-m/fpu/libc.a(lib_a-signalr.o)
                0x0000000000011afc                _getpid_r
 .text.sulp     0x0000000000011b00       0x40 /Applications/ti/ccsv6/tools/compiler/gcc-arm-none-eabi-4_9-2015q3/bin/../lib/gcc/arm-none-eabi/4.9.3/../../../../arm-none-eabi/lib/armv7e-m/fpu/libc.a(lib_a-strtod.o)
 .text._strtod_r
                0x0000000000011b40      0xf4c /Applications/ti/ccsv6/tools/compiler/gcc-arm-none-eabi-4_9-2015q3/bin/../lib/gcc/arm-none-eabi/4.9.3/../../../../arm-none-eabi/lib/armv7e-m/fpu/libc.a(lib_a-strtod.o)
                0x0000000000011b40                _strtod_r
 .text._strtol_r
                0x0000000000012a8c      0x11c /Applications/ti/ccsv6/tools/compiler/gcc-arm-none-eabi-4_9-2015q3/bin/../lib/gcc/arm-none-eabi/4.9.3/../../../../arm-none-eabi/lib/armv7e-m/fpu/libc.a(lib_a-strtol.o)
                0x0000000000012a8c                _strtol_r
 .text._strtoll_r
                0x0000000000012ba8      0x1cc /Applications/ti/ccsv6/tools/compiler/gcc-arm-none-eabi-4_9-2015q3/bin/../lib/gcc/arm-none-eabi/4.9.3/../../../../arm-none-eabi/lib/armv7e-m/fpu/libc.a(lib_a-strtoll_r.o)
                0x0000000000012ba8                _strtoll_r
 .text.__ssprint_r
                0x0000000000012d74      0x104 /Applications/ti/ccsv6/tools/compiler/gcc-arm-none-eabi-4_9-2015q3/bin/../lib/gcc/arm-none-eabi/4.9.3/../../../../arm-none-eabi/lib/armv7e-m/fpu/libc.a(lib_a-svfiprintf.o)
                0x0000000000012d74                __ssprint_r
 .text._sungetc_r
                0x0000000000012e78       0x88 /Applications/ti/ccsv6/tools/compiler/gcc-arm-none-eabi-4_9-2015q3/bin/../lib/gcc/arm-none-eabi/4.9.3/../../../../arm-none-eabi/lib/armv7e-m/fpu/libc.a(lib_a-svfiscanf.o)
                0x0000000000012e78                _sungetc_r
 .text.__ssrefill_r
                0x0000000000012f00       0x3c /Applications/ti/ccsv6/tools/compiler/gcc-arm-none-eabi-4_9-2015q3/bin/../lib/gcc/arm-none-eabi/4.9.3/../../../../arm-none-eabi/lib/armv7e-m/fpu/libc.a(lib_a-svfiscanf.o)
                0x0000000000012f00                __ssrefill_r
 .text._sfread_r
                0x0000000000012f3c       0x80 /Applications/ti/ccsv6/tools/compiler/gcc-arm-none-eabi-4_9-2015q3/bin/../lib/gcc/arm-none-eabi/4.9.3/../../../../arm-none-eabi/lib/armv7e-m/fpu/libc.a(lib_a-svfiscanf.o)
                0x0000000000012f3c                _sfread_r
 .text.__submore
                0x0000000000012fbc       0x78 /Applications/ti/ccsv6/tools/compiler/gcc-arm-none-eabi-4_9-2015q3/bin/../lib/gcc/arm-none-eabi/4.9.3/../../../../arm-none-eabi/lib/armv7e-m/fpu/libc.a(lib_a-ungetc.o)
                0x0000000000012fbc                __submore
 .text.__swbuf_r
                0x0000000000013034       0xa8 /Applications/ti/ccsv6/tools/compiler/gcc-arm-none-eabi-4_9-2015q3/bin/../lib/gcc/arm-none-eabi/4.9.3/../../../../arm-none-eabi/lib/armv7e-m/fpu/libc.a(lib_a-wbuf.o)
                0x0000000000013034                __swbuf_r
 .text._wcrtomb_r
                0x00000000000130dc       0x54 /Applications/ti/ccsv6/tools/compiler/gcc-arm-none-eabi-4_9-2015q3/bin/../lib/gcc/arm-none-eabi/4.9.3/../../../../arm-none-eabi/lib/armv7e-m/fpu/libc.a(lib_a-wcrtomb.o)
                0x00000000000130dc                _wcrtomb_r
 .text.__ascii_wctomb
                0x0000000000013130       0x1c /Applications/ti/ccsv6/tools/compiler/gcc-arm-none-eabi-4_9-2015q3/bin/../lib/gcc/arm-none-eabi/4.9.3/../../../../arm-none-eabi/lib/armv7e-m/fpu/libc.a(lib_a-wctomb_r.o)
                0x0000000000013130                __ascii_wctomb
 .text.__register_exitproc
                0x000000000001314c       0xa4 /Applications/ti/ccsv6/tools/compiler/gcc-arm-none-eabi-4_9-2015q3/bin/../lib/gcc/arm-none-eabi/4.9.3/../../../../arm-none-eabi/lib/armv7e-m/fpu/libc.a(lib_a-__atexit.o)
                0x000000000001314c                __register_exitproc
 .text._fclose_r
                0x00000000000131f0       0x84 /Applications/ti/ccsv6/tools/compiler/gcc-arm-none-eabi-4_9-2015q3/bin/../lib/gcc/arm-none-eabi/4.9.3/../../../../arm-none-eabi/lib/armv7e-m/fpu/libc.a(lib_a-fclose.o)
                0x00000000000131f0                _fclose_r
 .text._fstat_r
                0x0000000000013274       0x28 /Applications/ti/ccsv6/tools/compiler/gcc-arm-none-eabi-4_9-2015q3/bin/../lib/gcc/arm-none-eabi/4.9.3/../../../../arm-none-eabi/lib/armv7e-m/fpu/libc.a(lib_a-fstatr.o)
                0x0000000000013274                _fstat_r
 .text.rshift   0x000000000001329c       0xa0 /Applications/ti/ccsv6/tools/compiler/gcc-arm-none-eabi-4_9-2015q3/bin/../lib/gcc/arm-none-eabi/4.9.3/../../../../arm-none-eabi/lib/armv7e-m/fpu/libc.a(lib_a-gdtoa-gethex.o)
 .text.__gethex
                0x000000000001333c      0x514 /Applications/ti/ccsv6/tools/compiler/gcc-arm-none-eabi-4_9-2015q3/bin/../lib/gcc/arm-none-eabi/4.9.3/../../../../arm-none-eabi/lib/armv7e-m/fpu/libc.a(lib_a-gdtoa-gethex.o)
                0x000000000001333c                __gethex
 .text.__hexnan
                0x0000000000013850      0x184 /Applications/ti/ccsv6/tools/compiler/gcc-arm-none-eabi-4_9-2015q3/bin/../lib/gcc/arm-none-eabi/4.9.3/../../../../arm-none-eabi/lib/armv7e-m/fpu/libc.a(lib_a-gdtoa-hexnan.o)
                0x0000000000013850                __hexnan
 .text._isatty_r
                0x00000000000139d4       0x24 /Applications/ti/ccsv6/tools/compiler/gcc-arm-none-eabi-4_9-2015q3/bin/../lib/gcc/arm-none-eabi/4.9.3/../../../../arm-none-eabi/lib/armv7e-m/fpu/libc.a(lib_a-isattyr.o)
                0x00000000000139d4                _isatty_r
 .text._close   0x00000000000139f8       0x10 /Applications/ti/ccsv6/tools/compiler/gcc-arm-none-eabi-4_9-2015q3/bin/../lib/gcc/arm-none-eabi/4.9.3/../../../../arm-none-eabi/lib/armv7e-m/fpu/libnosys.a(close.o)
                0x00000000000139f8                _close
 .text._fstat   0x0000000000013a08       0x10 /Applications/ti/ccsv6/tools/compiler/gcc-arm-none-eabi-4_9-2015q3/bin/../lib/gcc/arm-none-eabi/4.9.3/../../../../arm-none-eabi/lib/armv7e-m/fpu/libnosys.a(fstat.o)
                0x0000000000013a08                _fstat
 .text._getpid  0x0000000000013a18       0x10 /Applications/ti/ccsv6/tools/compiler/gcc-arm-none-eabi-4_9-2015q3/bin/../lib/gcc/arm-none-eabi/4.9.3/../../../../arm-none-eabi/lib/armv7e-m/fpu/libnosys.a(getpid.o)
                0x0000000000013a18                _getpid
 .text._isatty  0x0000000000013a28       0x10 /Applications/ti/ccsv6/tools/compiler/gcc-arm-none-eabi-4_9-2015q3/bin/../lib/gcc/arm-none-eabi/4.9.3/../../../../arm-none-eabi/lib/armv7e-m/fpu/libnosys.a(isatty.o)
                0x0000000000013a28                _isatty
 .text._kill    0x0000000000013a38       0x10 /Applications/ti/ccsv6/tools/compiler/gcc-arm-none-eabi-4_9-2015q3/bin/../lib/gcc/arm-none-eabi/4.9.3/../../../../arm-none-eabi/lib/armv7e-m/fpu/libnosys.a(kill.o)
                0x0000000000013a38                _kill
 .text._lseek   0x0000000000013a48       0x10 /Applications/ti/ccsv6/tools/compiler/gcc-arm-none-eabi-4_9-2015q3/bin/../lib/gcc/arm-none-eabi/4.9.3/../../../../arm-none-eabi/lib/armv7e-m/fpu/libnosys.a(lseek.o)
                0x0000000000013a48                _lseek
 .text._read    0x0000000000013a58       0x10 /Applications/ti/ccsv6/tools/compiler/gcc-arm-none-eabi-4_9-2015q3/bin/../lib/gcc/arm-none-eabi/4.9.3/../../../../arm-none-eabi/lib/armv7e-m/fpu/libnosys.a(read.o)
                0x0000000000013a58                _read
 .text._sbrk    0x0000000000013a68       0x1c /Applications/ti/ccsv6/tools/compiler/gcc-arm-none-eabi-4_9-2015q3/bin/../lib/gcc/arm-none-eabi/4.9.3/../../../../arm-none-eabi/lib/armv7e-m/fpu/libnosys.a(sbrk.o)
                0x0000000000013a68                _sbrk
 .text._exit    0x0000000000013a84        0x4 /Applications/ti/ccsv6/tools/compiler/gcc-arm-none-eabi-4_9-2015q3/bin/../lib/gcc/arm-none-eabi/4.9.3/../../../../arm-none-eabi/lib/armv7e-m/fpu/libnosys.a(_exit.o)
                0x0000000000013a84                _exit
                0x0000000000013a88                . = ALIGN (0x4)
 *(.ctors)
                0x0000000000013a88                . = ALIGN (0x4)
 *(.dtors)
                0x0000000000013a88                . = ALIGN (0x4)
                0x0000000000013a88                __init_array_start = .
 *(.init_array*)
 .init_array    0x0000000000013a88        0x4 /Applications/ti/ccsv6/tools/compiler/gcc-arm-none-eabi-4_9-2015q3/bin/../lib/gcc/arm-none-eabi/4.9.3/armv7e-m/fpu/crtbegin.o
 .init_array.00000
                0x0000000000013a8c        0x4 /Applications/ti/ccsv6/tools/compiler/gcc-arm-none-eabi-4_9-2015q3/bin/../lib/gcc/arm-none-eabi/4.9.3/../../../../arm-none-eabi/lib/armv7e-m/fpu/libc.a(lib_a-__call_atexit.o)
                0x0000000000013a90                __init_array_end = .
 *(.init)
 .init          0x0000000000013a90        0x4 /Applications/ti/ccsv6/tools/compiler/gcc-arm-none-eabi-4_9-2015q3/bin/../lib/gcc/arm-none-eabi/4.9.3/armv7e-m/fpu/crti.o
                0x0000000000013a90                _init
 *(.fini*)
 .fini          0x0000000000013a94        0x4 /Applications/ti/ccsv6/tools/compiler/gcc-arm-none-eabi-4_9-2015q3/bin/../lib/gcc/arm-none-eabi/4.9.3/armv7e-m/fpu/crti.o
                0x0000000000013a94                _fini

.glue_7         0x0000000000013a98        0x0
 .glue_7        0x0000000000000000        0x0 linker stubs

.glue_7t        0x0000000000013a98        0x0
 .glue_7t       0x0000000000000000        0x0 linker stubs

.vfp11_veneer   0x0000000000013a98        0x0
 .vfp11_veneer  0x0000000000000000        0x0 linker stubs

.v4_bx          0x0000000000013a98        0x0
 .v4_bx         0x0000000000000000        0x0 linker stubs

.iplt           0x0000000000013a98        0x0
 .iplt          0x0000000000000000        0x0 /Applications/ti/ccsv6/tools/compiler/gcc-arm-none-eabi-4_9-2015q3/bin/../lib/gcc/arm-none-eabi/4.9.3/armv7e-m/fpu/crtbegin.o

.text:GPIO_setOutputLowOnPin
                0x0000000000013a98       0x18
 .text:GPIO_setOutputLowOnPin
                0x0000000000013a98       0x18 /Users/snowyang/workspace/MSP432_DriverLib_3_10_00_09/driverlib/MSP432P4xx/ccs/msp432p4xx_driverlib.lib(gpio.o)
                0x0000000000013a98                GPIO_setOutputLowOnPin

.text:GPIO_setOutputHighOnPin
                0x0000000000013ab0       0x14
 .text:GPIO_setOutputHighOnPin
                0x0000000000013ab0       0x14 /Users/snowyang/workspace/MSP432_DriverLib_3_10_00_09/driverlib/MSP432P4xx/ccs/msp432p4xx_driverlib.lib(gpio.o)
                0x0000000000013ab0                GPIO_setOutputHighOnPin

.text:GPIO_setAsPeripheralModuleFunctionOutputPin
                0x0000000000013ac4       0x4c
 .text:GPIO_setAsPeripheralModuleFunctionOutputPin
                0x0000000000013ac4       0x4c /Users/snowyang/workspace/MSP432_DriverLib_3_10_00_09/driverlib/MSP432P4xx/ccs/msp432p4xx_driverlib.lib(gpio.o)
                0x0000000000013ac4                GPIO_setAsPeripheralModuleFunctionOutputPin

.text:GPIO_setAsPeripheralModuleFunctionInputPin
                0x0000000000013b10       0x48
 .text:GPIO_setAsPeripheralModuleFunctionInputPin
                0x0000000000013b10       0x48 /Users/snowyang/workspace/MSP432_DriverLib_3_10_00_09/driverlib/MSP432P4xx/ccs/msp432p4xx_driverlib.lib(gpio.o)
                0x0000000000013b10                GPIO_setAsPeripheralModuleFunctionInputPin

.text:GPIO_setAsOutputPin
                0x0000000000013b58       0x24
 .text:GPIO_setAsOutputPin
                0x0000000000013b58       0x24 /Users/snowyang/workspace/MSP432_DriverLib_3_10_00_09/driverlib/MSP432P4xx/ccs/msp432p4xx_driverlib.lib(gpio.o)
                0x0000000000013b58                GPIO_setAsOutputPin

.text:GPIO_setAsInputPinWithPullUpResistor
                0x0000000000013b7c       0x30
 .text:GPIO_setAsInputPinWithPullUpResistor
                0x0000000000013b7c       0x30 /Users/snowyang/workspace/MSP432_DriverLib_3_10_00_09/driverlib/MSP432P4xx/ccs/msp432p4xx_driverlib.lib(gpio.o)
                0x0000000000013b7c                GPIO_setAsInputPinWithPullUpResistor

.text:GPIO_interruptEdgeSelect
                0x0000000000013bac       0x20
 .text:GPIO_interruptEdgeSelect
                0x0000000000013bac       0x20 /Users/snowyang/workspace/MSP432_DriverLib_3_10_00_09/driverlib/MSP432P4xx/ccs/msp432p4xx_driverlib.lib(gpio.o)
                0x0000000000013bac                GPIO_interruptEdgeSelect

.text:GPIO_getInterruptStatus
                0x0000000000013bcc       0x10
 .text:GPIO_getInterruptStatus
                0x0000000000013bcc       0x10 /Users/snowyang/workspace/MSP432_DriverLib_3_10_00_09/driverlib/MSP432P4xx/ccs/msp432p4xx_driverlib.lib(gpio.o)
                0x0000000000013bcc                GPIO_getInterruptStatus

.text:GPIO_getInputPinValue
                0x0000000000013bdc       0x18
 .text:GPIO_getInputPinValue
                0x0000000000013bdc       0x18 /Users/snowyang/workspace/MSP432_DriverLib_3_10_00_09/driverlib/MSP432P4xx/ccs/msp432p4xx_driverlib.lib(gpio.o)
                0x0000000000013bdc                GPIO_getInputPinValue

.text:GPIO_enableInterrupt
                0x0000000000013bf4       0x14
 .text:GPIO_enableInterrupt
                0x0000000000013bf4       0x14 /Users/snowyang/workspace/MSP432_DriverLib_3_10_00_09/driverlib/MSP432P4xx/ccs/msp432p4xx_driverlib.lib(gpio.o)
                0x0000000000013bf4                GPIO_enableInterrupt

.text:GPIO_clearInterruptFlag
                0x0000000000013c08       0x18
 .text:GPIO_clearInterruptFlag
                0x0000000000013c08       0x18 /Users/snowyang/workspace/MSP432_DriverLib_3_10_00_09/driverlib/MSP432P4xx/ccs/msp432p4xx_driverlib.lib(gpio.o)
                0x0000000000013c08                GPIO_clearInterruptFlag

.text:I2C_setSlaveAddress
                0x0000000000013c20        0x4
 .text:I2C_setSlaveAddress
                0x0000000000013c20        0x4 /Users/snowyang/workspace/MSP432_DriverLib_3_10_00_09/driverlib/MSP432P4xx/ccs/msp432p4xx_driverlib.lib(i2c.o)
                0x0000000000013c20                I2C_setSlaveAddress

.text:I2C_masterSendMultiByteStop
                0x0000000000013c24       0x30
 .text:I2C_masterSendMultiByteStop
                0x0000000000013c24       0x30 /Users/snowyang/workspace/MSP432_DriverLib_3_10_00_09/driverlib/MSP432P4xx/ccs/msp432p4xx_driverlib.lib(i2c.o)
                0x0000000000013c24                I2C_masterSendMultiByteStop

.text:I2C_masterSendMultiByteStart
                0x0000000000013c54       0x38
 .text:I2C_masterSendMultiByteStart
                0x0000000000013c54       0x38 /Users/snowyang/workspace/MSP432_DriverLib_3_10_00_09/driverlib/MSP432P4xx/ccs/msp432p4xx_driverlib.lib(i2c.o)
                0x0000000000013c54                I2C_masterSendMultiByteStart

.text:I2C_masterReceiveStart
                0x0000000000013c8c       0x10
 .text:I2C_masterReceiveStart
                0x0000000000013c8c       0x10 /Users/snowyang/workspace/MSP432_DriverLib_3_10_00_09/driverlib/MSP432P4xx/ccs/msp432p4xx_driverlib.lib(i2c.o)
                0x0000000000013c8c                I2C_masterReceiveStart

.text:I2C_masterReceiveSingle
                0x0000000000013c9c       0x24
 .text:I2C_masterReceiveSingle
                0x0000000000013c9c       0x24 /Users/snowyang/workspace/MSP432_DriverLib_3_10_00_09/driverlib/MSP432P4xx/ccs/msp432p4xx_driverlib.lib(i2c.o)
                0x0000000000013c9c                I2C_masterReceiveSingle

.text:I2C_masterReceiveMultiByteStop
                0x0000000000013cc0       0x10
 .text:I2C_masterReceiveMultiByteStop
                0x0000000000013cc0       0x10 /Users/snowyang/workspace/MSP432_DriverLib_3_10_00_09/driverlib/MSP432P4xx/ccs/msp432p4xx_driverlib.lib(i2c.o)
                0x0000000000013cc0                I2C_masterReceiveMultiByteStop

.text:I2C_masterReceiveMultiByteFinish
                0x0000000000013cd0       0x30
 .text:I2C_masterReceiveMultiByteFinish
                0x0000000000013cd0       0x30 /Users/snowyang/workspace/MSP432_DriverLib_3_10_00_09/driverlib/MSP432P4xx/ccs/msp432p4xx_driverlib.lib(i2c.o)
                0x0000000000013cd0                I2C_masterReceiveMultiByteFinish

.text:I2C_masterIsStopSent
                0x0000000000013d00       0x10
 .text:I2C_masterIsStopSent
                0x0000000000013d00       0x10 /Users/snowyang/workspace/MSP432_DriverLib_3_10_00_09/driverlib/MSP432P4xx/ccs/msp432p4xx_driverlib.lib(i2c.o)
                0x0000000000013d00                I2C_masterIsStopSent

.text:I2C_masterIsStartSent
                0x0000000000013d10       0x18
 .text:I2C_masterIsStartSent
                0x0000000000013d10       0x18 /Users/snowyang/workspace/MSP432_DriverLib_3_10_00_09/driverlib/MSP432P4xx/ccs/msp432p4xx_driverlib.lib(i2c.o)
                0x0000000000013d10                I2C_masterIsStartSent

.text:I2C_getInterruptStatus
                0x0000000000013d28        0x6
 .text:I2C_getInterruptStatus
                0x0000000000013d28        0x6 /Users/snowyang/workspace/MSP432_DriverLib_3_10_00_09/driverlib/MSP432P4xx/ccs/msp432p4xx_driverlib.lib(i2c.o)
                0x0000000000013d28                I2C_getInterruptStatus

.text:I2C_clearInterruptFlag
                0x0000000000013d2e        0xe
 .text:I2C_clearInterruptFlag
                0x0000000000013d2e        0xe /Users/snowyang/workspace/MSP432_DriverLib_3_10_00_09/driverlib/MSP432P4xx/ccs/msp432p4xx_driverlib.lib(i2c.o)
                0x0000000000013d2e                I2C_clearInterruptFlag

.text:Interrupt_registerInterrupt
                0x0000000000013d3c       0x34
 .text:Interrupt_registerInterrupt
                0x0000000000013d3c       0x34 /Users/snowyang/workspace/MSP432_DriverLib_3_10_00_09/driverlib/MSP432P4xx/ccs/msp432p4xx_driverlib.lib(interrupt.o)
                0x0000000000013d3c                Interrupt_registerInterrupt

.text:Interrupt_enableInterrupt
                0x0000000000013d70       0x64
 .text:Interrupt_enableInterrupt
                0x0000000000013d70       0x64 /Users/snowyang/workspace/MSP432_DriverLib_3_10_00_09/driverlib/MSP432P4xx/ccs/msp432p4xx_driverlib.lib(interrupt.o)
                0x0000000000013d70                Interrupt_enableInterrupt

.text:UART_registerInterrupt
                0x0000000000013dd4       0x4c
 .text:UART_registerInterrupt
                0x0000000000013dd4       0x4c /Users/snowyang/workspace/MSP432_DriverLib_3_10_00_09/driverlib/MSP432P4xx/ccs/msp432p4xx_driverlib.lib(uart.o)
                0x0000000000013dd4                UART_registerInterrupt

.text:UART_getInterruptStatus
                0x0000000000013e20        0x6
 .text:UART_getInterruptStatus
                0x0000000000013e20        0x6 /Users/snowyang/workspace/MSP432_DriverLib_3_10_00_09/driverlib/MSP432P4xx/ccs/msp432p4xx_driverlib.lib(uart.o)
                0x0000000000013e20                UART_getInterruptStatus

.rodata         0x0000000000013e28     0x18d0
 *(.rodata)
 .rodata        0x0000000000013e28       0x93 ./app_console.o
 *fill*         0x0000000000013ebb        0x1 
 .rodata        0x0000000000013ebc       0x64 ./app_rgbled.o
 .rodata        0x0000000000013f20       0x48 ./app_sht20.o
 .rodata        0x0000000000013f68       0x10 ./app_switch.o
 .rodata        0x0000000000013f78      0x136 ./main.o
 *fill*         0x00000000000140ae        0x2 
 .rodata        0x00000000000140b0      0x26f ./Board/AliCloud_SDS/alicloud_sds.o
 *fill*         0x000000000001431f        0x1 
 .rodata        0x0000000000014320       0x43 ./Board/drv_VGM128064/oled.o
 *fill*         0x0000000000014363        0x1 
 .rodata        0x0000000000014364       0x4d ./Board/drv_board_test.o
 *fill*         0x00000000000143b1        0x3 
 .rodata        0x00000000000143b4       0x3d ./Board/drv_sht20/sht2x.o
 *fill*         0x00000000000143f1        0x3 
 .rodata        0x00000000000143f4       0x91 ./Board/helper/emhost/ATCmdParser/ATCmdParser.o
 *fill*         0x0000000000014485        0x3 
 .rodata        0x0000000000014488      0x18c ./Board/helper/emhost/emh_alisds.o
 .rodata        0x0000000000014614       0x7b ./Board/helper/emhost/emh_arg.o
 *fill*         0x000000000001468f        0x1 
 .rodata        0x0000000000014690       0x9a ./Board/helper/emhost/emh_module.o
 *fill*         0x000000000001472a        0x2 
 .rodata        0x000000000001472c       0x99 ./Board/helper/emhost/emh_wlan.o
 *fill*         0x00000000000147c5        0x3 
 .rodata        0x00000000000147c8       0x41 ./Board/helper/hal/mx_i2c.o
 *fill*         0x0000000000014809        0x3 
 .rodata        0x000000000001480c       0x39 ./Board/helper/jsmn/json_escape_str.o
 *fill*         0x0000000000014845        0x3 
 .rodata        0x0000000000014848      0x15a ./Board/helper/jsmn/json_generator.o
 *fill*         0x00000000000149a2        0x2 
 .rodata        0x00000000000149a4       0x4d ./Board/helper/mx_utils/mx_ringbuffer.o
 *fill*         0x00000000000149f1        0x3 
 .rodata        0x00000000000149f4       0x4e ./aos/soc_impl.o
 *fill*         0x0000000000014a42        0x2 
 .rodata        0x0000000000014a44        0xa ./core/k_sys.o
 *(.rodata.*)
 *fill*         0x0000000000014a4e        0x2 
 .rodata.oled_clear_line
                0x0000000000014a50       0x10 ./app_console.o
                0x0000000000014a50                oled_clear_line
 .rodata.alisds_config
                0x0000000000014a60       0x20 ./main.o
                0x0000000000014a60                alisds_config
 .rodata.__PRETTY_FUNCTION__.8520
                0x0000000000014a80        0x6 ./main.o
 *fill*         0x0000000000014a86        0x2 
 .rodata.__PRETTY_FUNCTION__.5607
                0x0000000000014a88        0xc ./Board/AliCloud_SDS/alicloud_sds.o
 .rodata.__PRETTY_FUNCTION__.5625
                0x0000000000014a94       0x19 ./Board/AliCloud_SDS/alicloud_sds.o
 *fill*         0x0000000000014aad        0x3 
 .rodata.__PRETTY_FUNCTION__.5643
                0x0000000000014ab0        0xf ./Board/AliCloud_SDS/alicloud_sds.o
 *fill*         0x0000000000014abf        0x1 
 .rodata.__PRETTY_FUNCTION__.5666
                0x0000000000014ac0       0x1d ./Board/AliCloud_SDS/alicloud_sds.o
 *fill*         0x0000000000014add        0x3 
 .rodata.__PRETTY_FUNCTION__.5696
                0x0000000000014ae0       0x1b ./Board/AliCloud_SDS/alicloud_sds.o
 *fill*         0x0000000000014afb        0x1 
 .rodata.__PRETTY_FUNCTION__.5728
                0x0000000000014afc       0x11 ./Board/AliCloud_SDS/alicloud_sds.o
 *fill*         0x0000000000014b0d        0x3 
 .rodata.F8X16  0x0000000000014b10      0x5f0 ./Board/drv_VGM128064/oled.o
                0x0000000000014b10                F8X16
 .rodata.__PRETTY_FUNCTION__.5294
                0x0000000000015100       0x13 ./Board/drv_sht20/sht2x.o
 *fill*         0x0000000000015113        0x1 
 .rodata.__PRETTY_FUNCTION__.5303
                0x0000000000015114       0x12 ./Board/drv_sht20/sht2x.o
 *fill*         0x0000000000015126        0x2 
 .rodata.__PRETTY_FUNCTION__.5404
                0x0000000000015128       0x19 ./Board/helper/emhost/emh_alisds.o
 *fill*         0x0000000000015141        0x3 
 .rodata.__PRETTY_FUNCTION__.5376
                0x0000000000015144       0x17 ./Board/helper/emhost/emh_wlan.o
 *fill*         0x000000000001515b        0x1 
 .rodata.i2cConfig
                0x000000000001515c       0x14 ./Board/helper/hal/mx_i2c.o
                0x000000000001515c                i2cConfig
 .rodata.__PRETTY_FUNCTION__.8201
                0x0000000000015170       0x15 ./Board/helper/hal/mx_i2c.o
 *fill*         0x0000000000015185        0x3 
 .rodata.at_uartConfig
                0x0000000000015188       0x24 ./Board/helper/hal/mx_serial.o
                0x0000000000015188                at_uartConfig
 .rodata.uartConfig
                0x00000000000151ac       0x24 ./Board/helper/hal/mx_stdio.o
                0x00000000000151ac                uartConfig
 .rodata.__PRETTY_FUNCTION__.5239
                0x00000000000151d0       0x10 ./Board/helper/mx_utils/mx_ringbuffer.o
 .rodata.__PRETTY_FUNCTION__.5246
                0x00000000000151e0        0xf ./Board/helper/mx_utils/mx_ringbuffer.o
 *fill*         0x00000000000151ef        0x1 
 .rodata.__PRETTY_FUNCTION__.5253
                0x00000000000151f0        0xf ./Board/helper/mx_utils/mx_ringbuffer.o
 *fill*         0x00000000000151ff        0x1 
 .rodata.__func__.5814
                0x0000000000015200        0xd ./aos/soc_impl.o
 *fill*         0x000000000001520d        0x3 
 .rodata.str1.4
                0x0000000000015210        0x4 /Applications/ti/ccsv6/tools/compiler/gcc-arm-none-eabi-4_9-2015q3/bin/../lib/gcc/arm-none-eabi/4.9.3/../../../../arm-none-eabi/lib/armv7e-m/fpu/libm.a(lib_a-w_pow.o)
 *fill*         0x0000000000015214        0x4 
 .rodata.dp_h   0x0000000000015218       0x10 /Applications/ti/ccsv6/tools/compiler/gcc-arm-none-eabi-4_9-2015q3/bin/../lib/gcc/arm-none-eabi/4.9.3/../../../../arm-none-eabi/lib/armv7e-m/fpu/libm.a(lib_a-e_pow.o)
 .rodata.dp_l   0x0000000000015228       0x10 /Applications/ti/ccsv6/tools/compiler/gcc-arm-none-eabi-4_9-2015q3/bin/../lib/gcc/arm-none-eabi/4.9.3/../../../../arm-none-eabi/lib/armv7e-m/fpu/libm.a(lib_a-e_pow.o)
 .rodata.bp     0x0000000000015238       0x10 /Applications/ti/ccsv6/tools/compiler/gcc-arm-none-eabi-4_9-2015q3/bin/../lib/gcc/arm-none-eabi/4.9.3/../../../../arm-none-eabi/lib/armv7e-m/fpu/libm.a(lib_a-e_pow.o)
 .rodata.str1.4
                0x0000000000000000        0x4 /Applications/ti/ccsv6/tools/compiler/gcc-arm-none-eabi-4_9-2015q3/bin/../lib/gcc/arm-none-eabi/4.9.3/../../../../arm-none-eabi/lib/armv7e-m/fpu/libm.a(lib_a-e_pow.o)
                                          0x1 (size before relaxing)
 .rodata.TWO52  0x0000000000015248       0x10 /Applications/ti/ccsv6/tools/compiler/gcc-arm-none-eabi-4_9-2015q3/bin/../lib/gcc/arm-none-eabi/4.9.3/../../../../arm-none-eabi/lib/armv7e-m/fpu/libm.a(lib_a-s_rint.o)
 .rodata.str1.4
                0x0000000000015258       0x3f /Applications/ti/ccsv6/tools/compiler/gcc-arm-none-eabi-4_9-2015q3/bin/../lib/gcc/arm-none-eabi/4.9.3/../../../../arm-none-eabi/lib/armv7e-m/fpu/libc.a(lib_a-assert.o)
                                         0x43 (size before relaxing)
 *fill*         0x0000000000015297        0x1 
 .rodata.str1.4
                0x0000000000015298        0x2 /Applications/ti/ccsv6/tools/compiler/gcc-arm-none-eabi-4_9-2015q3/bin/../lib/gcc/arm-none-eabi/4.9.3/../../../../arm-none-eabi/lib/armv7e-m/fpu/libc.a(lib_a-impure.o)
 *fill*         0x000000000001529a        0x2 
 .rodata._global_impure_ptr
                0x000000000001529c        0x4 /Applications/ti/ccsv6/tools/compiler/gcc-arm-none-eabi-4_9-2015q3/bin/../lib/gcc/arm-none-eabi/4.9.3/../../../../arm-none-eabi/lib/armv7e-m/fpu/libc.a(lib_a-impure.o)
                0x000000000001529c                _global_impure_ptr
 .rodata.str1.4
                0x00000000000152a0        0x2 /Applications/ti/ccsv6/tools/compiler/gcc-arm-none-eabi-4_9-2015q3/bin/../lib/gcc/arm-none-eabi/4.9.3/../../../../arm-none-eabi/lib/armv7e-m/fpu/libc.a(lib_a-puts.o)
 *fill*         0x00000000000152a2        0x2 
 .rodata.zeroes.6911
                0x00000000000152a4       0x10 /Applications/ti/ccsv6/tools/compiler/gcc-arm-none-eabi-4_9-2015q3/bin/../lib/gcc/arm-none-eabi/4.9.3/../../../../arm-none-eabi/lib/armv7e-m/fpu/libc.a(lib_a-svfprintf.o)
 .rodata.blanks.6910
                0x00000000000152b4       0x10 /Applications/ti/ccsv6/tools/compiler/gcc-arm-none-eabi-4_9-2015q3/bin/../lib/gcc/arm-none-eabi/4.9.3/../../../../arm-none-eabi/lib/armv7e-m/fpu/libc.a(lib_a-svfprintf.o)
 .rodata.str1.4
                0x00000000000152c4       0x42 /Applications/ti/ccsv6/tools/compiler/gcc-arm-none-eabi-4_9-2015q3/bin/../lib/gcc/arm-none-eabi/4.9.3/../../../../arm-none-eabi/lib/armv7e-m/fpu/libc.a(lib_a-svfprintf.o)
 *fill*         0x0000000000015306        0x2 
 .rodata.str1.4
                0x0000000000015308        0x5 /Applications/ti/ccsv6/tools/compiler/gcc-arm-none-eabi-4_9-2015q3/bin/../lib/gcc/arm-none-eabi/4.9.3/../../../../arm-none-eabi/lib/armv7e-m/fpu/libc.a(lib_a-svfscanf.o)
 *fill*         0x000000000001530d        0x3 
 .rodata.basefix.6862
                0x0000000000015310       0x22 /Applications/ti/ccsv6/tools/compiler/gcc-arm-none-eabi-4_9-2015q3/bin/../lib/gcc/arm-none-eabi/4.9.3/../../../../arm-none-eabi/lib/armv7e-m/fpu/libc.a(lib_a-svfscanf.o)
 *fill*         0x0000000000015332        0x2 
 .rodata.zeroes.6869
                0x0000000000015334       0x10 /Applications/ti/ccsv6/tools/compiler/gcc-arm-none-eabi-4_9-2015q3/bin/../lib/gcc/arm-none-eabi/4.9.3/../../../../arm-none-eabi/lib/armv7e-m/fpu/libc.a(lib_a-vfiprintf.o)
 .rodata.str1.4
                0x0000000000000000       0x2f /Applications/ti/ccsv6/tools/compiler/gcc-arm-none-eabi-4_9-2015q3/bin/../lib/gcc/arm-none-eabi/4.9.3/../../../../arm-none-eabi/lib/armv7e-m/fpu/libc.a(lib_a-vfiprintf.o)
 .rodata.blanks.6868
                0x0000000000015344       0x10 /Applications/ti/ccsv6/tools/compiler/gcc-arm-none-eabi-4_9-2015q3/bin/../lib/gcc/arm-none-eabi/4.9.3/../../../../arm-none-eabi/lib/armv7e-m/fpu/libc.a(lib_a-vfiprintf.o)
 .rodata.zeroes.6926
                0x0000000000015354       0x10 /Applications/ti/ccsv6/tools/compiler/gcc-arm-none-eabi-4_9-2015q3/bin/../lib/gcc/arm-none-eabi/4.9.3/../../../../arm-none-eabi/lib/armv7e-m/fpu/libc.a(lib_a-vfprintf.o)
 .rodata.str1.4
                0x0000000000000000       0x42 /Applications/ti/ccsv6/tools/compiler/gcc-arm-none-eabi-4_9-2015q3/bin/../lib/gcc/arm-none-eabi/4.9.3/../../../../arm-none-eabi/lib/armv7e-m/fpu/libc.a(lib_a-vfprintf.o)
 .rodata.blanks.6925
                0x0000000000015364       0x10 /Applications/ti/ccsv6/tools/compiler/gcc-arm-none-eabi-4_9-2015q3/bin/../lib/gcc/arm-none-eabi/4.9.3/../../../../arm-none-eabi/lib/armv7e-m/fpu/libc.a(lib_a-vfprintf.o)
 .rodata._ctype_
                0x0000000000015374      0x101 /Applications/ti/ccsv6/tools/compiler/gcc-arm-none-eabi-4_9-2015q3/bin/../lib/gcc/arm-none-eabi/4.9.3/../../../../arm-none-eabi/lib/armv7e-m/fpu/libc.a(lib_a-ctype_.o)
                0x0000000000015374                _ctype_
 *fill*         0x0000000000015475        0x3 
 .rodata.str1.4
                0x0000000000015478       0x10 /Applications/ti/ccsv6/tools/compiler/gcc-arm-none-eabi-4_9-2015q3/bin/../lib/gcc/arm-none-eabi/4.9.3/../../../../arm-none-eabi/lib/armv7e-m/fpu/libc.a(lib_a-dtoa.o)
                                         0x12 (size before relaxing)
 .rodata.str1.4
                0x0000000000015488        0xa /Applications/ti/ccsv6/tools/compiler/gcc-arm-none-eabi-4_9-2015q3/bin/../lib/gcc/arm-none-eabi/4.9.3/../../../../arm-none-eabi/lib/armv7e-m/fpu/libc.a(lib_a-locale.o)
                                         0x12 (size before relaxing)
 .rodata.str1.4
                0x0000000000000000        0x1 /Applications/ti/ccsv6/tools/compiler/gcc-arm-none-eabi-4_9-2015q3/bin/../lib/gcc/arm-none-eabi/4.9.3/../../../../arm-none-eabi/lib/armv7e-m/fpu/libc.a(lib_a-mbrtowc.o)
 *fill*         0x0000000000015492        0x6 
 .rodata.__mprec_tens
                0x0000000000015498       0xc8 /Applications/ti/ccsv6/tools/compiler/gcc-arm-none-eabi-4_9-2015q3/bin/../lib/gcc/arm-none-eabi/4.9.3/../../../../arm-none-eabi/lib/armv7e-m/fpu/libc.a(lib_a-mprec.o)
                0x0000000000015498                __mprec_tens
 .rodata.p05.5302
                0x0000000000015560        0xc /Applications/ti/ccsv6/tools/compiler/gcc-arm-none-eabi-4_9-2015q3/bin/../lib/gcc/arm-none-eabi/4.9.3/../../../../arm-none-eabi/lib/armv7e-m/fpu/libc.a(lib_a-mprec.o)
 *fill*         0x000000000001556c        0x4 
 .rodata.__mprec_bigtens
                0x0000000000015570       0x28 /Applications/ti/ccsv6/tools/compiler/gcc-arm-none-eabi-4_9-2015q3/bin/../lib/gcc/arm-none-eabi/4.9.3/../../../../arm-none-eabi/lib/armv7e-m/fpu/libc.a(lib_a-mprec.o)
                0x0000000000015570                __mprec_bigtens
 .rodata.tinytens
                0x0000000000015598       0x28 /Applications/ti/ccsv6/tools/compiler/gcc-arm-none-eabi-4_9-2015q3/bin/../lib/gcc/arm-none-eabi/4.9.3/../../../../arm-none-eabi/lib/armv7e-m/fpu/libc.a(lib_a-strtod.o)
 .rodata.fpinan.5307
                0x00000000000155c0       0x14 /Applications/ti/ccsv6/tools/compiler/gcc-arm-none-eabi-4_9-2015q3/bin/../lib/gcc/arm-none-eabi/4.9.3/../../../../arm-none-eabi/lib/armv7e-m/fpu/libc.a(lib_a-strtod.o)
 .rodata.str1.4
                0x00000000000155d4       0x10 /Applications/ti/ccsv6/tools/compiler/gcc-arm-none-eabi-4_9-2015q3/bin/../lib/gcc/arm-none-eabi/4.9.3/../../../../arm-none-eabi/lib/armv7e-m/fpu/libc.a(lib_a-strtod.o)
                                          0xf (size before relaxing)
 .rodata.fpi.5271
                0x00000000000155e4       0x14 /Applications/ti/ccsv6/tools/compiler/gcc-arm-none-eabi-4_9-2015q3/bin/../lib/gcc/arm-none-eabi/4.9.3/../../../../arm-none-eabi/lib/armv7e-m/fpu/libc.a(lib_a-strtod.o)
 .rodata.__hexdig
                0x00000000000155f8      0x100 /Applications/ti/ccsv6/tools/compiler/gcc-arm-none-eabi-4_9-2015q3/bin/../lib/gcc/arm-none-eabi/4.9.3/../../../../arm-none-eabi/lib/armv7e-m/fpu/libc.a(lib_a-gdtoa-gethex.o)
                0x00000000000155f8                __hexdig

.eh_frame       0x00000000000156f8        0x0
 .eh_frame      0x00000000000156f8        0x0 /Applications/ti/ccsv6/tools/compiler/gcc-arm-none-eabi-4_9-2015q3/bin/../lib/gcc/arm-none-eabi/4.9.3/armv7e-m/fpu/crtbegin.o

.const          0x00000000000156f8       0x40
 .const         0x00000000000156f8       0x40 /Users/snowyang/workspace/MSP432_DriverLib_3_10_00_09/driverlib/MSP432P4xx/ccs/msp432p4xx_driverlib.lib(interrupt.o)

.ARM.exidx      0x0000000000015738        0x8
                0x0000000000015738                __exidx_start = .
 *(.ARM.exidx* .gnu.linkonce.armexidx.*)
 .ARM.exidx     0x0000000000015738        0x8 /Applications/ti/ccsv6/tools/compiler/gcc-arm-none-eabi-4_9-2015q3/bin/../lib/gcc/arm-none-eabi/4.9.3/../../../../arm-none-eabi/lib/armv7e-m/fpu/crt0.o
 .ARM.exidx     0x0000000000015740        0x0 /Applications/ti/ccsv6/tools/compiler/gcc-arm-none-eabi-4_9-2015q3/bin/../lib/gcc/arm-none-eabi/4.9.3/armv7e-m/fpu/libgcc.a(_divdi3.o)
                                          0x8 (size before relaxing)
 .ARM.exidx     0x0000000000015740        0x0 /Applications/ti/ccsv6/tools/compiler/gcc-arm-none-eabi-4_9-2015q3/bin/../lib/gcc/arm-none-eabi/4.9.3/armv7e-m/fpu/libgcc.a(_udivdi3.o)
                                          0x8 (size before relaxing)
                0x0000000000015740                __exidx_end = .

.rel.dyn        0x0000000000015740        0x0
 .rel.iplt      0x0000000000000000        0x0 /Applications/ti/ccsv6/tools/compiler/gcc-arm-none-eabi-4_9-2015q3/bin/../lib/gcc/arm-none-eabi/4.9.3/armv7e-m/fpu/crtbegin.o

.ARM.extab
 *(.ARM.extab* .gnu.linkonce.armextab.*)
                0x0000000000015740                __etext = .

.data           0x00000000200000e8      0xfac load address 0x0000000000015740
                0x0000000000015740                __data_load__ = LOADADDR (.data)
                0x00000000200000e8                __data_start__ = .
 *(.data)
 .data          0x00000000200000e8        0x0 /Applications/ti/ccsv6/tools/compiler/gcc-arm-none-eabi-4_9-2015q3/bin/../lib/gcc/arm-none-eabi/4.9.3/armv7e-m/fpu/crti.o
 .data          0x00000000200000e8        0x4 /Applications/ti/ccsv6/tools/compiler/gcc-arm-none-eabi-4_9-2015q3/bin/../lib/gcc/arm-none-eabi/4.9.3/armv7e-m/fpu/crtbegin.o
                0x00000000200000e8                __dso_handle
 .data          0x00000000200000ec        0x0 /Applications/ti/ccsv6/tools/compiler/gcc-arm-none-eabi-4_9-2015q3/bin/../lib/gcc/arm-none-eabi/4.9.3/../../../../arm-none-eabi/lib/armv7e-m/fpu/crt0.o
 .data          0x00000000200000ec        0x0 ./app_console.o
 .data          0x00000000200000ec        0x0 ./app_rgbled.o
 .data          0x00000000200000ec        0x0 ./app_sht20.o
 .data          0x00000000200000ec        0x0 ./app_switch.o
 .data          0x00000000200000ec        0x0 ./main.o
 .data          0x00000000200000ec        0x0 ./startup_msp432p401r_gcc.o
 .data          0x00000000200000ec        0x0 ./system_msp432p401r.o
 .data          0x00000000200000ec        0x0 ./Board/AliCloud_SDS/alicloud_sds.o
 .data          0x00000000200000ec        0x0 ./Board/drv_VGM128064/oled.o
 .data          0x00000000200000ec        0x0 ./Board/drv_board.o
 .data          0x00000000200000ec        0x0 ./Board/drv_board_test.o
 .data          0x00000000200000ec        0x0 ./Board/drv_button/io_button.o
 .data          0x00000000200000ec        0x0 ./Board/drv_color_led/color_led.o
 .data          0x00000000200000ec        0x0 ./Board/drv_color_led/hsb2rgb.o
 .data          0x00000000200000ec        0x0 ./Board/drv_sht20/sht2x.o
 .data          0x00000000200000ec        0x0 ./Board/helper/emhost/ATCmdParser/ATCmdParser.o
 .data          0x00000000200000ec        0x0 ./Board/helper/emhost/ATCmdParser/ATCmdParserTest.o
 .data          0x00000000200000ec        0x0 ./Board/helper/emhost/emh_alisds.o
 .data          0x00000000200000ec        0x0 ./Board/helper/emhost/emh_arg.o
 .data          0x00000000200000ec        0x0 ./Board/helper/emhost/emh_module.o
 .data          0x00000000200000ec        0x0 ./Board/helper/emhost/emh_wlan.o
 .data          0x00000000200000ec        0x0 ./Board/helper/hal/mx_hal_atomic.o
 .data          0x00000000200000ec        0x0 ./Board/helper/hal/mx_i2c.o
 .data          0x00000000200000ec        0x0 ./Board/helper/hal/mx_serial.o
 .data          0x00000000200000ec        0x0 ./Board/helper/hal/mx_stdio.o
 .data          0x00000000200000ec        0x0 ./Board/helper/hal/mx_tick.o
 .data          0x00000000200000ec        0x0 ./Board/helper/jsmn/jsmn.o
 .data          0x00000000200000ec        0x0 ./Board/helper/jsmn/json_escape_str.o
 .data          0x00000000200000ec        0x0 ./Board/helper/jsmn/json_generator.o
 .data          0x00000000200000ec        0x0 ./Board/helper/jsmn/json_utils.o
 .data          0x00000000200000ec        0x0 ./Board/helper/jsmn/json_wrappers.o
 .data          0x00000000200000ec        0x0 ./Board/helper/mx_utils/mx_ringbuffer.o
 .data          0x00000000200000ec        0x0 ./aos/soc_impl.o
 .data          0x00000000200000ec        0x0 ./aos/trace_impl.o
 .data          0x00000000200000ec        0x0 ./core/k_buf_queue.o
 .data          0x00000000200000ec        0x0 ./core/k_dyn_mem_proc.o
 .data          0x00000000200000ec        0x0 ./core/k_err.o
 .data          0x00000000200000ec        0x0 ./core/k_event.o
 .data          0x00000000200000ec        0x0 ./core/k_idle.o
 .data          0x00000000200000ec        0x0 ./core/k_mm.o
 .data          0x00000000200000ec        0x0 ./core/k_mm_blk.o
 .data          0x00000000200000ec        0x0 ./core/k_mm_debug.o
 .data          0x00000000200000ec        0x0 ./core/k_mutex.o
 .data          0x00000000200000ec        0x0 ./core/k_obj.o
 .data          0x00000000200000ec        0x0 ./core/k_pend.o
 .data          0x00000000200000ec        0x0 ./core/k_queue.o
 .data          0x00000000200000ec        0x0 ./core/k_ringbuf.o
 .data          0x00000000200000ec        0x0 ./core/k_sched.o
 .data          0x00000000200000ec        0x0 ./core/k_sem.o
 .data          0x00000000200000ec        0x0 ./core/k_stats.o
 .data          0x00000000200000ec        0x0 ./core/k_sys.o
 .data          0x00000000200000ec        0x0 ./core/k_task.o
 .data          0x00000000200000ec        0x0 ./core/k_task_sem.o
 .data          0x00000000200000ec        0x0 ./core/k_tick.o
 .data          0x00000000200000ec        0x0 ./core/k_time.o
 .data          0x00000000200000ec        0x0 ./core/k_timer.o
 .data          0x00000000200000ec        0x0 ./core/k_workqueue.o
 .data          0x00000000200000ec        0x0 ./m4/port_c.o
 .data          0x00000000200000ec        0x0 ./m4/port_s.o
 .data          0x00000000200000ec        0x0 /Applications/ti/ccsv6/tools/compiler/gcc-arm-none-eabi-4_9-2015q3/bin/../lib/gcc/arm-none-eabi/4.9.3/../../../../arm-none-eabi/lib/armv7e-m/fpu/libm.a(lib_a-w_pow.o)
 .data          0x00000000200000ec        0x0 /Applications/ti/ccsv6/tools/compiler/gcc-arm-none-eabi-4_9-2015q3/bin/../lib/gcc/arm-none-eabi/4.9.3/../../../../arm-none-eabi/lib/armv7e-m/fpu/libm.a(lib_a-e_pow.o)
 .data          0x00000000200000ec        0x0 /Applications/ti/ccsv6/tools/compiler/gcc-arm-none-eabi-4_9-2015q3/bin/../lib/gcc/arm-none-eabi/4.9.3/../../../../arm-none-eabi/lib/armv7e-m/fpu/libm.a(lib_a-e_sqrt.o)
 .data          0x00000000200000ec        0x0 /Applications/ti/ccsv6/tools/compiler/gcc-arm-none-eabi-4_9-2015q3/bin/../lib/gcc/arm-none-eabi/4.9.3/../../../../arm-none-eabi/lib/armv7e-m/fpu/libm.a(lib_a-s_fabs.o)
 .data          0x00000000200000ec        0x0 /Applications/ti/ccsv6/tools/compiler/gcc-arm-none-eabi-4_9-2015q3/bin/../lib/gcc/arm-none-eabi/4.9.3/../../../../arm-none-eabi/lib/armv7e-m/fpu/libm.a(lib_a-s_finite.o)
 .data          0x00000000200000ec        0x0 /Applications/ti/ccsv6/tools/compiler/gcc-arm-none-eabi-4_9-2015q3/bin/../lib/gcc/arm-none-eabi/4.9.3/../../../../arm-none-eabi/lib/armv7e-m/fpu/libm.a(lib_a-s_fpclassify.o)
 .data          0x00000000200000ec        0x0 /Applications/ti/ccsv6/tools/compiler/gcc-arm-none-eabi-4_9-2015q3/bin/../lib/gcc/arm-none-eabi/4.9.3/../../../../arm-none-eabi/lib/armv7e-m/fpu/libm.a(lib_a-s_lib_ver.o)
 .data          0x00000000200000ec        0x0 /Applications/ti/ccsv6/tools/compiler/gcc-arm-none-eabi-4_9-2015q3/bin/../lib/gcc/arm-none-eabi/4.9.3/../../../../arm-none-eabi/lib/armv7e-m/fpu/libm.a(lib_a-s_matherr.o)
 .data          0x00000000200000ec        0x0 /Applications/ti/ccsv6/tools/compiler/gcc-arm-none-eabi-4_9-2015q3/bin/../lib/gcc/arm-none-eabi/4.9.3/../../../../arm-none-eabi/lib/armv7e-m/fpu/libm.a(lib_a-s_nan.o)
 .data          0x00000000200000ec        0x0 /Applications/ti/ccsv6/tools/compiler/gcc-arm-none-eabi-4_9-2015q3/bin/../lib/gcc/arm-none-eabi/4.9.3/../../../../arm-none-eabi/lib/armv7e-m/fpu/libm.a(lib_a-s_rint.o)
 .data          0x00000000200000ec        0x0 /Applications/ti/ccsv6/tools/compiler/gcc-arm-none-eabi-4_9-2015q3/bin/../lib/gcc/arm-none-eabi/4.9.3/../../../../arm-none-eabi/lib/armv7e-m/fpu/libm.a(lib_a-s_scalbn.o)
 .data          0x00000000200000ec        0x0 /Applications/ti/ccsv6/tools/compiler/gcc-arm-none-eabi-4_9-2015q3/bin/../lib/gcc/arm-none-eabi/4.9.3/../../../../arm-none-eabi/lib/armv7e-m/fpu/libm.a(lib_a-s_copysign.o)
 .data          0x00000000200000ec        0x0 /Applications/ti/ccsv6/tools/compiler/gcc-arm-none-eabi-4_9-2015q3/bin/../lib/gcc/arm-none-eabi/4.9.3/../../../../arm-none-eabi/lib/armv7e-m/fpu/libc.a(lib_a-assert.o)
 .data          0x00000000200000ec        0x0 /Applications/ti/ccsv6/tools/compiler/gcc-arm-none-eabi-4_9-2015q3/bin/../lib/gcc/arm-none-eabi/4.9.3/../../../../arm-none-eabi/lib/armv7e-m/fpu/libc.a(lib_a-calloc.o)
 .data          0x00000000200000ec        0x0 /Applications/ti/ccsv6/tools/compiler/gcc-arm-none-eabi-4_9-2015q3/bin/../lib/gcc/arm-none-eabi/4.9.3/../../../../arm-none-eabi/lib/armv7e-m/fpu/libc.a(lib_a-callocr.o)
 .data          0x00000000200000ec        0x0 /Applications/ti/ccsv6/tools/compiler/gcc-arm-none-eabi-4_9-2015q3/bin/../lib/gcc/arm-none-eabi/4.9.3/../../../../arm-none-eabi/lib/armv7e-m/fpu/libc.a(lib_a-errno.o)
 .data          0x00000000200000ec        0x0 /Applications/ti/ccsv6/tools/compiler/gcc-arm-none-eabi-4_9-2015q3/bin/../lib/gcc/arm-none-eabi/4.9.3/../../../../arm-none-eabi/lib/armv7e-m/fpu/libc.a(lib_a-exit.o)
 .data          0x00000000200000ec        0x0 /Applications/ti/ccsv6/tools/compiler/gcc-arm-none-eabi-4_9-2015q3/bin/../lib/gcc/arm-none-eabi/4.9.3/../../../../arm-none-eabi/lib/armv7e-m/fpu/libc.a(lib_a-fiprintf.o)
 .data          0x00000000200000ec        0x0 /Applications/ti/ccsv6/tools/compiler/gcc-arm-none-eabi-4_9-2015q3/bin/../lib/gcc/arm-none-eabi/4.9.3/../../../../arm-none-eabi/lib/armv7e-m/fpu/libc.a(lib_a-impure.o)
 .data          0x00000000200000ec        0x0 /Applications/ti/ccsv6/tools/compiler/gcc-arm-none-eabi-4_9-2015q3/bin/../lib/gcc/arm-none-eabi/4.9.3/../../../../arm-none-eabi/lib/armv7e-m/fpu/libc.a(lib_a-init.o)
 .data          0x00000000200000ec        0x0 /Applications/ti/ccsv6/tools/compiler/gcc-arm-none-eabi-4_9-2015q3/bin/../lib/gcc/arm-none-eabi/4.9.3/../../../../arm-none-eabi/lib/armv7e-m/fpu/libc.a(lib_a-malloc.o)
 .data          0x00000000200000ec        0x0 /Applications/ti/ccsv6/tools/compiler/gcc-arm-none-eabi-4_9-2015q3/bin/../lib/gcc/arm-none-eabi/4.9.3/../../../../arm-none-eabi/lib/armv7e-m/fpu/libc.a(lib_a-mallocr.o)
 .data          0x00000000200000ec        0x0 /Applications/ti/ccsv6/tools/compiler/gcc-arm-none-eabi-4_9-2015q3/bin/../lib/gcc/arm-none-eabi/4.9.3/../../../../arm-none-eabi/lib/armv7e-m/fpu/libc.a(lib_a-memcmp.o)
 .data          0x00000000200000ec        0x0 /Applications/ti/ccsv6/tools/compiler/gcc-arm-none-eabi-4_9-2015q3/bin/../lib/gcc/arm-none-eabi/4.9.3/../../../../arm-none-eabi/lib/armv7e-m/fpu/libc.a(lib_a-memcpy.o)
 .data          0x00000000200000ec        0x0 /Applications/ti/ccsv6/tools/compiler/gcc-arm-none-eabi-4_9-2015q3/bin/../lib/gcc/arm-none-eabi/4.9.3/../../../../arm-none-eabi/lib/armv7e-m/fpu/libc.a(lib_a-memset.o)
 .data          0x00000000200000ec        0x0 /Applications/ti/ccsv6/tools/compiler/gcc-arm-none-eabi-4_9-2015q3/bin/../lib/gcc/arm-none-eabi/4.9.3/../../../../arm-none-eabi/lib/armv7e-m/fpu/libc.a(lib_a-mlock.o)
 .data          0x00000000200000ec        0x0 /Applications/ti/ccsv6/tools/compiler/gcc-arm-none-eabi-4_9-2015q3/bin/../lib/gcc/arm-none-eabi/4.9.3/../../../../arm-none-eabi/lib/armv7e-m/fpu/libc.a(lib_a-printf.o)
 .data          0x00000000200000ec        0x0 /Applications/ti/ccsv6/tools/compiler/gcc-arm-none-eabi-4_9-2015q3/bin/../lib/gcc/arm-none-eabi/4.9.3/../../../../arm-none-eabi/lib/armv7e-m/fpu/libc.a(lib_a-puts.o)
 .data          0x00000000200000ec        0x0 /Applications/ti/ccsv6/tools/compiler/gcc-arm-none-eabi-4_9-2015q3/bin/../lib/gcc/arm-none-eabi/4.9.3/../../../../arm-none-eabi/lib/armv7e-m/fpu/libc.a(lib_a-realloc.o)
 .data          0x00000000200000ec        0x0 /Applications/ti/ccsv6/tools/compiler/gcc-arm-none-eabi-4_9-2015q3/bin/../lib/gcc/arm-none-eabi/4.9.3/../../../../arm-none-eabi/lib/armv7e-m/fpu/libc.a(lib_a-reallocr.o)
 .data          0x00000000200000ec        0x0 /Applications/ti/ccsv6/tools/compiler/gcc-arm-none-eabi-4_9-2015q3/bin/../lib/gcc/arm-none-eabi/4.9.3/../../../../arm-none-eabi/lib/armv7e-m/fpu/libc.a(lib_a-sbrkr.o)
 .data          0x00000000200000ec        0x0 /Applications/ti/ccsv6/tools/compiler/gcc-arm-none-eabi-4_9-2015q3/bin/../lib/gcc/arm-none-eabi/4.9.3/../../../../arm-none-eabi/lib/armv7e-m/fpu/libc.a(lib_a-snprintf.o)
 .data          0x00000000200000ec        0x0 /Applications/ti/ccsv6/tools/compiler/gcc-arm-none-eabi-4_9-2015q3/bin/../lib/gcc/arm-none-eabi/4.9.3/../../../../arm-none-eabi/lib/armv7e-m/fpu/libc.a(lib_a-sprintf.o)
 .data          0x00000000200000ec        0x0 /Applications/ti/ccsv6/tools/compiler/gcc-arm-none-eabi-4_9-2015q3/bin/../lib/gcc/arm-none-eabi/4.9.3/../../../../arm-none-eabi/lib/armv7e-m/fpu/libc.a(lib_a-sscanf.o)
 .data          0x00000000200000ec        0x0 /Applications/ti/ccsv6/tools/compiler/gcc-arm-none-eabi-4_9-2015q3/bin/../lib/gcc/arm-none-eabi/4.9.3/../../../../arm-none-eabi/lib/armv7e-m/fpu/libc.a(lib_a-stdio.o)
 .data          0x00000000200000ec        0x0 /Applications/ti/ccsv6/tools/compiler/gcc-arm-none-eabi-4_9-2015q3/bin/../lib/gcc/arm-none-eabi/4.9.3/../../../../arm-none-eabi/lib/armv7e-m/fpu/libc.a(lib_a-strcmp.o)
 .data          0x00000000200000ec        0x0 /Applications/ti/ccsv6/tools/compiler/gcc-arm-none-eabi-4_9-2015q3/bin/../lib/gcc/arm-none-eabi/4.9.3/../../../../arm-none-eabi/lib/armv7e-m/fpu/libc.a(lib_a-strcpy.o)
 .data          0x00000000200000ec        0x0 /Applications/ti/ccsv6/tools/compiler/gcc-arm-none-eabi-4_9-2015q3/bin/../lib/gcc/arm-none-eabi/4.9.3/../../../../arm-none-eabi/lib/armv7e-m/fpu/libc.a(lib_a-strlen.o)
 .data          0x00000000200000ec        0x0 /Applications/ti/ccsv6/tools/compiler/gcc-arm-none-eabi-4_9-2015q3/bin/../lib/gcc/arm-none-eabi/4.9.3/../../../../arm-none-eabi/lib/armv7e-m/fpu/libc.a(lib_a-strncmp.o)
 .data          0x00000000200000ec        0x0 /Applications/ti/ccsv6/tools/compiler/gcc-arm-none-eabi-4_9-2015q3/bin/../lib/gcc/arm-none-eabi/4.9.3/../../../../arm-none-eabi/lib/armv7e-m/fpu/libc.a(lib_a-strncpy.o)
 .data          0x00000000200000ec        0x0 /Applications/ti/ccsv6/tools/compiler/gcc-arm-none-eabi-4_9-2015q3/bin/../lib/gcc/arm-none-eabi/4.9.3/../../../../arm-none-eabi/lib/armv7e-m/fpu/libc.a(lib_a-strtoul.o)
 .data          0x00000000200000ec        0x0 /Applications/ti/ccsv6/tools/compiler/gcc-arm-none-eabi-4_9-2015q3/bin/../lib/gcc/arm-none-eabi/4.9.3/../../../../arm-none-eabi/lib/armv7e-m/fpu/libc.a(lib_a-strtoull.o)
 .data          0x00000000200000ec        0x0 /Applications/ti/ccsv6/tools/compiler/gcc-arm-none-eabi-4_9-2015q3/bin/../lib/gcc/arm-none-eabi/4.9.3/../../../../arm-none-eabi/lib/armv7e-m/fpu/libc.a(lib_a-strtoull_r.o)
 .data          0x00000000200000ec        0x0 /Applications/ti/ccsv6/tools/compiler/gcc-arm-none-eabi-4_9-2015q3/bin/../lib/gcc/arm-none-eabi/4.9.3/../../../../arm-none-eabi/lib/armv7e-m/fpu/libc.a(lib_a-svfprintf.o)
 .data          0x00000000200000ec        0x0 /Applications/ti/ccsv6/tools/compiler/gcc-arm-none-eabi-4_9-2015q3/bin/../lib/gcc/arm-none-eabi/4.9.3/../../../../arm-none-eabi/lib/armv7e-m/fpu/libc.a(lib_a-svfscanf.o)
 .data          0x00000000200000ec        0x0 /Applications/ti/ccsv6/tools/compiler/gcc-arm-none-eabi-4_9-2015q3/bin/../lib/gcc/arm-none-eabi/4.9.3/../../../../arm-none-eabi/lib/armv7e-m/fpu/libc.a(lib_a-vfiprintf.o)
 .data          0x00000000200000ec        0x0 /Applications/ti/ccsv6/tools/compiler/gcc-arm-none-eabi-4_9-2015q3/bin/../lib/gcc/arm-none-eabi/4.9.3/../../../../arm-none-eabi/lib/armv7e-m/fpu/libc.a(lib_a-vfprintf.o)
 .data          0x00000000200000ec        0x0 /Applications/ti/ccsv6/tools/compiler/gcc-arm-none-eabi-4_9-2015q3/bin/../lib/gcc/arm-none-eabi/4.9.3/../../../../arm-none-eabi/lib/armv7e-m/fpu/libc.a(lib_a-vprintf.o)
 .data          0x00000000200000ec        0x0 /Applications/ti/ccsv6/tools/compiler/gcc-arm-none-eabi-4_9-2015q3/bin/../lib/gcc/arm-none-eabi/4.9.3/../../../../arm-none-eabi/lib/armv7e-m/fpu/libc.a(lib_a-vsprintf.o)
 .data          0x00000000200000ec        0x0 /Applications/ti/ccsv6/tools/compiler/gcc-arm-none-eabi-4_9-2015q3/bin/../lib/gcc/arm-none-eabi/4.9.3/../../../../arm-none-eabi/lib/armv7e-m/fpu/libc.a(lib_a-vsscanf.o)
 .data          0x00000000200000ec        0x0 /Applications/ti/ccsv6/tools/compiler/gcc-arm-none-eabi-4_9-2015q3/bin/../lib/gcc/arm-none-eabi/4.9.3/../../../../arm-none-eabi/lib/armv7e-m/fpu/libc.a(lib_a-writer.o)
 .data          0x00000000200000ec        0x0 /Applications/ti/ccsv6/tools/compiler/gcc-arm-none-eabi-4_9-2015q3/bin/../lib/gcc/arm-none-eabi/4.9.3/../../../../arm-none-eabi/lib/armv7e-m/fpu/libc.a(lib_a-wsetup.o)
 .data          0x00000000200000ec        0x0 /Applications/ti/ccsv6/tools/compiler/gcc-arm-none-eabi-4_9-2015q3/bin/../lib/gcc/arm-none-eabi/4.9.3/../../../../arm-none-eabi/lib/armv7e-m/fpu/libc.a(lib_a-__call_atexit.o)
 .data          0x00000000200000ec        0x0 /Applications/ti/ccsv6/tools/compiler/gcc-arm-none-eabi-4_9-2015q3/bin/../lib/gcc/arm-none-eabi/4.9.3/../../../../arm-none-eabi/lib/armv7e-m/fpu/libc.a(lib_a-abort.o)
 .data          0x00000000200000ec        0x0 /Applications/ti/ccsv6/tools/compiler/gcc-arm-none-eabi-4_9-2015q3/bin/../lib/gcc/arm-none-eabi/4.9.3/../../../../arm-none-eabi/lib/armv7e-m/fpu/libc.a(lib_a-atexit.o)
 .data          0x00000000200000ec        0x0 /Applications/ti/ccsv6/tools/compiler/gcc-arm-none-eabi-4_9-2015q3/bin/../lib/gcc/arm-none-eabi/4.9.3/../../../../arm-none-eabi/lib/armv7e-m/fpu/libc.a(lib_a-closer.o)
 .data          0x00000000200000ec        0x0 /Applications/ti/ccsv6/tools/compiler/gcc-arm-none-eabi-4_9-2015q3/bin/../lib/gcc/arm-none-eabi/4.9.3/../../../../arm-none-eabi/lib/armv7e-m/fpu/libc.a(lib_a-ctype_.o)
 .data          0x00000000200000ec        0x0 /Applications/ti/ccsv6/tools/compiler/gcc-arm-none-eabi-4_9-2015q3/bin/../lib/gcc/arm-none-eabi/4.9.3/../../../../arm-none-eabi/lib/armv7e-m/fpu/libc.a(lib_a-dtoa.o)
 .data          0x00000000200000ec        0x0 /Applications/ti/ccsv6/tools/compiler/gcc-arm-none-eabi-4_9-2015q3/bin/../lib/gcc/arm-none-eabi/4.9.3/../../../../arm-none-eabi/lib/armv7e-m/fpu/libc.a(lib_a-fflush.o)
 .data          0x00000000200000ec        0x0 /Applications/ti/ccsv6/tools/compiler/gcc-arm-none-eabi-4_9-2015q3/bin/../lib/gcc/arm-none-eabi/4.9.3/../../../../arm-none-eabi/lib/armv7e-m/fpu/libc.a(lib_a-findfp.o)
 .data          0x00000000200000ec        0x0 /Applications/ti/ccsv6/tools/compiler/gcc-arm-none-eabi-4_9-2015q3/bin/../lib/gcc/arm-none-eabi/4.9.3/../../../../arm-none-eabi/lib/armv7e-m/fpu/libc.a(lib_a-fini.o)
 .data          0x00000000200000ec        0x0 /Applications/ti/ccsv6/tools/compiler/gcc-arm-none-eabi-4_9-2015q3/bin/../lib/gcc/arm-none-eabi/4.9.3/../../../../arm-none-eabi/lib/armv7e-m/fpu/libc.a(lib_a-fputwc.o)
 .data          0x00000000200000ec        0x0 /Applications/ti/ccsv6/tools/compiler/gcc-arm-none-eabi-4_9-2015q3/bin/../lib/gcc/arm-none-eabi/4.9.3/../../../../arm-none-eabi/lib/armv7e-m/fpu/libc.a(lib_a-freer.o)
 .data          0x00000000200000ec        0x0 /Applications/ti/ccsv6/tools/compiler/gcc-arm-none-eabi-4_9-2015q3/bin/../lib/gcc/arm-none-eabi/4.9.3/../../../../arm-none-eabi/lib/armv7e-m/fpu/libc.a(lib_a-fvwrite.o)
 .data          0x00000000200000ec        0x0 /Applications/ti/ccsv6/tools/compiler/gcc-arm-none-eabi-4_9-2015q3/bin/../lib/gcc/arm-none-eabi/4.9.3/../../../../arm-none-eabi/lib/armv7e-m/fpu/libc.a(lib_a-fwalk.o)
 .data          0x00000000200000ec        0x0 /Applications/ti/ccsv6/tools/compiler/gcc-arm-none-eabi-4_9-2015q3/bin/../lib/gcc/arm-none-eabi/4.9.3/../../../../arm-none-eabi/lib/armv7e-m/fpu/libc.a(lib_a-iswspace.o)
 .data          0x00000000200000ec        0x0 /Applications/ti/ccsv6/tools/compiler/gcc-arm-none-eabi-4_9-2015q3/bin/../lib/gcc/arm-none-eabi/4.9.3/../../../../arm-none-eabi/lib/armv7e-m/fpu/libc.a(lib_a-locale.o)
 .data          0x00000000200000ec        0x0 /Applications/ti/ccsv6/tools/compiler/gcc-arm-none-eabi-4_9-2015q3/bin/../lib/gcc/arm-none-eabi/4.9.3/../../../../arm-none-eabi/lib/armv7e-m/fpu/libc.a(lib_a-lseekr.o)
 .data          0x00000000200000ec        0x0 /Applications/ti/ccsv6/tools/compiler/gcc-arm-none-eabi-4_9-2015q3/bin/../lib/gcc/arm-none-eabi/4.9.3/../../../../arm-none-eabi/lib/armv7e-m/fpu/libc.a(lib_a-makebuf.o)
 .data          0x00000000200000ec        0x0 /Applications/ti/ccsv6/tools/compiler/gcc-arm-none-eabi-4_9-2015q3/bin/../lib/gcc/arm-none-eabi/4.9.3/../../../../arm-none-eabi/lib/armv7e-m/fpu/libc.a(lib_a-mbrtowc.o)
 .data          0x00000000200000ec        0x0 /Applications/ti/ccsv6/tools/compiler/gcc-arm-none-eabi-4_9-2015q3/bin/../lib/gcc/arm-none-eabi/4.9.3/../../../../arm-none-eabi/lib/armv7e-m/fpu/libc.a(lib_a-mbtowc_r.o)
 .data          0x00000000200000ec        0x0 /Applications/ti/ccsv6/tools/compiler/gcc-arm-none-eabi-4_9-2015q3/bin/../lib/gcc/arm-none-eabi/4.9.3/../../../../arm-none-eabi/lib/armv7e-m/fpu/libc.a(lib_a-memchr.o)
 .data          0x00000000200000ec        0x0 /Applications/ti/ccsv6/tools/compiler/gcc-arm-none-eabi-4_9-2015q3/bin/../lib/gcc/arm-none-eabi/4.9.3/../../../../arm-none-eabi/lib/armv7e-m/fpu/libc.a(lib_a-memmove.o)
 .data          0x00000000200000ec        0x0 /Applications/ti/ccsv6/tools/compiler/gcc-arm-none-eabi-4_9-2015q3/bin/../lib/gcc/arm-none-eabi/4.9.3/../../../../arm-none-eabi/lib/armv7e-m/fpu/libc.a(lib_a-mprec.o)
 .data          0x00000000200000ec        0x0 /Applications/ti/ccsv6/tools/compiler/gcc-arm-none-eabi-4_9-2015q3/bin/../lib/gcc/arm-none-eabi/4.9.3/../../../../arm-none-eabi/lib/armv7e-m/fpu/libc.a(lib_a-readr.o)
 .data          0x00000000200000ec        0x0 /Applications/ti/ccsv6/tools/compiler/gcc-arm-none-eabi-4_9-2015q3/bin/../lib/gcc/arm-none-eabi/4.9.3/../../../../arm-none-eabi/lib/armv7e-m/fpu/libc.a(lib_a-reent.o)
 .data          0x00000000200000ec        0x0 /Applications/ti/ccsv6/tools/compiler/gcc-arm-none-eabi-4_9-2015q3/bin/../lib/gcc/arm-none-eabi/4.9.3/../../../../arm-none-eabi/lib/armv7e-m/fpu/libc.a(lib_a-sccl.o)
 .data          0x00000000200000ec        0x0 /Applications/ti/ccsv6/tools/compiler/gcc-arm-none-eabi-4_9-2015q3/bin/../lib/gcc/arm-none-eabi/4.9.3/../../../../arm-none-eabi/lib/armv7e-m/fpu/libc.a(lib_a-sf_nan.o)
 .data          0x00000000200000ec        0x0 /Applications/ti/ccsv6/tools/compiler/gcc-arm-none-eabi-4_9-2015q3/bin/../lib/gcc/arm-none-eabi/4.9.3/../../../../arm-none-eabi/lib/armv7e-m/fpu/libc.a(lib_a-signal.o)
 .data          0x00000000200000ec        0x0 /Applications/ti/ccsv6/tools/compiler/gcc-arm-none-eabi-4_9-2015q3/bin/../lib/gcc/arm-none-eabi/4.9.3/../../../../arm-none-eabi/lib/armv7e-m/fpu/libc.a(lib_a-signalr.o)
 .data          0x00000000200000ec        0x0 /Applications/ti/ccsv6/tools/compiler/gcc-arm-none-eabi-4_9-2015q3/bin/../lib/gcc/arm-none-eabi/4.9.3/../../../../arm-none-eabi/lib/armv7e-m/fpu/libc.a(lib_a-strtod.o)
 .data          0x00000000200000ec        0x0 /Applications/ti/ccsv6/tools/compiler/gcc-arm-none-eabi-4_9-2015q3/bin/../lib/gcc/arm-none-eabi/4.9.3/../../../../arm-none-eabi/lib/armv7e-m/fpu/libc.a(lib_a-strtol.o)
 .data          0x00000000200000ec        0x0 /Applications/ti/ccsv6/tools/compiler/gcc-arm-none-eabi-4_9-2015q3/bin/../lib/gcc/arm-none-eabi/4.9.3/../../../../arm-none-eabi/lib/armv7e-m/fpu/libc.a(lib_a-strtoll_r.o)
 .data          0x00000000200000ec        0x0 /Applications/ti/ccsv6/tools/compiler/gcc-arm-none-eabi-4_9-2015q3/bin/../lib/gcc/arm-none-eabi/4.9.3/../../../../arm-none-eabi/lib/armv7e-m/fpu/libc.a(lib_a-svfiprintf.o)
 .data          0x00000000200000ec        0x0 /Applications/ti/ccsv6/tools/compiler/gcc-arm-none-eabi-4_9-2015q3/bin/../lib/gcc/arm-none-eabi/4.9.3/../../../../arm-none-eabi/lib/armv7e-m/fpu/libc.a(lib_a-svfiscanf.o)
 .data          0x00000000200000ec        0x0 /Applications/ti/ccsv6/tools/compiler/gcc-arm-none-eabi-4_9-2015q3/bin/../lib/gcc/arm-none-eabi/4.9.3/../../../../arm-none-eabi/lib/armv7e-m/fpu/libc.a(lib_a-ungetc.o)
 .data          0x00000000200000ec        0x0 /Applications/ti/ccsv6/tools/compiler/gcc-arm-none-eabi-4_9-2015q3/bin/../lib/gcc/arm-none-eabi/4.9.3/../../../../arm-none-eabi/lib/armv7e-m/fpu/libc.a(lib_a-wbuf.o)
 .data          0x00000000200000ec        0x0 /Applications/ti/ccsv6/tools/compiler/gcc-arm-none-eabi-4_9-2015q3/bin/../lib/gcc/arm-none-eabi/4.9.3/../../../../arm-none-eabi/lib/armv7e-m/fpu/libc.a(lib_a-wcrtomb.o)
 .data          0x00000000200000ec        0x0 /Applications/ti/ccsv6/tools/compiler/gcc-arm-none-eabi-4_9-2015q3/bin/../lib/gcc/arm-none-eabi/4.9.3/../../../../arm-none-eabi/lib/armv7e-m/fpu/libc.a(lib_a-wctomb_r.o)
 .data          0x00000000200000ec        0x0 /Applications/ti/ccsv6/tools/compiler/gcc-arm-none-eabi-4_9-2015q3/bin/../lib/gcc/arm-none-eabi/4.9.3/../../../../arm-none-eabi/lib/armv7e-m/fpu/libc.a(lib_a-__atexit.o)
 .data          0x00000000200000ec        0x0 /Applications/ti/ccsv6/tools/compiler/gcc-arm-none-eabi-4_9-2015q3/bin/../lib/gcc/arm-none-eabi/4.9.3/../../../../arm-none-eabi/lib/armv7e-m/fpu/libc.a(lib_a-fclose.o)
 .data          0x00000000200000ec        0x0 /Applications/ti/ccsv6/tools/compiler/gcc-arm-none-eabi-4_9-2015q3/bin/../lib/gcc/arm-none-eabi/4.9.3/../../../../arm-none-eabi/lib/armv7e-m/fpu/libc.a(lib_a-fstatr.o)
 .data          0x00000000200000ec        0x0 /Applications/ti/ccsv6/tools/compiler/gcc-arm-none-eabi-4_9-2015q3/bin/../lib/gcc/arm-none-eabi/4.9.3/../../../../arm-none-eabi/lib/armv7e-m/fpu/libc.a(lib_a-gdtoa-gethex.o)
 .data          0x00000000200000ec        0x0 /Applications/ti/ccsv6/tools/compiler/gcc-arm-none-eabi-4_9-2015q3/bin/../lib/gcc/arm-none-eabi/4.9.3/../../../../arm-none-eabi/lib/armv7e-m/fpu/libc.a(lib_a-gdtoa-hexnan.o)
 .data          0x00000000200000ec        0x0 /Applications/ti/ccsv6/tools/compiler/gcc-arm-none-eabi-4_9-2015q3/bin/../lib/gcc/arm-none-eabi/4.9.3/../../../../arm-none-eabi/lib/armv7e-m/fpu/libc.a(lib_a-isattyr.o)
 .data          0x00000000200000ec        0x0 /Applications/ti/ccsv6/tools/compiler/gcc-arm-none-eabi-4_9-2015q3/bin/../lib/gcc/arm-none-eabi/4.9.3/../../../../arm-none-eabi/lib/armv7e-m/fpu/libnosys.a(close.o)
 .data          0x00000000200000ec        0x0 /Applications/ti/ccsv6/tools/compiler/gcc-arm-none-eabi-4_9-2015q3/bin/../lib/gcc/arm-none-eabi/4.9.3/../../../../arm-none-eabi/lib/armv7e-m/fpu/libnosys.a(fstat.o)
 .data          0x00000000200000ec        0x0 /Applications/ti/ccsv6/tools/compiler/gcc-arm-none-eabi-4_9-2015q3/bin/../lib/gcc/arm-none-eabi/4.9.3/../../../../arm-none-eabi/lib/armv7e-m/fpu/libnosys.a(getpid.o)
 .data          0x00000000200000ec        0x0 /Applications/ti/ccsv6/tools/compiler/gcc-arm-none-eabi-4_9-2015q3/bin/../lib/gcc/arm-none-eabi/4.9.3/../../../../arm-none-eabi/lib/armv7e-m/fpu/libnosys.a(isatty.o)
 .data          0x00000000200000ec        0x0 /Applications/ti/ccsv6/tools/compiler/gcc-arm-none-eabi-4_9-2015q3/bin/../lib/gcc/arm-none-eabi/4.9.3/../../../../arm-none-eabi/lib/armv7e-m/fpu/libnosys.a(kill.o)
 .data          0x00000000200000ec        0x0 /Applications/ti/ccsv6/tools/compiler/gcc-arm-none-eabi-4_9-2015q3/bin/../lib/gcc/arm-none-eabi/4.9.3/../../../../arm-none-eabi/lib/armv7e-m/fpu/libnosys.a(lseek.o)
 .data          0x00000000200000ec        0x0 /Applications/ti/ccsv6/tools/compiler/gcc-arm-none-eabi-4_9-2015q3/bin/../lib/gcc/arm-none-eabi/4.9.3/../../../../arm-none-eabi/lib/armv7e-m/fpu/libnosys.a(read.o)
 .data          0x00000000200000ec        0x0 /Applications/ti/ccsv6/tools/compiler/gcc-arm-none-eabi-4_9-2015q3/bin/../lib/gcc/arm-none-eabi/4.9.3/../../../../arm-none-eabi/lib/armv7e-m/fpu/libnosys.a(sbrk.o)
 .data          0x00000000200000ec        0x0 /Applications/ti/ccsv6/tools/compiler/gcc-arm-none-eabi-4_9-2015q3/bin/../lib/gcc/arm-none-eabi/4.9.3/../../../../arm-none-eabi/lib/armv7e-m/fpu/libnosys.a(_exit.o)
 .data          0x00000000200000ec        0x0 /Applications/ti/ccsv6/tools/compiler/gcc-arm-none-eabi-4_9-2015q3/bin/../lib/gcc/arm-none-eabi/4.9.3/armv7e-m/fpu/libgcc.a(_arm_addsubdf3.o)
 .data          0x00000000200000ec        0x0 /Applications/ti/ccsv6/tools/compiler/gcc-arm-none-eabi-4_9-2015q3/bin/../lib/gcc/arm-none-eabi/4.9.3/armv7e-m/fpu/libgcc.a(_arm_muldivdf3.o)
 .data          0x00000000200000ec        0x0 /Applications/ti/ccsv6/tools/compiler/gcc-arm-none-eabi-4_9-2015q3/bin/../lib/gcc/arm-none-eabi/4.9.3/armv7e-m/fpu/libgcc.a(_arm_cmpdf2.o)
 .data          0x00000000200000ec        0x0 /Applications/ti/ccsv6/tools/compiler/gcc-arm-none-eabi-4_9-2015q3/bin/../lib/gcc/arm-none-eabi/4.9.3/armv7e-m/fpu/libgcc.a(_arm_fixdfsi.o)
 .data          0x00000000200000ec        0x0 /Applications/ti/ccsv6/tools/compiler/gcc-arm-none-eabi-4_9-2015q3/bin/../lib/gcc/arm-none-eabi/4.9.3/armv7e-m/fpu/libgcc.a(_arm_fixunsdfsi.o)
 .data          0x00000000200000ec        0x0 /Applications/ti/ccsv6/tools/compiler/gcc-arm-none-eabi-4_9-2015q3/bin/../lib/gcc/arm-none-eabi/4.9.3/armv7e-m/fpu/libgcc.a(_arm_truncdfsf2.o)
 .data          0x00000000200000ec        0x0 /Applications/ti/ccsv6/tools/compiler/gcc-arm-none-eabi-4_9-2015q3/bin/../lib/gcc/arm-none-eabi/4.9.3/armv7e-m/fpu/libgcc.a(_aeabi_uldivmod.o)
 .data          0x00000000200000ec        0x0 /Applications/ti/ccsv6/tools/compiler/gcc-arm-none-eabi-4_9-2015q3/bin/../lib/gcc/arm-none-eabi/4.9.3/armv7e-m/fpu/libgcc.a(bpabi.o)
 .data          0x00000000200000ec        0x0 /Applications/ti/ccsv6/tools/compiler/gcc-arm-none-eabi-4_9-2015q3/bin/../lib/gcc/arm-none-eabi/4.9.3/armv7e-m/fpu/libgcc.a(_dvmd_tls.o)
 .data          0x00000000200000ec        0x0 /Applications/ti/ccsv6/tools/compiler/gcc-arm-none-eabi-4_9-2015q3/bin/../lib/gcc/arm-none-eabi/4.9.3/armv7e-m/fpu/libgcc.a(_divdi3.o)
 .data          0x00000000200000ec        0x0 /Applications/ti/ccsv6/tools/compiler/gcc-arm-none-eabi-4_9-2015q3/bin/../lib/gcc/arm-none-eabi/4.9.3/armv7e-m/fpu/libgcc.a(_udivdi3.o)
 .data          0x00000000200000ec        0x0 /Applications/ti/ccsv6/tools/compiler/gcc-arm-none-eabi-4_9-2015q3/bin/../lib/gcc/arm-none-eabi/4.9.3/armv7e-m/fpu/crtend.o
 .data          0x00000000200000ec        0x0 /Applications/ti/ccsv6/tools/compiler/gcc-arm-none-eabi-4_9-2015q3/bin/../lib/gcc/arm-none-eabi/4.9.3/armv7e-m/fpu/crtn.o
 *(.data*)
 .data.console_buff
                0x00000000200000ec      0x400 ./app_console.o
                0x00000000200000ec                console_buff
 .data.bright   0x00000000200004ec        0x4 ./app_rgbled.o
 .data.saturation
                0x00000000200004f0        0x4 ./app_rgbled.o
 .data.hue      0x00000000200004f4        0x4 ./app_rgbled.o
 .data.light_on
                0x00000000200004f8        0x1 ./app_rgbled.o
 *fill*         0x00000000200004f9        0x3 
 .data.temperature
                0x00000000200004fc        0x4 ./app_sht20.o
 .data.humidity
                0x0000000020000500        0x4 ./app_sht20.o
 .data.usr_btn  0x0000000020000504       0x20 ./main.o
                0x0000000020000504                usr_btn
 .data.SystemCoreClock
                0x0000000020000524        0x4 ./system_msp432p401r.o
                0x0000000020000524                SystemCoreClock
 .data.Hzk      0x0000000020000528      0x1c0 ./Board/drv_VGM128064/oled.o
                0x0000000020000528                Hzk
 .data.pwm_blue_Config
                0x00000000200006e8       0x18 ./Board/drv_color_led/color_led.o
                0x00000000200006e8                pwm_blue_Config
 .data.pwm_green_Config
                0x0000000020000700       0x18 ./Board/drv_color_led/color_led.o
                0x0000000020000700                pwm_green_Config
 .data.pwm_red_Config
                0x0000000020000718       0x18 ./Board/drv_color_led/color_led.o
                0x0000000020000718                pwm_red_Config
 .data.EMH_ARG_ALISDS_FORMAT
                0x0000000020000730        0xc ./Board/helper/emhost/emh_arg.o
                0x0000000020000730                EMH_ARG_ALISDS_FORMAT
 .data.EMH_ARG_ALISDS_CONN
                0x000000002000073c        0xc ./Board/helper/emhost/emh_arg.o
                0x000000002000073c                EMH_ARG_ALISDS_CONN
 .data.EMH_ARG_ALISDS_STATUS
                0x0000000020000748       0x14 ./Board/helper/emhost/emh_arg.o
                0x0000000020000748                EMH_ARG_ALISDS_STATUS
 .data.EMH_ARG_ALISDS_EV
                0x000000002000075c       0x10 ./Board/helper/emhost/emh_arg.o
                0x000000002000075c                EMH_ARG_ALISDS_EV
 .data.EMH_ARG_WLAN_EV
                0x000000002000076c       0x14 ./Board/helper/emhost/emh_arg.o
                0x000000002000076c                EMH_ARG_WLAN_EV
 .data.EMH_ARG_WLAN_STA
                0x0000000020000780       0x10 ./Board/helper/emhost/emh_arg.o
                0x0000000020000780                EMH_ARG_WLAN_STA
 .data._timeout
                0x0000000020000790        0x4 ./Board/helper/hal/mx_serial.o
 .data.g_err_proc
                0x0000000020000794        0x4 ./aos/soc_impl.o
                0x0000000020000794                g_err_proc
 .data:GPIO_PORT_TO_BASE
                0x0000000020000798       0x30 /Users/snowyang/workspace/MSP432_DriverLib_3_10_00_09/driverlib/MSP432P4xx/ccs/msp432p4xx_driverlib.lib(gpio.o)
 .data.__fdlib_version
                0x00000000200007c8        0x1 /Applications/ti/ccsv6/tools/compiler/gcc-arm-none-eabi-4_9-2015q3/bin/../lib/gcc/arm-none-eabi/4.9.3/../../../../arm-none-eabi/lib/armv7e-m/fpu/libm.a(lib_a-s_lib_ver.o)
                0x00000000200007c8                __fdlib_version
 *fill*         0x00000000200007c9        0x7 
 .data.impure_data
                0x00000000200007d0      0x428 /Applications/ti/ccsv6/tools/compiler/gcc-arm-none-eabi-4_9-2015q3/bin/../lib/gcc/arm-none-eabi/4.9.3/../../../../arm-none-eabi/lib/armv7e-m/fpu/libc.a(lib_a-impure.o)
 .data._impure_ptr
                0x0000000020000bf8        0x4 /Applications/ti/ccsv6/tools/compiler/gcc-arm-none-eabi-4_9-2015q3/bin/../lib/gcc/arm-none-eabi/4.9.3/../../../../arm-none-eabi/lib/armv7e-m/fpu/libc.a(lib_a-impure.o)
                0x0000000020000bf8                _impure_ptr
 .data.__malloc_av_
                0x0000000020000bfc      0x408 /Applications/ti/ccsv6/tools/compiler/gcc-arm-none-eabi-4_9-2015q3/bin/../lib/gcc/arm-none-eabi/4.9.3/../../../../arm-none-eabi/lib/armv7e-m/fpu/libc.a(lib_a-mallocr.o)
                0x0000000020000bfc                __malloc_av_
 .data.__malloc_trim_threshold
                0x0000000020001004        0x4 /Applications/ti/ccsv6/tools/compiler/gcc-arm-none-eabi-4_9-2015q3/bin/../lib/gcc/arm-none-eabi/4.9.3/../../../../arm-none-eabi/lib/armv7e-m/fpu/libc.a(lib_a-mallocr.o)
                0x0000000020001004                __malloc_trim_threshold
 .data.__malloc_sbrk_base
                0x0000000020001008        0x4 /Applications/ti/ccsv6/tools/compiler/gcc-arm-none-eabi-4_9-2015q3/bin/../lib/gcc/arm-none-eabi/4.9.3/../../../../arm-none-eabi/lib/armv7e-m/fpu/libc.a(lib_a-mallocr.o)
                0x0000000020001008                __malloc_sbrk_base
 .data.__ctype_ptr__
                0x000000002000100c        0x4 /Applications/ti/ccsv6/tools/compiler/gcc-arm-none-eabi-4_9-2015q3/bin/../lib/gcc/arm-none-eabi/4.9.3/../../../../arm-none-eabi/lib/armv7e-m/fpu/libc.a(lib_a-ctype_.o)
                0x000000002000100c                __ctype_ptr__
 .data.lc_message_charset
                0x0000000020001010       0x20 /Applications/ti/ccsv6/tools/compiler/gcc-arm-none-eabi-4_9-2015q3/bin/../lib/gcc/arm-none-eabi/4.9.3/../../../../arm-none-eabi/lib/armv7e-m/fpu/libc.a(lib_a-locale.o)
 .data.lconv    0x0000000020001030       0x38 /Applications/ti/ccsv6/tools/compiler/gcc-arm-none-eabi-4_9-2015q3/bin/../lib/gcc/arm-none-eabi/4.9.3/../../../../arm-none-eabi/lib/armv7e-m/fpu/libc.a(lib_a-locale.o)
 .data.lc_ctype_charset
                0x0000000020001068       0x20 /Applications/ti/ccsv6/tools/compiler/gcc-arm-none-eabi-4_9-2015q3/bin/../lib/gcc/arm-none-eabi/4.9.3/../../../../arm-none-eabi/lib/armv7e-m/fpu/libc.a(lib_a-locale.o)
 .data.__mb_cur_max
                0x0000000020001088        0x4 /Applications/ti/ccsv6/tools/compiler/gcc-arm-none-eabi-4_9-2015q3/bin/../lib/gcc/arm-none-eabi/4.9.3/../../../../arm-none-eabi/lib/armv7e-m/fpu/libc.a(lib_a-locale.o)
                0x0000000020001088                __mb_cur_max
 .data.__mbtowc
                0x000000002000108c        0x4 /Applications/ti/ccsv6/tools/compiler/gcc-arm-none-eabi-4_9-2015q3/bin/../lib/gcc/arm-none-eabi/4.9.3/../../../../arm-none-eabi/lib/armv7e-m/fpu/libc.a(lib_a-mbtowc_r.o)
                0x000000002000108c                __mbtowc
 .data.__wctomb
                0x0000000020001090        0x4 /Applications/ti/ccsv6/tools/compiler/gcc-arm-none-eabi-4_9-2015q3/bin/../lib/gcc/arm-none-eabi/4.9.3/../../../../arm-none-eabi/lib/armv7e-m/fpu/libc.a(lib_a-wctomb_r.o)
                0x0000000020001090                __wctomb
                0x0000000020001094                . = ALIGN (0x4)
                0x0000000020001094                __data_end__ = .

.jcr            0x0000000020001094        0x0 load address 0x00000000000166ec
 .jcr           0x0000000020001094        0x0 /Applications/ti/ccsv6/tools/compiler/gcc-arm-none-eabi-4_9-2015q3/bin/../lib/gcc/arm-none-eabi/4.9.3/armv7e-m/fpu/crtbegin.o

.igot.plt       0x0000000020001094        0x0 load address 0x00000000000166ec
 .igot.plt      0x0000000000000000        0x0 /Applications/ti/ccsv6/tools/compiler/gcc-arm-none-eabi-4_9-2015q3/bin/../lib/gcc/arm-none-eabi/4.9.3/armv7e-m/fpu/crtbegin.o

.bss            0x0000000020001098     0x2064
                0x0000000020001098                __bss_start__ = .
 *(.shbss)
 *(.bss)
 .bss           0x0000000020001098        0x0 /Applications/ti/ccsv6/tools/compiler/gcc-arm-none-eabi-4_9-2015q3/bin/../lib/gcc/arm-none-eabi/4.9.3/armv7e-m/fpu/crti.o
 .bss           0x0000000020001098       0x1c /Applications/ti/ccsv6/tools/compiler/gcc-arm-none-eabi-4_9-2015q3/bin/../lib/gcc/arm-none-eabi/4.9.3/armv7e-m/fpu/crtbegin.o
 .bss           0x00000000200010b4        0x0 /Applications/ti/ccsv6/tools/compiler/gcc-arm-none-eabi-4_9-2015q3/bin/../lib/gcc/arm-none-eabi/4.9.3/../../../../arm-none-eabi/lib/armv7e-m/fpu/crt0.o
 .bss           0x00000000200010b4        0x0 ./app_console.o
 .bss           0x00000000200010b4        0x0 ./app_rgbled.o
 .bss           0x00000000200010b4        0x0 ./app_sht20.o
 .bss           0x00000000200010b4        0x0 ./app_switch.o
 .bss           0x00000000200010b4        0x0 ./main.o
 .bss           0x00000000200010b4        0x0 ./startup_msp432p401r_gcc.o
 .bss           0x00000000200010b4        0x0 ./system_msp432p401r.o
 .bss           0x00000000200010b4        0x0 ./Board/AliCloud_SDS/alicloud_sds.o
 .bss           0x00000000200010b4        0x0 ./Board/drv_VGM128064/oled.o
 .bss           0x00000000200010b4        0x0 ./Board/drv_board.o
 .bss           0x00000000200010b4        0x0 ./Board/drv_board_test.o
 .bss           0x00000000200010b4        0x0 ./Board/drv_button/io_button.o
 .bss           0x00000000200010b4        0x0 ./Board/drv_color_led/color_led.o
 .bss           0x00000000200010b4        0x0 ./Board/drv_color_led/hsb2rgb.o
 .bss           0x00000000200010b4        0x0 ./Board/drv_sht20/sht2x.o
 .bss           0x00000000200010b4        0x0 ./Board/helper/emhost/ATCmdParser/ATCmdParser.o
 .bss           0x00000000200010b4        0x0 ./Board/helper/emhost/ATCmdParser/ATCmdParserTest.o
 .bss           0x00000000200010b4        0x0 ./Board/helper/emhost/emh_alisds.o
 .bss           0x00000000200010b4        0x0 ./Board/helper/emhost/emh_arg.o
 .bss           0x00000000200010b4        0x0 ./Board/helper/emhost/emh_module.o
 .bss           0x00000000200010b4        0x0 ./Board/helper/emhost/emh_wlan.o
 .bss           0x00000000200010b4        0x0 ./Board/helper/hal/mx_hal_atomic.o
 .bss           0x00000000200010b4        0x0 ./Board/helper/hal/mx_i2c.o
 .bss           0x00000000200010b4        0x0 ./Board/helper/hal/mx_serial.o
 .bss           0x00000000200010b4        0x0 ./Board/helper/hal/mx_stdio.o
 .bss           0x00000000200010b4        0x0 ./Board/helper/hal/mx_tick.o
 .bss           0x00000000200010b4        0x0 ./Board/helper/jsmn/jsmn.o
 .bss           0x00000000200010b4        0x0 ./Board/helper/jsmn/json_escape_str.o
 .bss           0x00000000200010b4        0x0 ./Board/helper/jsmn/json_generator.o
 .bss           0x00000000200010b4        0x0 ./Board/helper/jsmn/json_utils.o
 .bss           0x00000000200010b4        0x0 ./Board/helper/jsmn/json_wrappers.o
 .bss           0x00000000200010b4        0x0 ./Board/helper/mx_utils/mx_ringbuffer.o
 .bss           0x00000000200010b4        0x0 ./aos/soc_impl.o
 .bss           0x00000000200010b4        0x0 ./aos/trace_impl.o
 .bss           0x00000000200010b4        0x0 ./core/k_buf_queue.o
 .bss           0x00000000200010b4        0x0 ./core/k_dyn_mem_proc.o
 .bss           0x00000000200010b4        0x0 ./core/k_err.o
 .bss           0x00000000200010b4        0x0 ./core/k_event.o
 .bss           0x00000000200010b4        0x0 ./core/k_idle.o
 .bss           0x00000000200010b4        0x0 ./core/k_mm.o
 .bss           0x00000000200010b4        0x0 ./core/k_mm_blk.o
 .bss           0x00000000200010b4        0x0 ./core/k_mm_debug.o
 .bss           0x00000000200010b4        0x0 ./core/k_mutex.o
 .bss           0x00000000200010b4        0x0 ./core/k_obj.o
 .bss           0x00000000200010b4        0x0 ./core/k_pend.o
 .bss           0x00000000200010b4        0x0 ./core/k_queue.o
 .bss           0x00000000200010b4        0x0 ./core/k_ringbuf.o
 .bss           0x00000000200010b4        0x0 ./core/k_sched.o
 .bss           0x00000000200010b4        0x0 ./core/k_sem.o
 .bss           0x00000000200010b4        0x0 ./core/k_stats.o
 .bss           0x00000000200010b4        0x0 ./core/k_sys.o
 .bss           0x00000000200010b4        0x0 ./core/k_task.o
 .bss           0x00000000200010b4        0x0 ./core/k_task_sem.o
 .bss           0x00000000200010b4        0x0 ./core/k_tick.o
 .bss           0x00000000200010b4        0x0 ./core/k_time.o
 .bss           0x00000000200010b4        0x0 ./core/k_timer.o
 .bss           0x00000000200010b4        0x0 ./core/k_workqueue.o
 .bss           0x00000000200010b4        0x0 ./m4/port_c.o
 .bss           0x00000000200010b4        0x0 ./m4/port_s.o
 .bss           0x00000000200010b4        0x0 /Applications/ti/ccsv6/tools/compiler/gcc-arm-none-eabi-4_9-2015q3/bin/../lib/gcc/arm-none-eabi/4.9.3/../../../../arm-none-eabi/lib/armv7e-m/fpu/libm.a(lib_a-w_pow.o)
 .bss           0x00000000200010b4        0x0 /Applications/ti/ccsv6/tools/compiler/gcc-arm-none-eabi-4_9-2015q3/bin/../lib/gcc/arm-none-eabi/4.9.3/../../../../arm-none-eabi/lib/armv7e-m/fpu/libm.a(lib_a-e_pow.o)
 .bss           0x00000000200010b4        0x0 /Applications/ti/ccsv6/tools/compiler/gcc-arm-none-eabi-4_9-2015q3/bin/../lib/gcc/arm-none-eabi/4.9.3/../../../../arm-none-eabi/lib/armv7e-m/fpu/libm.a(lib_a-e_sqrt.o)
 .bss           0x00000000200010b4        0x0 /Applications/ti/ccsv6/tools/compiler/gcc-arm-none-eabi-4_9-2015q3/bin/../lib/gcc/arm-none-eabi/4.9.3/../../../../arm-none-eabi/lib/armv7e-m/fpu/libm.a(lib_a-s_fabs.o)
 .bss           0x00000000200010b4        0x0 /Applications/ti/ccsv6/tools/compiler/gcc-arm-none-eabi-4_9-2015q3/bin/../lib/gcc/arm-none-eabi/4.9.3/../../../../arm-none-eabi/lib/armv7e-m/fpu/libm.a(lib_a-s_finite.o)
 .bss           0x00000000200010b4        0x0 /Applications/ti/ccsv6/tools/compiler/gcc-arm-none-eabi-4_9-2015q3/bin/../lib/gcc/arm-none-eabi/4.9.3/../../../../arm-none-eabi/lib/armv7e-m/fpu/libm.a(lib_a-s_fpclassify.o)
 .bss           0x00000000200010b4        0x0 /Applications/ti/ccsv6/tools/compiler/gcc-arm-none-eabi-4_9-2015q3/bin/../lib/gcc/arm-none-eabi/4.9.3/../../../../arm-none-eabi/lib/armv7e-m/fpu/libm.a(lib_a-s_lib_ver.o)
 .bss           0x00000000200010b4        0x0 /Applications/ti/ccsv6/tools/compiler/gcc-arm-none-eabi-4_9-2015q3/bin/../lib/gcc/arm-none-eabi/4.9.3/../../../../arm-none-eabi/lib/armv7e-m/fpu/libm.a(lib_a-s_matherr.o)
 .bss           0x00000000200010b4        0x0 /Applications/ti/ccsv6/tools/compiler/gcc-arm-none-eabi-4_9-2015q3/bin/../lib/gcc/arm-none-eabi/4.9.3/../../../../arm-none-eabi/lib/armv7e-m/fpu/libm.a(lib_a-s_nan.o)
 .bss           0x00000000200010b4        0x0 /Applications/ti/ccsv6/tools/compiler/gcc-arm-none-eabi-4_9-2015q3/bin/../lib/gcc/arm-none-eabi/4.9.3/../../../../arm-none-eabi/lib/armv7e-m/fpu/libm.a(lib_a-s_rint.o)
 .bss           0x00000000200010b4        0x0 /Applications/ti/ccsv6/tools/compiler/gcc-arm-none-eabi-4_9-2015q3/bin/../lib/gcc/arm-none-eabi/4.9.3/../../../../arm-none-eabi/lib/armv7e-m/fpu/libm.a(lib_a-s_scalbn.o)
 .bss           0x00000000200010b4        0x0 /Applications/ti/ccsv6/tools/compiler/gcc-arm-none-eabi-4_9-2015q3/bin/../lib/gcc/arm-none-eabi/4.9.3/../../../../arm-none-eabi/lib/armv7e-m/fpu/libm.a(lib_a-s_copysign.o)
 .bss           0x00000000200010b4        0x0 /Applications/ti/ccsv6/tools/compiler/gcc-arm-none-eabi-4_9-2015q3/bin/../lib/gcc/arm-none-eabi/4.9.3/../../../../arm-none-eabi/lib/armv7e-m/fpu/libc.a(lib_a-assert.o)
 .bss           0x00000000200010b4        0x0 /Applications/ti/ccsv6/tools/compiler/gcc-arm-none-eabi-4_9-2015q3/bin/../lib/gcc/arm-none-eabi/4.9.3/../../../../arm-none-eabi/lib/armv7e-m/fpu/libc.a(lib_a-calloc.o)
 .bss           0x00000000200010b4        0x0 /Applications/ti/ccsv6/tools/compiler/gcc-arm-none-eabi-4_9-2015q3/bin/../lib/gcc/arm-none-eabi/4.9.3/../../../../arm-none-eabi/lib/armv7e-m/fpu/libc.a(lib_a-callocr.o)
 .bss           0x00000000200010b4        0x0 /Applications/ti/ccsv6/tools/compiler/gcc-arm-none-eabi-4_9-2015q3/bin/../lib/gcc/arm-none-eabi/4.9.3/../../../../arm-none-eabi/lib/armv7e-m/fpu/libc.a(lib_a-errno.o)
 .bss           0x00000000200010b4        0x0 /Applications/ti/ccsv6/tools/compiler/gcc-arm-none-eabi-4_9-2015q3/bin/../lib/gcc/arm-none-eabi/4.9.3/../../../../arm-none-eabi/lib/armv7e-m/fpu/libc.a(lib_a-exit.o)
 .bss           0x00000000200010b4        0x0 /Applications/ti/ccsv6/tools/compiler/gcc-arm-none-eabi-4_9-2015q3/bin/../lib/gcc/arm-none-eabi/4.9.3/../../../../arm-none-eabi/lib/armv7e-m/fpu/libc.a(lib_a-fiprintf.o)
 .bss           0x00000000200010b4        0x0 /Applications/ti/ccsv6/tools/compiler/gcc-arm-none-eabi-4_9-2015q3/bin/../lib/gcc/arm-none-eabi/4.9.3/../../../../arm-none-eabi/lib/armv7e-m/fpu/libc.a(lib_a-impure.o)
 .bss           0x00000000200010b4        0x0 /Applications/ti/ccsv6/tools/compiler/gcc-arm-none-eabi-4_9-2015q3/bin/../lib/gcc/arm-none-eabi/4.9.3/../../../../arm-none-eabi/lib/armv7e-m/fpu/libc.a(lib_a-init.o)
 .bss           0x00000000200010b4        0x0 /Applications/ti/ccsv6/tools/compiler/gcc-arm-none-eabi-4_9-2015q3/bin/../lib/gcc/arm-none-eabi/4.9.3/../../../../arm-none-eabi/lib/armv7e-m/fpu/libc.a(lib_a-malloc.o)
 .bss           0x00000000200010b4        0x0 /Applications/ti/ccsv6/tools/compiler/gcc-arm-none-eabi-4_9-2015q3/bin/../lib/gcc/arm-none-eabi/4.9.3/../../../../arm-none-eabi/lib/armv7e-m/fpu/libc.a(lib_a-mallocr.o)
 .bss           0x00000000200010b4        0x0 /Applications/ti/ccsv6/tools/compiler/gcc-arm-none-eabi-4_9-2015q3/bin/../lib/gcc/arm-none-eabi/4.9.3/../../../../arm-none-eabi/lib/armv7e-m/fpu/libc.a(lib_a-memcmp.o)
 .bss           0x00000000200010b4        0x0 /Applications/ti/ccsv6/tools/compiler/gcc-arm-none-eabi-4_9-2015q3/bin/../lib/gcc/arm-none-eabi/4.9.3/../../../../arm-none-eabi/lib/armv7e-m/fpu/libc.a(lib_a-memcpy.o)
 .bss           0x00000000200010b4        0x0 /Applications/ti/ccsv6/tools/compiler/gcc-arm-none-eabi-4_9-2015q3/bin/../lib/gcc/arm-none-eabi/4.9.3/../../../../arm-none-eabi/lib/armv7e-m/fpu/libc.a(lib_a-memset.o)
 .bss           0x00000000200010b4        0x0 /Applications/ti/ccsv6/tools/compiler/gcc-arm-none-eabi-4_9-2015q3/bin/../lib/gcc/arm-none-eabi/4.9.3/../../../../arm-none-eabi/lib/armv7e-m/fpu/libc.a(lib_a-mlock.o)
 .bss           0x00000000200010b4        0x0 /Applications/ti/ccsv6/tools/compiler/gcc-arm-none-eabi-4_9-2015q3/bin/../lib/gcc/arm-none-eabi/4.9.3/../../../../arm-none-eabi/lib/armv7e-m/fpu/libc.a(lib_a-printf.o)
 .bss           0x00000000200010b4        0x0 /Applications/ti/ccsv6/tools/compiler/gcc-arm-none-eabi-4_9-2015q3/bin/../lib/gcc/arm-none-eabi/4.9.3/../../../../arm-none-eabi/lib/armv7e-m/fpu/libc.a(lib_a-puts.o)
 .bss           0x00000000200010b4        0x0 /Applications/ti/ccsv6/tools/compiler/gcc-arm-none-eabi-4_9-2015q3/bin/../lib/gcc/arm-none-eabi/4.9.3/../../../../arm-none-eabi/lib/armv7e-m/fpu/libc.a(lib_a-realloc.o)
 .bss           0x00000000200010b4        0x0 /Applications/ti/ccsv6/tools/compiler/gcc-arm-none-eabi-4_9-2015q3/bin/../lib/gcc/arm-none-eabi/4.9.3/../../../../arm-none-eabi/lib/armv7e-m/fpu/libc.a(lib_a-reallocr.o)
 .bss           0x00000000200010b4        0x0 /Applications/ti/ccsv6/tools/compiler/gcc-arm-none-eabi-4_9-2015q3/bin/../lib/gcc/arm-none-eabi/4.9.3/../../../../arm-none-eabi/lib/armv7e-m/fpu/libc.a(lib_a-sbrkr.o)
 .bss           0x00000000200010b4        0x0 /Applications/ti/ccsv6/tools/compiler/gcc-arm-none-eabi-4_9-2015q3/bin/../lib/gcc/arm-none-eabi/4.9.3/../../../../arm-none-eabi/lib/armv7e-m/fpu/libc.a(lib_a-snprintf.o)
 .bss           0x00000000200010b4        0x0 /Applications/ti/ccsv6/tools/compiler/gcc-arm-none-eabi-4_9-2015q3/bin/../lib/gcc/arm-none-eabi/4.9.3/../../../../arm-none-eabi/lib/armv7e-m/fpu/libc.a(lib_a-sprintf.o)
 .bss           0x00000000200010b4        0x0 /Applications/ti/ccsv6/tools/compiler/gcc-arm-none-eabi-4_9-2015q3/bin/../lib/gcc/arm-none-eabi/4.9.3/../../../../arm-none-eabi/lib/armv7e-m/fpu/libc.a(lib_a-sscanf.o)
 .bss           0x00000000200010b4        0x0 /Applications/ti/ccsv6/tools/compiler/gcc-arm-none-eabi-4_9-2015q3/bin/../lib/gcc/arm-none-eabi/4.9.3/../../../../arm-none-eabi/lib/armv7e-m/fpu/libc.a(lib_a-stdio.o)
 .bss           0x00000000200010b4        0x0 /Applications/ti/ccsv6/tools/compiler/gcc-arm-none-eabi-4_9-2015q3/bin/../lib/gcc/arm-none-eabi/4.9.3/../../../../arm-none-eabi/lib/armv7e-m/fpu/libc.a(lib_a-strcmp.o)
 .bss           0x00000000200010b4        0x0 /Applications/ti/ccsv6/tools/compiler/gcc-arm-none-eabi-4_9-2015q3/bin/../lib/gcc/arm-none-eabi/4.9.3/../../../../arm-none-eabi/lib/armv7e-m/fpu/libc.a(lib_a-strcpy.o)
 .bss           0x00000000200010b4        0x0 /Applications/ti/ccsv6/tools/compiler/gcc-arm-none-eabi-4_9-2015q3/bin/../lib/gcc/arm-none-eabi/4.9.3/../../../../arm-none-eabi/lib/armv7e-m/fpu/libc.a(lib_a-strlen.o)
 .bss           0x00000000200010b4        0x0 /Applications/ti/ccsv6/tools/compiler/gcc-arm-none-eabi-4_9-2015q3/bin/../lib/gcc/arm-none-eabi/4.9.3/../../../../arm-none-eabi/lib/armv7e-m/fpu/libc.a(lib_a-strncmp.o)
 .bss           0x00000000200010b4        0x0 /Applications/ti/ccsv6/tools/compiler/gcc-arm-none-eabi-4_9-2015q3/bin/../lib/gcc/arm-none-eabi/4.9.3/../../../../arm-none-eabi/lib/armv7e-m/fpu/libc.a(lib_a-strncpy.o)
 .bss           0x00000000200010b4        0x0 /Applications/ti/ccsv6/tools/compiler/gcc-arm-none-eabi-4_9-2015q3/bin/../lib/gcc/arm-none-eabi/4.9.3/../../../../arm-none-eabi/lib/armv7e-m/fpu/libc.a(lib_a-strtoul.o)
 .bss           0x00000000200010b4        0x0 /Applications/ti/ccsv6/tools/compiler/gcc-arm-none-eabi-4_9-2015q3/bin/../lib/gcc/arm-none-eabi/4.9.3/../../../../arm-none-eabi/lib/armv7e-m/fpu/libc.a(lib_a-strtoull.o)
 .bss           0x00000000200010b4        0x0 /Applications/ti/ccsv6/tools/compiler/gcc-arm-none-eabi-4_9-2015q3/bin/../lib/gcc/arm-none-eabi/4.9.3/../../../../arm-none-eabi/lib/armv7e-m/fpu/libc.a(lib_a-strtoull_r.o)
 .bss           0x00000000200010b4        0x0 /Applications/ti/ccsv6/tools/compiler/gcc-arm-none-eabi-4_9-2015q3/bin/../lib/gcc/arm-none-eabi/4.9.3/../../../../arm-none-eabi/lib/armv7e-m/fpu/libc.a(lib_a-svfprintf.o)
 .bss           0x00000000200010b4        0x0 /Applications/ti/ccsv6/tools/compiler/gcc-arm-none-eabi-4_9-2015q3/bin/../lib/gcc/arm-none-eabi/4.9.3/../../../../arm-none-eabi/lib/armv7e-m/fpu/libc.a(lib_a-svfscanf.o)
 .bss           0x00000000200010b4        0x0 /Applications/ti/ccsv6/tools/compiler/gcc-arm-none-eabi-4_9-2015q3/bin/../lib/gcc/arm-none-eabi/4.9.3/../../../../arm-none-eabi/lib/armv7e-m/fpu/libc.a(lib_a-vfiprintf.o)
 .bss           0x00000000200010b4        0x0 /Applications/ti/ccsv6/tools/compiler/gcc-arm-none-eabi-4_9-2015q3/bin/../lib/gcc/arm-none-eabi/4.9.3/../../../../arm-none-eabi/lib/armv7e-m/fpu/libc.a(lib_a-vfprintf.o)
 .bss           0x00000000200010b4        0x0 /Applications/ti/ccsv6/tools/compiler/gcc-arm-none-eabi-4_9-2015q3/bin/../lib/gcc/arm-none-eabi/4.9.3/../../../../arm-none-eabi/lib/armv7e-m/fpu/libc.a(lib_a-vprintf.o)
 .bss           0x00000000200010b4        0x0 /Applications/ti/ccsv6/tools/compiler/gcc-arm-none-eabi-4_9-2015q3/bin/../lib/gcc/arm-none-eabi/4.9.3/../../../../arm-none-eabi/lib/armv7e-m/fpu/libc.a(lib_a-vsprintf.o)
 .bss           0x00000000200010b4        0x0 /Applications/ti/ccsv6/tools/compiler/gcc-arm-none-eabi-4_9-2015q3/bin/../lib/gcc/arm-none-eabi/4.9.3/../../../../arm-none-eabi/lib/armv7e-m/fpu/libc.a(lib_a-vsscanf.o)
 .bss           0x00000000200010b4        0x0 /Applications/ti/ccsv6/tools/compiler/gcc-arm-none-eabi-4_9-2015q3/bin/../lib/gcc/arm-none-eabi/4.9.3/../../../../arm-none-eabi/lib/armv7e-m/fpu/libc.a(lib_a-writer.o)
 .bss           0x00000000200010b4        0x0 /Applications/ti/ccsv6/tools/compiler/gcc-arm-none-eabi-4_9-2015q3/bin/../lib/gcc/arm-none-eabi/4.9.3/../../../../arm-none-eabi/lib/armv7e-m/fpu/libc.a(lib_a-wsetup.o)
 .bss           0x00000000200010b4        0x0 /Applications/ti/ccsv6/tools/compiler/gcc-arm-none-eabi-4_9-2015q3/bin/../lib/gcc/arm-none-eabi/4.9.3/../../../../arm-none-eabi/lib/armv7e-m/fpu/libc.a(lib_a-__call_atexit.o)
 .bss           0x00000000200010b4        0x0 /Applications/ti/ccsv6/tools/compiler/gcc-arm-none-eabi-4_9-2015q3/bin/../lib/gcc/arm-none-eabi/4.9.3/../../../../arm-none-eabi/lib/armv7e-m/fpu/libc.a(lib_a-abort.o)
 .bss           0x00000000200010b4        0x0 /Applications/ti/ccsv6/tools/compiler/gcc-arm-none-eabi-4_9-2015q3/bin/../lib/gcc/arm-none-eabi/4.9.3/../../../../arm-none-eabi/lib/armv7e-m/fpu/libc.a(lib_a-atexit.o)
 .bss           0x00000000200010b4        0x0 /Applications/ti/ccsv6/tools/compiler/gcc-arm-none-eabi-4_9-2015q3/bin/../lib/gcc/arm-none-eabi/4.9.3/../../../../arm-none-eabi/lib/armv7e-m/fpu/libc.a(lib_a-closer.o)
 .bss           0x00000000200010b4        0x0 /Applications/ti/ccsv6/tools/compiler/gcc-arm-none-eabi-4_9-2015q3/bin/../lib/gcc/arm-none-eabi/4.9.3/../../../../arm-none-eabi/lib/armv7e-m/fpu/libc.a(lib_a-ctype_.o)
 .bss           0x00000000200010b4        0x0 /Applications/ti/ccsv6/tools/compiler/gcc-arm-none-eabi-4_9-2015q3/bin/../lib/gcc/arm-none-eabi/4.9.3/../../../../arm-none-eabi/lib/armv7e-m/fpu/libc.a(lib_a-dtoa.o)
 .bss           0x00000000200010b4        0x0 /Applications/ti/ccsv6/tools/compiler/gcc-arm-none-eabi-4_9-2015q3/bin/../lib/gcc/arm-none-eabi/4.9.3/../../../../arm-none-eabi/lib/armv7e-m/fpu/libc.a(lib_a-fflush.o)
 .bss           0x00000000200010b4        0x0 /Applications/ti/ccsv6/tools/compiler/gcc-arm-none-eabi-4_9-2015q3/bin/../lib/gcc/arm-none-eabi/4.9.3/../../../../arm-none-eabi/lib/armv7e-m/fpu/libc.a(lib_a-findfp.o)
 .bss           0x00000000200010b4        0x0 /Applications/ti/ccsv6/tools/compiler/gcc-arm-none-eabi-4_9-2015q3/bin/../lib/gcc/arm-none-eabi/4.9.3/../../../../arm-none-eabi/lib/armv7e-m/fpu/libc.a(lib_a-fini.o)
 .bss           0x00000000200010b4        0x0 /Applications/ti/ccsv6/tools/compiler/gcc-arm-none-eabi-4_9-2015q3/bin/../lib/gcc/arm-none-eabi/4.9.3/../../../../arm-none-eabi/lib/armv7e-m/fpu/libc.a(lib_a-fputwc.o)
 .bss           0x00000000200010b4        0x0 /Applications/ti/ccsv6/tools/compiler/gcc-arm-none-eabi-4_9-2015q3/bin/../lib/gcc/arm-none-eabi/4.9.3/../../../../arm-none-eabi/lib/armv7e-m/fpu/libc.a(lib_a-freer.o)
 .bss           0x00000000200010b4        0x0 /Applications/ti/ccsv6/tools/compiler/gcc-arm-none-eabi-4_9-2015q3/bin/../lib/gcc/arm-none-eabi/4.9.3/../../../../arm-none-eabi/lib/armv7e-m/fpu/libc.a(lib_a-fvwrite.o)
 .bss           0x00000000200010b4        0x0 /Applications/ti/ccsv6/tools/compiler/gcc-arm-none-eabi-4_9-2015q3/bin/../lib/gcc/arm-none-eabi/4.9.3/../../../../arm-none-eabi/lib/armv7e-m/fpu/libc.a(lib_a-fwalk.o)
 .bss           0x00000000200010b4        0x0 /Applications/ti/ccsv6/tools/compiler/gcc-arm-none-eabi-4_9-2015q3/bin/../lib/gcc/arm-none-eabi/4.9.3/../../../../arm-none-eabi/lib/armv7e-m/fpu/libc.a(lib_a-iswspace.o)
 .bss           0x00000000200010b4        0x0 /Applications/ti/ccsv6/tools/compiler/gcc-arm-none-eabi-4_9-2015q3/bin/../lib/gcc/arm-none-eabi/4.9.3/../../../../arm-none-eabi/lib/armv7e-m/fpu/libc.a(lib_a-locale.o)
 .bss           0x00000000200010b4        0x0 /Applications/ti/ccsv6/tools/compiler/gcc-arm-none-eabi-4_9-2015q3/bin/../lib/gcc/arm-none-eabi/4.9.3/../../../../arm-none-eabi/lib/armv7e-m/fpu/libc.a(lib_a-lseekr.o)
 .bss           0x00000000200010b4        0x0 /Applications/ti/ccsv6/tools/compiler/gcc-arm-none-eabi-4_9-2015q3/bin/../lib/gcc/arm-none-eabi/4.9.3/../../../../arm-none-eabi/lib/armv7e-m/fpu/libc.a(lib_a-makebuf.o)
 .bss           0x00000000200010b4        0x0 /Applications/ti/ccsv6/tools/compiler/gcc-arm-none-eabi-4_9-2015q3/bin/../lib/gcc/arm-none-eabi/4.9.3/../../../../arm-none-eabi/lib/armv7e-m/fpu/libc.a(lib_a-mbrtowc.o)
 .bss           0x00000000200010b4        0x0 /Applications/ti/ccsv6/tools/compiler/gcc-arm-none-eabi-4_9-2015q3/bin/../lib/gcc/arm-none-eabi/4.9.3/../../../../arm-none-eabi/lib/armv7e-m/fpu/libc.a(lib_a-mbtowc_r.o)
 .bss           0x00000000200010b4        0x0 /Applications/ti/ccsv6/tools/compiler/gcc-arm-none-eabi-4_9-2015q3/bin/../lib/gcc/arm-none-eabi/4.9.3/../../../../arm-none-eabi/lib/armv7e-m/fpu/libc.a(lib_a-memchr.o)
 .bss           0x00000000200010b4        0x0 /Applications/ti/ccsv6/tools/compiler/gcc-arm-none-eabi-4_9-2015q3/bin/../lib/gcc/arm-none-eabi/4.9.3/../../../../arm-none-eabi/lib/armv7e-m/fpu/libc.a(lib_a-memmove.o)
 .bss           0x00000000200010b4        0x0 /Applications/ti/ccsv6/tools/compiler/gcc-arm-none-eabi-4_9-2015q3/bin/../lib/gcc/arm-none-eabi/4.9.3/../../../../arm-none-eabi/lib/armv7e-m/fpu/libc.a(lib_a-mprec.o)
 .bss           0x00000000200010b4        0x0 /Applications/ti/ccsv6/tools/compiler/gcc-arm-none-eabi-4_9-2015q3/bin/../lib/gcc/arm-none-eabi/4.9.3/../../../../arm-none-eabi/lib/armv7e-m/fpu/libc.a(lib_a-readr.o)
 .bss           0x00000000200010b4        0x0 /Applications/ti/ccsv6/tools/compiler/gcc-arm-none-eabi-4_9-2015q3/bin/../lib/gcc/arm-none-eabi/4.9.3/../../../../arm-none-eabi/lib/armv7e-m/fpu/libc.a(lib_a-reent.o)
 .bss           0x00000000200010b4        0x0 /Applications/ti/ccsv6/tools/compiler/gcc-arm-none-eabi-4_9-2015q3/bin/../lib/gcc/arm-none-eabi/4.9.3/../../../../arm-none-eabi/lib/armv7e-m/fpu/libc.a(lib_a-sccl.o)
 .bss           0x00000000200010b4        0x0 /Applications/ti/ccsv6/tools/compiler/gcc-arm-none-eabi-4_9-2015q3/bin/../lib/gcc/arm-none-eabi/4.9.3/../../../../arm-none-eabi/lib/armv7e-m/fpu/libc.a(lib_a-sf_nan.o)
 .bss           0x00000000200010b4        0x0 /Applications/ti/ccsv6/tools/compiler/gcc-arm-none-eabi-4_9-2015q3/bin/../lib/gcc/arm-none-eabi/4.9.3/../../../../arm-none-eabi/lib/armv7e-m/fpu/libc.a(lib_a-signal.o)
 .bss           0x00000000200010b4        0x0 /Applications/ti/ccsv6/tools/compiler/gcc-arm-none-eabi-4_9-2015q3/bin/../lib/gcc/arm-none-eabi/4.9.3/../../../../arm-none-eabi/lib/armv7e-m/fpu/libc.a(lib_a-signalr.o)
 .bss           0x00000000200010b4        0x0 /Applications/ti/ccsv6/tools/compiler/gcc-arm-none-eabi-4_9-2015q3/bin/../lib/gcc/arm-none-eabi/4.9.3/../../../../arm-none-eabi/lib/armv7e-m/fpu/libc.a(lib_a-strtod.o)
 .bss           0x00000000200010b4        0x0 /Applications/ti/ccsv6/tools/compiler/gcc-arm-none-eabi-4_9-2015q3/bin/../lib/gcc/arm-none-eabi/4.9.3/../../../../arm-none-eabi/lib/armv7e-m/fpu/libc.a(lib_a-strtol.o)
 .bss           0x00000000200010b4        0x0 /Applications/ti/ccsv6/tools/compiler/gcc-arm-none-eabi-4_9-2015q3/bin/../lib/gcc/arm-none-eabi/4.9.3/../../../../arm-none-eabi/lib/armv7e-m/fpu/libc.a(lib_a-strtoll_r.o)
 .bss           0x00000000200010b4        0x0 /Applications/ti/ccsv6/tools/compiler/gcc-arm-none-eabi-4_9-2015q3/bin/../lib/gcc/arm-none-eabi/4.9.3/../../../../arm-none-eabi/lib/armv7e-m/fpu/libc.a(lib_a-svfiprintf.o)
 .bss           0x00000000200010b4        0x0 /Applications/ti/ccsv6/tools/compiler/gcc-arm-none-eabi-4_9-2015q3/bin/../lib/gcc/arm-none-eabi/4.9.3/../../../../arm-none-eabi/lib/armv7e-m/fpu/libc.a(lib_a-svfiscanf.o)
 .bss           0x00000000200010b4        0x0 /Applications/ti/ccsv6/tools/compiler/gcc-arm-none-eabi-4_9-2015q3/bin/../lib/gcc/arm-none-eabi/4.9.3/../../../../arm-none-eabi/lib/armv7e-m/fpu/libc.a(lib_a-ungetc.o)
 .bss           0x00000000200010b4        0x0 /Applications/ti/ccsv6/tools/compiler/gcc-arm-none-eabi-4_9-2015q3/bin/../lib/gcc/arm-none-eabi/4.9.3/../../../../arm-none-eabi/lib/armv7e-m/fpu/libc.a(lib_a-wbuf.o)
 .bss           0x00000000200010b4        0x0 /Applications/ti/ccsv6/tools/compiler/gcc-arm-none-eabi-4_9-2015q3/bin/../lib/gcc/arm-none-eabi/4.9.3/../../../../arm-none-eabi/lib/armv7e-m/fpu/libc.a(lib_a-wcrtomb.o)
 .bss           0x00000000200010b4        0x0 /Applications/ti/ccsv6/tools/compiler/gcc-arm-none-eabi-4_9-2015q3/bin/../lib/gcc/arm-none-eabi/4.9.3/../../../../arm-none-eabi/lib/armv7e-m/fpu/libc.a(lib_a-wctomb_r.o)
 .bss           0x00000000200010b4        0x0 /Applications/ti/ccsv6/tools/compiler/gcc-arm-none-eabi-4_9-2015q3/bin/../lib/gcc/arm-none-eabi/4.9.3/../../../../arm-none-eabi/lib/armv7e-m/fpu/libc.a(lib_a-__atexit.o)
 .bss           0x00000000200010b4        0x0 /Applications/ti/ccsv6/tools/compiler/gcc-arm-none-eabi-4_9-2015q3/bin/../lib/gcc/arm-none-eabi/4.9.3/../../../../arm-none-eabi/lib/armv7e-m/fpu/libc.a(lib_a-fclose.o)
 .bss           0x00000000200010b4        0x0 /Applications/ti/ccsv6/tools/compiler/gcc-arm-none-eabi-4_9-2015q3/bin/../lib/gcc/arm-none-eabi/4.9.3/../../../../arm-none-eabi/lib/armv7e-m/fpu/libc.a(lib_a-fstatr.o)
 .bss           0x00000000200010b4        0x0 /Applications/ti/ccsv6/tools/compiler/gcc-arm-none-eabi-4_9-2015q3/bin/../lib/gcc/arm-none-eabi/4.9.3/../../../../arm-none-eabi/lib/armv7e-m/fpu/libc.a(lib_a-gdtoa-gethex.o)
 .bss           0x00000000200010b4        0x0 /Applications/ti/ccsv6/tools/compiler/gcc-arm-none-eabi-4_9-2015q3/bin/../lib/gcc/arm-none-eabi/4.9.3/../../../../arm-none-eabi/lib/armv7e-m/fpu/libc.a(lib_a-gdtoa-hexnan.o)
 .bss           0x00000000200010b4        0x0 /Applications/ti/ccsv6/tools/compiler/gcc-arm-none-eabi-4_9-2015q3/bin/../lib/gcc/arm-none-eabi/4.9.3/../../../../arm-none-eabi/lib/armv7e-m/fpu/libc.a(lib_a-isattyr.o)
 .bss           0x00000000200010b4        0x0 /Applications/ti/ccsv6/tools/compiler/gcc-arm-none-eabi-4_9-2015q3/bin/../lib/gcc/arm-none-eabi/4.9.3/../../../../arm-none-eabi/lib/armv7e-m/fpu/libnosys.a(close.o)
 .bss           0x00000000200010b4        0x0 /Applications/ti/ccsv6/tools/compiler/gcc-arm-none-eabi-4_9-2015q3/bin/../lib/gcc/arm-none-eabi/4.9.3/../../../../arm-none-eabi/lib/armv7e-m/fpu/libnosys.a(fstat.o)
 .bss           0x00000000200010b4        0x0 /Applications/ti/ccsv6/tools/compiler/gcc-arm-none-eabi-4_9-2015q3/bin/../lib/gcc/arm-none-eabi/4.9.3/../../../../arm-none-eabi/lib/armv7e-m/fpu/libnosys.a(getpid.o)
 .bss           0x00000000200010b4        0x0 /Applications/ti/ccsv6/tools/compiler/gcc-arm-none-eabi-4_9-2015q3/bin/../lib/gcc/arm-none-eabi/4.9.3/../../../../arm-none-eabi/lib/armv7e-m/fpu/libnosys.a(isatty.o)
 .bss           0x00000000200010b4        0x0 /Applications/ti/ccsv6/tools/compiler/gcc-arm-none-eabi-4_9-2015q3/bin/../lib/gcc/arm-none-eabi/4.9.3/../../../../arm-none-eabi/lib/armv7e-m/fpu/libnosys.a(kill.o)
 .bss           0x00000000200010b4        0x0 /Applications/ti/ccsv6/tools/compiler/gcc-arm-none-eabi-4_9-2015q3/bin/../lib/gcc/arm-none-eabi/4.9.3/../../../../arm-none-eabi/lib/armv7e-m/fpu/libnosys.a(lseek.o)
 .bss           0x00000000200010b4        0x0 /Applications/ti/ccsv6/tools/compiler/gcc-arm-none-eabi-4_9-2015q3/bin/../lib/gcc/arm-none-eabi/4.9.3/../../../../arm-none-eabi/lib/armv7e-m/fpu/libnosys.a(read.o)
 .bss           0x00000000200010b4        0x0 /Applications/ti/ccsv6/tools/compiler/gcc-arm-none-eabi-4_9-2015q3/bin/../lib/gcc/arm-none-eabi/4.9.3/../../../../arm-none-eabi/lib/armv7e-m/fpu/libnosys.a(sbrk.o)
 .bss           0x00000000200010b4        0x0 /Applications/ti/ccsv6/tools/compiler/gcc-arm-none-eabi-4_9-2015q3/bin/../lib/gcc/arm-none-eabi/4.9.3/../../../../arm-none-eabi/lib/armv7e-m/fpu/libnosys.a(_exit.o)
 .bss           0x00000000200010b4        0x0 /Applications/ti/ccsv6/tools/compiler/gcc-arm-none-eabi-4_9-2015q3/bin/../lib/gcc/arm-none-eabi/4.9.3/armv7e-m/fpu/libgcc.a(_arm_addsubdf3.o)
 .bss           0x00000000200010b4        0x0 /Applications/ti/ccsv6/tools/compiler/gcc-arm-none-eabi-4_9-2015q3/bin/../lib/gcc/arm-none-eabi/4.9.3/armv7e-m/fpu/libgcc.a(_arm_muldivdf3.o)
 .bss           0x00000000200010b4        0x0 /Applications/ti/ccsv6/tools/compiler/gcc-arm-none-eabi-4_9-2015q3/bin/../lib/gcc/arm-none-eabi/4.9.3/armv7e-m/fpu/libgcc.a(_arm_cmpdf2.o)
 .bss           0x00000000200010b4        0x0 /Applications/ti/ccsv6/tools/compiler/gcc-arm-none-eabi-4_9-2015q3/bin/../lib/gcc/arm-none-eabi/4.9.3/armv7e-m/fpu/libgcc.a(_arm_fixdfsi.o)
 .bss           0x00000000200010b4        0x0 /Applications/ti/ccsv6/tools/compiler/gcc-arm-none-eabi-4_9-2015q3/bin/../lib/gcc/arm-none-eabi/4.9.3/armv7e-m/fpu/libgcc.a(_arm_fixunsdfsi.o)
 .bss           0x00000000200010b4        0x0 /Applications/ti/ccsv6/tools/compiler/gcc-arm-none-eabi-4_9-2015q3/bin/../lib/gcc/arm-none-eabi/4.9.3/armv7e-m/fpu/libgcc.a(_arm_truncdfsf2.o)
 .bss           0x00000000200010b4        0x0 /Applications/ti/ccsv6/tools/compiler/gcc-arm-none-eabi-4_9-2015q3/bin/../lib/gcc/arm-none-eabi/4.9.3/armv7e-m/fpu/libgcc.a(_aeabi_uldivmod.o)
 .bss           0x00000000200010b4        0x0 /Applications/ti/ccsv6/tools/compiler/gcc-arm-none-eabi-4_9-2015q3/bin/../lib/gcc/arm-none-eabi/4.9.3/armv7e-m/fpu/libgcc.a(bpabi.o)
 .bss           0x00000000200010b4        0x0 /Applications/ti/ccsv6/tools/compiler/gcc-arm-none-eabi-4_9-2015q3/bin/../lib/gcc/arm-none-eabi/4.9.3/armv7e-m/fpu/libgcc.a(_dvmd_tls.o)
 .bss           0x00000000200010b4        0x0 /Applications/ti/ccsv6/tools/compiler/gcc-arm-none-eabi-4_9-2015q3/bin/../lib/gcc/arm-none-eabi/4.9.3/armv7e-m/fpu/libgcc.a(_divdi3.o)
 .bss           0x00000000200010b4        0x0 /Applications/ti/ccsv6/tools/compiler/gcc-arm-none-eabi-4_9-2015q3/bin/../lib/gcc/arm-none-eabi/4.9.3/armv7e-m/fpu/libgcc.a(_udivdi3.o)
 .bss           0x00000000200010b4        0x0 /Applications/ti/ccsv6/tools/compiler/gcc-arm-none-eabi-4_9-2015q3/bin/../lib/gcc/arm-none-eabi/4.9.3/armv7e-m/fpu/crtend.o
 .bss           0x00000000200010b4        0x0 /Applications/ti/ccsv6/tools/compiler/gcc-arm-none-eabi-4_9-2015q3/bin/../lib/gcc/arm-none-eabi/4.9.3/armv7e-m/fpu/crtn.o
 *(.bss.*)
 .bss.latest_sensor_read_tick
                0x00000000200010b4        0x4 ./app_sht20.o
 .bss.switch_1  0x00000000200010b8        0x1 ./app_switch.o
 .bss.switch_2  0x00000000200010b9        0x1 ./app_switch.o
 *fill*         0x00000000200010ba        0x6 
 .bss.demo_task_obj
                0x00000000200010c0       0x58 ./main.o
 .bss.ali_config
                0x0000000020001118        0x4 ./Board/AliCloud_SDS/alicloud_sds.o
 .bss.context   0x000000002000111c        0x8 ./Board/AliCloud_SDS/alicloud_sds.o
 .bss.changed_handles
                0x0000000020001124        0x4 ./Board/AliCloud_SDS/alicloud_sds.o
 .bss.alisds_attr_db
                0x0000000020001128        0x4 ./Board/AliCloud_SDS/alicloud_sds.o
 .bss.incomming_val
                0x000000002000112c      0x400 ./Board/AliCloud_SDS/alicloud_sds.o
 .bss.incomming_name
                0x000000002000152c       0x40 ./Board/AliCloud_SDS/alicloud_sds.o
 .bss.i2c       0x000000002000156c        0x4 ./Board/drv_VGM128064/oled.o
 .bss.i2c       0x0000000020001570        0x4 ./Board/drv_sht20/sht2x.o
 .bss._dbg_on   0x0000000020001574        0x1 ./Board/helper/emhost/ATCmdParser/ATCmdParser.o
                0x0000000020001574                _dbg_on
 *fill*         0x0000000020001575        0x3 
 .bss._oobs     0x0000000020001578        0x4 ./Board/helper/emhost/ATCmdParser/ATCmdParser.o
 .bss._buffer   0x000000002000157c      0x200 ./Board/helper/emhost/ATCmdParser/ATCmdParser.o
 .bss._output_delim_size
                0x000000002000177c        0x4 ./Board/helper/emhost/ATCmdParser/ATCmdParser.o
 .bss._input_delimiter
                0x0000000020001780        0x4 ./Board/helper/emhost/ATCmdParser/ATCmdParser.o
 .bss._input_delim_size
                0x0000000020001784        0x4 ./Board/helper/emhost/ATCmdParser/ATCmdParser.o
 .bss._fw_version
                0x0000000020001788       0x20 ./Board/helper/emhost/emh_module.o
 .bss.i2c       0x00000000200017a8        0x4 ./Board/helper/hal/mx_i2c.o
 .bss._ticker_count
                0x00000000200017ac        0x4 ./Board/helper/hal/mx_tick.o
 .bss.__malloc_max_total_mem
                0x00000000200017b0        0x4 /Applications/ti/ccsv6/tools/compiler/gcc-arm-none-eabi-4_9-2015q3/bin/../lib/gcc/arm-none-eabi/4.9.3/../../../../arm-none-eabi/lib/armv7e-m/fpu/libc.a(lib_a-mallocr.o)
                0x00000000200017b0                __malloc_max_total_mem
 .bss.__malloc_max_sbrked_mem
                0x00000000200017b4        0x4 /Applications/ti/ccsv6/tools/compiler/gcc-arm-none-eabi-4_9-2015q3/bin/../lib/gcc/arm-none-eabi/4.9.3/../../../../arm-none-eabi/lib/armv7e-m/fpu/libc.a(lib_a-mallocr.o)
                0x00000000200017b4                __malloc_max_sbrked_mem
 .bss.__malloc_top_pad
                0x00000000200017b8        0x4 /Applications/ti/ccsv6/tools/compiler/gcc-arm-none-eabi-4_9-2015q3/bin/../lib/gcc/arm-none-eabi/4.9.3/../../../../arm-none-eabi/lib/armv7e-m/fpu/libc.a(lib_a-mallocr.o)
                0x00000000200017b8                __malloc_top_pad
 .bss.__malloc_current_mallinfo
                0x00000000200017bc       0x28 /Applications/ti/ccsv6/tools/compiler/gcc-arm-none-eabi-4_9-2015q3/bin/../lib/gcc/arm-none-eabi/4.9.3/../../../../arm-none-eabi/lib/armv7e-m/fpu/libc.a(lib_a-mallocr.o)
                0x00000000200017bc                __malloc_current_mallinfo
 .bss.heap_end.4079
                0x00000000200017e4        0x4 /Applications/ti/ccsv6/tools/compiler/gcc-arm-none-eabi-4_9-2015q3/bin/../lib/gcc/arm-none-eabi/4.9.3/../../../../arm-none-eabi/lib/armv7e-m/fpu/libnosys.a(sbrk.o)
 *(COMMON)
 COMMON         0x00000000200017e8       0x22 ./app_sht20.o
                0x00000000200017e8                sensor_display
 *fill*         0x000000002000180a        0x2 
 COMMON         0x000000002000180c     0x1000 ./main.o
                0x000000002000180c                demo_task_buf
 COMMON         0x000000002000280c        0x4 ./Board/helper/emhost/ATCmdParser/ATCmdParser.o
                0x000000002000280c                _output_delimiter
 COMMON         0x0000000020002810      0x410 ./Board/helper/hal/mx_serial.o
                0x0000000020002810                at_buffer
                0x0000000020002c10                at_rx
 COMMON         0x0000000020002c20      0x4d8 ./core/k_obj.o
                0x0000000020002c20                g_idle_count
                0x0000000020002c28                g_tick_head
                0x0000000020002c30                g_kobj_list
                0x0000000020002c58                g_ready_queue
                0x0000000020002d5c                g_intrpt_nested_level
                0x0000000020002d60                g_sched_lock
                0x0000000020002d64                g_preferred_ready_task
                0x0000000020002d68                g_idle_task_spawned
                0x0000000020002d70                g_idle_task
                0x0000000020002dc8                g_tick_count
                0x0000000020002dd0                g_sys_stat
                0x0000000020002dd4                g_active_task
                0x0000000020002dd8                g_idle_task_stack
 COMMON         0x00000000200030f8        0x4 /Applications/ti/ccsv6/tools/compiler/gcc-arm-none-eabi-4_9-2015q3/bin/../lib/gcc/arm-none-eabi/4.9.3/../../../../arm-none-eabi/lib/armv7e-m/fpu/libc.a(lib_a-reent.o)
                0x00000000200030f8                errno
                0x00000000200030fc                . = ALIGN (0x4)
                0x00000000200030fc                __bss_end__ = .

.heap           0x00000000200030fc        0x0
                0x00000000200030fc                __heap_start__ = .
                0x00000000200030fc                end = __heap_start__
                0x00000000200030fc                _end = end
                0x00000000200030fc                __end = end
 *(.heap)
                0x00000000200030fc                __heap_end__ = .
                0x00000000200030fc                __HeapLimit = __heap_end__

.stack          0x0000000020003100        0x0
                0x0000000020003100                _stack = .
                0x0000000020003100                __stack = .
 *(.stack)
LOAD /Users/snowyang/workspace/MSP432_DriverLib_3_10_00_09/driverlib/MSP432P4xx/ccs/msp432p4xx_driverlib.lib
START GROUP
LOAD /Applications/ti/ccsv6/tools/compiler/gcc-arm-none-eabi-4_9-2015q3/bin/../lib/gcc/arm-none-eabi/4.9.3/../../../../arm-none-eabi/lib/armv7e-m/fpu/libm.a
LOAD /Applications/ti/ccsv6/tools/compiler/gcc-arm-none-eabi-4_9-2015q3/bin/../lib/gcc/arm-none-eabi/4.9.3/../../../../arm-none-eabi/lib/armv7e-m/fpu/libc.a
LOAD /Applications/ti/ccsv6/tools/compiler/gcc-arm-none-eabi-4_9-2015q3/bin/../lib/gcc/arm-none-eabi/4.9.3/../../../../arm-none-eabi/lib/armv7e-m/fpu/libnosys.a
END GROUP
START GROUP
LOAD /Applications/ti/ccsv6/tools/compiler/gcc-arm-none-eabi-4_9-2015q3/bin/../lib/gcc/arm-none-eabi/4.9.3/armv7e-m/fpu/libgcc.a
LOAD /Applications/ti/ccsv6/tools/compiler/gcc-arm-none-eabi-4_9-2015q3/bin/../lib/gcc/arm-none-eabi/4.9.3/../../../../arm-none-eabi/lib/armv7e-m/fpu/libg.a
LOAD /Applications/ti/ccsv6/tools/compiler/gcc-arm-none-eabi-4_9-2015q3/bin/../lib/gcc/arm-none-eabi/4.9.3/../../../../arm-none-eabi/lib/armv7e-m/fpu/libc.a
END GROUP
LOAD /Applications/ti/ccsv6/tools/compiler/gcc-arm-none-eabi-4_9-2015q3/bin/../lib/gcc/arm-none-eabi/4.9.3/armv7e-m/fpu/crtend.o
LOAD /Applications/ti/ccsv6/tools/compiler/gcc-arm-none-eabi-4_9-2015q3/bin/../lib/gcc/arm-none-eabi/4.9.3/armv7e-m/fpu/crtn.o
OUTPUT(iot_sdk.out elf32-littlearm)

.ARM.attributes
                0x0000000000000000       0x32
 .ARM.attributes
                0x0000000000000000       0x22 /Applications/ti/ccsv6/tools/compiler/gcc-arm-none-eabi-4_9-2015q3/bin/../lib/gcc/arm-none-eabi/4.9.3/armv7e-m/fpu/crti.o
 .ARM.attributes
                0x0000000000000022       0x34 /Applications/ti/ccsv6/tools/compiler/gcc-arm-none-eabi-4_9-2015q3/bin/../lib/gcc/arm-none-eabi/4.9.3/armv7e-m/fpu/crtbegin.o
 .ARM.attributes
                0x0000000000000056       0x20 /Applications/ti/ccsv6/tools/compiler/gcc-arm-none-eabi-4_9-2015q3/bin/../lib/gcc/arm-none-eabi/4.9.3/../../../../arm-none-eabi/lib/armv7e-m/fpu/crt0.o
 .ARM.attributes
                0x0000000000000076       0x39 ./app_console.o
 .ARM.attributes
                0x00000000000000af       0x39 ./app_rgbled.o
 .ARM.attributes
                0x00000000000000e8       0x39 ./app_sht20.o
 .ARM.attributes
                0x0000000000000121       0x39 ./app_switch.o
 .ARM.attributes
                0x000000000000015a       0x39 ./main.o
 .ARM.attributes
                0x0000000000000193       0x39 ./startup_msp432p401r_gcc.o
 .ARM.attributes
                0x00000000000001cc       0x39 ./system_msp432p401r.o
 .ARM.attributes
                0x0000000000000205       0x39 ./Board/AliCloud_SDS/alicloud_sds.o
 .ARM.attributes
                0x000000000000023e       0x39 ./Board/drv_VGM128064/oled.o
 .ARM.attributes
                0x0000000000000277       0x39 ./Board/drv_board.o
 .ARM.attributes
                0x00000000000002b0       0x39 ./Board/drv_board_test.o
 .ARM.attributes
                0x00000000000002e9       0x39 ./Board/drv_button/io_button.o
 .ARM.attributes
                0x0000000000000322       0x39 ./Board/drv_color_led/color_led.o
 .ARM.attributes
                0x000000000000035b       0x39 ./Board/drv_color_led/hsb2rgb.o
 .ARM.attributes
                0x0000000000000394       0x39 ./Board/drv_sht20/sht2x.o
 .ARM.attributes
                0x00000000000003cd       0x39 ./Board/helper/emhost/ATCmdParser/ATCmdParser.o
 .ARM.attributes
                0x0000000000000406       0x39 ./Board/helper/emhost/ATCmdParser/ATCmdParserTest.o
 .ARM.attributes
                0x000000000000043f       0x39 ./Board/helper/emhost/emh_alisds.o
 .ARM.attributes
                0x0000000000000478       0x39 ./Board/helper/emhost/emh_arg.o
 .ARM.attributes
                0x00000000000004b1       0x39 ./Board/helper/emhost/emh_module.o
 .ARM.attributes
                0x00000000000004ea       0x39 ./Board/helper/emhost/emh_wlan.o
 .ARM.attributes
                0x0000000000000523       0x39 ./Board/helper/hal/mx_hal_atomic.o
 .ARM.attributes
                0x000000000000055c       0x39 ./Board/helper/hal/mx_i2c.o
 .ARM.attributes
                0x0000000000000595       0x39 ./Board/helper/hal/mx_serial.o
 .ARM.attributes
                0x00000000000005ce       0x39 ./Board/helper/hal/mx_stdio.o
 .ARM.attributes
                0x0000000000000607       0x39 ./Board/helper/hal/mx_tick.o
 .ARM.attributes
                0x0000000000000640       0x39 ./Board/helper/jsmn/jsmn.o
 .ARM.attributes
                0x0000000000000679       0x39 ./Board/helper/jsmn/json_escape_str.o
 .ARM.attributes
                0x00000000000006b2       0x39 ./Board/helper/jsmn/json_generator.o
 .ARM.attributes
                0x00000000000006eb       0x39 ./Board/helper/jsmn/json_utils.o
 .ARM.attributes
                0x0000000000000724       0x39 ./Board/helper/jsmn/json_wrappers.o
 .ARM.attributes
                0x000000000000075d       0x39 ./Board/helper/mx_utils/mx_ringbuffer.o
 .ARM.attributes
                0x0000000000000796       0x39 ./aos/soc_impl.o
 .ARM.attributes
                0x00000000000007cf       0x39 ./aos/trace_impl.o
 .ARM.attributes
                0x0000000000000808       0x39 ./core/k_buf_queue.o
 .ARM.attributes
                0x0000000000000841       0x39 ./core/k_dyn_mem_proc.o
 .ARM.attributes
                0x000000000000087a       0x39 ./core/k_err.o
 .ARM.attributes
                0x00000000000008b3       0x39 ./core/k_event.o
 .ARM.attributes
                0x00000000000008ec       0x39 ./core/k_idle.o
 .ARM.attributes
                0x0000000000000925       0x39 ./core/k_mm.o
 .ARM.attributes
                0x000000000000095e       0x39 ./core/k_mm_blk.o
 .ARM.attributes
                0x0000000000000997       0x39 ./core/k_mm_debug.o
 .ARM.attributes
                0x00000000000009d0       0x39 ./core/k_mutex.o
 .ARM.attributes
                0x0000000000000a09       0x39 ./core/k_obj.o
 .ARM.attributes
                0x0000000000000a42       0x39 ./core/k_pend.o
 .ARM.attributes
                0x0000000000000a7b       0x39 ./core/k_queue.o
 .ARM.attributes
                0x0000000000000ab4       0x39 ./core/k_ringbuf.o
 .ARM.attributes
                0x0000000000000aed       0x39 ./core/k_sched.o
 .ARM.attributes
                0x0000000000000b26       0x39 ./core/k_sem.o
 .ARM.attributes
                0x0000000000000b5f       0x39 ./core/k_stats.o
 .ARM.attributes
                0x0000000000000b98       0x39 ./core/k_sys.o
 .ARM.attributes
                0x0000000000000bd1       0x39 ./core/k_task.o
 .ARM.attributes
                0x0000000000000c0a       0x39 ./core/k_task_sem.o
 .ARM.attributes
                0x0000000000000c43       0x39 ./core/k_tick.o
 .ARM.attributes
                0x0000000000000c7c       0x39 ./core/k_time.o
 .ARM.attributes
                0x0000000000000cb5       0x39 ./core/k_timer.o
 .ARM.attributes
                0x0000000000000cee       0x39 ./core/k_workqueue.o
 .ARM.attributes
                0x0000000000000d27       0x39 ./m4/port_c.o
 .ARM.attributes
                0x0000000000000d60       0x25 ./m4/port_s.o
 .ARM.attributes
                0x0000000000000d85       0x5e /Users/snowyang/workspace/MSP432_DriverLib_3_10_00_09/driverlib/MSP432P4xx/ccs/msp432p4xx_driverlib.lib(gpio.o)
 .ARM.attributes
                0x0000000000000de3       0x5e /Users/snowyang/workspace/MSP432_DriverLib_3_10_00_09/driverlib/MSP432P4xx/ccs/msp432p4xx_driverlib.lib(i2c.o)
 .ARM.attributes
                0x0000000000000e41       0x5e /Users/snowyang/workspace/MSP432_DriverLib_3_10_00_09/driverlib/MSP432P4xx/ccs/msp432p4xx_driverlib.lib(interrupt.o)
 .ARM.attributes
                0x0000000000000e9f       0x5e /Users/snowyang/workspace/MSP432_DriverLib_3_10_00_09/driverlib/MSP432P4xx/ccs/msp432p4xx_driverlib.lib(uart.o)
 .ARM.attributes
                0x0000000000000efd       0x5e /Users/snowyang/workspace/MSP432_DriverLib_3_10_00_09/driverlib/MSP432P4xx/ccs/msp432p4xx_driverlib.lib(cpu.o)
 .ARM.attributes
                0x0000000000000f5b       0x34 /Applications/ti/ccsv6/tools/compiler/gcc-arm-none-eabi-4_9-2015q3/bin/../lib/gcc/arm-none-eabi/4.9.3/../../../../arm-none-eabi/lib/armv7e-m/fpu/libm.a(lib_a-w_pow.o)
 .ARM.attributes
                0x0000000000000f8f       0x34 /Applications/ti/ccsv6/tools/compiler/gcc-arm-none-eabi-4_9-2015q3/bin/../lib/gcc/arm-none-eabi/4.9.3/../../../../arm-none-eabi/lib/armv7e-m/fpu/libm.a(lib_a-e_pow.o)
 .ARM.attributes
                0x0000000000000fc3       0x34 /Applications/ti/ccsv6/tools/compiler/gcc-arm-none-eabi-4_9-2015q3/bin/../lib/gcc/arm-none-eabi/4.9.3/../../../../arm-none-eabi/lib/armv7e-m/fpu/libm.a(lib_a-e_sqrt.o)
 .ARM.attributes
                0x0000000000000ff7       0x34 /Applications/ti/ccsv6/tools/compiler/gcc-arm-none-eabi-4_9-2015q3/bin/../lib/gcc/arm-none-eabi/4.9.3/../../../../arm-none-eabi/lib/armv7e-m/fpu/libm.a(lib_a-s_fabs.o)
 .ARM.attributes
                0x000000000000102b       0x34 /Applications/ti/ccsv6/tools/compiler/gcc-arm-none-eabi-4_9-2015q3/bin/../lib/gcc/arm-none-eabi/4.9.3/../../../../arm-none-eabi/lib/armv7e-m/fpu/libm.a(lib_a-s_finite.o)
 .ARM.attributes
                0x000000000000105f       0x34 /Applications/ti/ccsv6/tools/compiler/gcc-arm-none-eabi-4_9-2015q3/bin/../lib/gcc/arm-none-eabi/4.9.3/../../../../arm-none-eabi/lib/armv7e-m/fpu/libm.a(lib_a-s_fpclassify.o)
 .ARM.attributes
                0x0000000000001093       0x34 /Applications/ti/ccsv6/tools/compiler/gcc-arm-none-eabi-4_9-2015q3/bin/../lib/gcc/arm-none-eabi/4.9.3/../../../../arm-none-eabi/lib/armv7e-m/fpu/libm.a(lib_a-s_lib_ver.o)
 .ARM.attributes
                0x00000000000010c7       0x34 /Applications/ti/ccsv6/tools/compiler/gcc-arm-none-eabi-4_9-2015q3/bin/../lib/gcc/arm-none-eabi/4.9.3/../../../../arm-none-eabi/lib/armv7e-m/fpu/libm.a(lib_a-s_matherr.o)
 .ARM.attributes
                0x00000000000010fb       0x34 /Applications/ti/ccsv6/tools/compiler/gcc-arm-none-eabi-4_9-2015q3/bin/../lib/gcc/arm-none-eabi/4.9.3/../../../../arm-none-eabi/lib/armv7e-m/fpu/libm.a(lib_a-s_nan.o)
 .ARM.attributes
                0x000000000000112f       0x34 /Applications/ti/ccsv6/tools/compiler/gcc-arm-none-eabi-4_9-2015q3/bin/../lib/gcc/arm-none-eabi/4.9.3/../../../../arm-none-eabi/lib/armv7e-m/fpu/libm.a(lib_a-s_rint.o)
 .ARM.attributes
                0x0000000000001163       0x34 /Applications/ti/ccsv6/tools/compiler/gcc-arm-none-eabi-4_9-2015q3/bin/../lib/gcc/arm-none-eabi/4.9.3/../../../../arm-none-eabi/lib/armv7e-m/fpu/libm.a(lib_a-s_scalbn.o)
 .ARM.attributes
                0x0000000000001197       0x34 /Applications/ti/ccsv6/tools/compiler/gcc-arm-none-eabi-4_9-2015q3/bin/../lib/gcc/arm-none-eabi/4.9.3/../../../../arm-none-eabi/lib/armv7e-m/fpu/libm.a(lib_a-s_copysign.o)
 .ARM.attributes
                0x00000000000011cb       0x34 /Applications/ti/ccsv6/tools/compiler/gcc-arm-none-eabi-4_9-2015q3/bin/../lib/gcc/arm-none-eabi/4.9.3/../../../../arm-none-eabi/lib/armv7e-m/fpu/libc.a(lib_a-assert.o)
 .ARM.attributes
                0x00000000000011ff       0x34 /Applications/ti/ccsv6/tools/compiler/gcc-arm-none-eabi-4_9-2015q3/bin/../lib/gcc/arm-none-eabi/4.9.3/../../../../arm-none-eabi/lib/armv7e-m/fpu/libc.a(lib_a-calloc.o)
 .ARM.attributes
                0x0000000000001233       0x34 /Applications/ti/ccsv6/tools/compiler/gcc-arm-none-eabi-4_9-2015q3/bin/../lib/gcc/arm-none-eabi/4.9.3/../../../../arm-none-eabi/lib/armv7e-m/fpu/libc.a(lib_a-callocr.o)
 .ARM.attributes
                0x0000000000001267       0x34 /Applications/ti/ccsv6/tools/compiler/gcc-arm-none-eabi-4_9-2015q3/bin/../lib/gcc/arm-none-eabi/4.9.3/../../../../arm-none-eabi/lib/armv7e-m/fpu/libc.a(lib_a-errno.o)
 .ARM.attributes
                0x000000000000129b       0x34 /Applications/ti/ccsv6/tools/compiler/gcc-arm-none-eabi-4_9-2015q3/bin/../lib/gcc/arm-none-eabi/4.9.3/../../../../arm-none-eabi/lib/armv7e-m/fpu/libc.a(lib_a-exit.o)
 .ARM.attributes
                0x00000000000012cf       0x34 /Applications/ti/ccsv6/tools/compiler/gcc-arm-none-eabi-4_9-2015q3/bin/../lib/gcc/arm-none-eabi/4.9.3/../../../../arm-none-eabi/lib/armv7e-m/fpu/libc.a(lib_a-fiprintf.o)
 .ARM.attributes
                0x0000000000001303       0x34 /Applications/ti/ccsv6/tools/compiler/gcc-arm-none-eabi-4_9-2015q3/bin/../lib/gcc/arm-none-eabi/4.9.3/../../../../arm-none-eabi/lib/armv7e-m/fpu/libc.a(lib_a-impure.o)
 .ARM.attributes
                0x0000000000001337       0x34 /Applications/ti/ccsv6/tools/compiler/gcc-arm-none-eabi-4_9-2015q3/bin/../lib/gcc/arm-none-eabi/4.9.3/../../../../arm-none-eabi/lib/armv7e-m/fpu/libc.a(lib_a-init.o)
 .ARM.attributes
                0x000000000000136b       0x34 /Applications/ti/ccsv6/tools/compiler/gcc-arm-none-eabi-4_9-2015q3/bin/../lib/gcc/arm-none-eabi/4.9.3/../../../../arm-none-eabi/lib/armv7e-m/fpu/libc.a(lib_a-malloc.o)
 .ARM.attributes
                0x000000000000139f       0x34 /Applications/ti/ccsv6/tools/compiler/gcc-arm-none-eabi-4_9-2015q3/bin/../lib/gcc/arm-none-eabi/4.9.3/../../../../arm-none-eabi/lib/armv7e-m/fpu/libc.a(lib_a-mallocr.o)
 .ARM.attributes
                0x00000000000013d3       0x34 /Applications/ti/ccsv6/tools/compiler/gcc-arm-none-eabi-4_9-2015q3/bin/../lib/gcc/arm-none-eabi/4.9.3/../../../../arm-none-eabi/lib/armv7e-m/fpu/libc.a(lib_a-memcmp.o)
 .ARM.attributes
                0x0000000000001407       0x20 /Applications/ti/ccsv6/tools/compiler/gcc-arm-none-eabi-4_9-2015q3/bin/../lib/gcc/arm-none-eabi/4.9.3/../../../../arm-none-eabi/lib/armv7e-m/fpu/libc.a(lib_a-memcpy.o)
 .ARM.attributes
                0x0000000000001427       0x34 /Applications/ti/ccsv6/tools/compiler/gcc-arm-none-eabi-4_9-2015q3/bin/../lib/gcc/arm-none-eabi/4.9.3/../../../../arm-none-eabi/lib/armv7e-m/fpu/libc.a(lib_a-memset.o)
 .ARM.attributes
                0x000000000000145b       0x34 /Applications/ti/ccsv6/tools/compiler/gcc-arm-none-eabi-4_9-2015q3/bin/../lib/gcc/arm-none-eabi/4.9.3/../../../../arm-none-eabi/lib/armv7e-m/fpu/libc.a(lib_a-mlock.o)
 .ARM.attributes
                0x000000000000148f       0x34 /Applications/ti/ccsv6/tools/compiler/gcc-arm-none-eabi-4_9-2015q3/bin/../lib/gcc/arm-none-eabi/4.9.3/../../../../arm-none-eabi/lib/armv7e-m/fpu/libc.a(lib_a-printf.o)
 .ARM.attributes
                0x00000000000014c3       0x34 /Applications/ti/ccsv6/tools/compiler/gcc-arm-none-eabi-4_9-2015q3/bin/../lib/gcc/arm-none-eabi/4.9.3/../../../../arm-none-eabi/lib/armv7e-m/fpu/libc.a(lib_a-puts.o)
 .ARM.attributes
                0x00000000000014f7       0x34 /Applications/ti/ccsv6/tools/compiler/gcc-arm-none-eabi-4_9-2015q3/bin/../lib/gcc/arm-none-eabi/4.9.3/../../../../arm-none-eabi/lib/armv7e-m/fpu/libc.a(lib_a-realloc.o)
 .ARM.attributes
                0x000000000000152b       0x34 /Applications/ti/ccsv6/tools/compiler/gcc-arm-none-eabi-4_9-2015q3/bin/../lib/gcc/arm-none-eabi/4.9.3/../../../../arm-none-eabi/lib/armv7e-m/fpu/libc.a(lib_a-reallocr.o)
 .ARM.attributes
                0x000000000000155f       0x34 /Applications/ti/ccsv6/tools/compiler/gcc-arm-none-eabi-4_9-2015q3/bin/../lib/gcc/arm-none-eabi/4.9.3/../../../../arm-none-eabi/lib/armv7e-m/fpu/libc.a(lib_a-sbrkr.o)
 .ARM.attributes
                0x0000000000001593       0x34 /Applications/ti/ccsv6/tools/compiler/gcc-arm-none-eabi-4_9-2015q3/bin/../lib/gcc/arm-none-eabi/4.9.3/../../../../arm-none-eabi/lib/armv7e-m/fpu/libc.a(lib_a-snprintf.o)
 .ARM.attributes
                0x00000000000015c7       0x34 /Applications/ti/ccsv6/tools/compiler/gcc-arm-none-eabi-4_9-2015q3/bin/../lib/gcc/arm-none-eabi/4.9.3/../../../../arm-none-eabi/lib/armv7e-m/fpu/libc.a(lib_a-sprintf.o)
 .ARM.attributes
                0x00000000000015fb       0x34 /Applications/ti/ccsv6/tools/compiler/gcc-arm-none-eabi-4_9-2015q3/bin/../lib/gcc/arm-none-eabi/4.9.3/../../../../arm-none-eabi/lib/armv7e-m/fpu/libc.a(lib_a-sscanf.o)
 .ARM.attributes
                0x000000000000162f       0x34 /Applications/ti/ccsv6/tools/compiler/gcc-arm-none-eabi-4_9-2015q3/bin/../lib/gcc/arm-none-eabi/4.9.3/../../../../arm-none-eabi/lib/armv7e-m/fpu/libc.a(lib_a-stdio.o)
 .ARM.attributes
                0x0000000000001663       0x20 /Applications/ti/ccsv6/tools/compiler/gcc-arm-none-eabi-4_9-2015q3/bin/../lib/gcc/arm-none-eabi/4.9.3/../../../../arm-none-eabi/lib/armv7e-m/fpu/libc.a(lib_a-strcmp.o)
 .ARM.attributes
                0x0000000000001683       0x34 /Applications/ti/ccsv6/tools/compiler/gcc-arm-none-eabi-4_9-2015q3/bin/../lib/gcc/arm-none-eabi/4.9.3/../../../../arm-none-eabi/lib/armv7e-m/fpu/libc.a(lib_a-strcpy.o)
 .ARM.attributes
                0x00000000000016b7       0x34 /Applications/ti/ccsv6/tools/compiler/gcc-arm-none-eabi-4_9-2015q3/bin/../lib/gcc/arm-none-eabi/4.9.3/../../../../arm-none-eabi/lib/armv7e-m/fpu/libc.a(lib_a-strlen.o)
 .ARM.attributes
                0x00000000000016eb       0x34 /Applications/ti/ccsv6/tools/compiler/gcc-arm-none-eabi-4_9-2015q3/bin/../lib/gcc/arm-none-eabi/4.9.3/../../../../arm-none-eabi/lib/armv7e-m/fpu/libc.a(lib_a-strncmp.o)
 .ARM.attributes
                0x000000000000171f       0x34 /Applications/ti/ccsv6/tools/compiler/gcc-arm-none-eabi-4_9-2015q3/bin/../lib/gcc/arm-none-eabi/4.9.3/../../../../arm-none-eabi/lib/armv7e-m/fpu/libc.a(lib_a-strncpy.o)
 .ARM.attributes
                0x0000000000001753       0x34 /Applications/ti/ccsv6/tools/compiler/gcc-arm-none-eabi-4_9-2015q3/bin/../lib/gcc/arm-none-eabi/4.9.3/../../../../arm-none-eabi/lib/armv7e-m/fpu/libc.a(lib_a-strtoul.o)
 .ARM.attributes
                0x0000000000001787       0x34 /Applications/ti/ccsv6/tools/compiler/gcc-arm-none-eabi-4_9-2015q3/bin/../lib/gcc/arm-none-eabi/4.9.3/../../../../arm-none-eabi/lib/armv7e-m/fpu/libc.a(lib_a-strtoull.o)
 .ARM.attributes
                0x00000000000017bb       0x34 /Applications/ti/ccsv6/tools/compiler/gcc-arm-none-eabi-4_9-2015q3/bin/../lib/gcc/arm-none-eabi/4.9.3/../../../../arm-none-eabi/lib/armv7e-m/fpu/libc.a(lib_a-strtoull_r.o)
 .ARM.attributes
                0x00000000000017ef       0x34 /Applications/ti/ccsv6/tools/compiler/gcc-arm-none-eabi-4_9-2015q3/bin/../lib/gcc/arm-none-eabi/4.9.3/../../../../arm-none-eabi/lib/armv7e-m/fpu/libc.a(lib_a-svfprintf.o)
 .ARM.attributes
                0x0000000000001823       0x34 /Applications/ti/ccsv6/tools/compiler/gcc-arm-none-eabi-4_9-2015q3/bin/../lib/gcc/arm-none-eabi/4.9.3/../../../../arm-none-eabi/lib/armv7e-m/fpu/libc.a(lib_a-svfscanf.o)
 .ARM.attributes
                0x0000000000001857       0x34 /Applications/ti/ccsv6/tools/compiler/gcc-arm-none-eabi-4_9-2015q3/bin/../lib/gcc/arm-none-eabi/4.9.3/../../../../arm-none-eabi/lib/armv7e-m/fpu/libc.a(lib_a-vfiprintf.o)
 .ARM.attributes
                0x000000000000188b       0x34 /Applications/ti/ccsv6/tools/compiler/gcc-arm-none-eabi-4_9-2015q3/bin/../lib/gcc/arm-none-eabi/4.9.3/../../../../arm-none-eabi/lib/armv7e-m/fpu/libc.a(lib_a-vfprintf.o)
 .ARM.attributes
                0x00000000000018bf       0x34 /Applications/ti/ccsv6/tools/compiler/gcc-arm-none-eabi-4_9-2015q3/bin/../lib/gcc/arm-none-eabi/4.9.3/../../../../arm-none-eabi/lib/armv7e-m/fpu/libc.a(lib_a-vprintf.o)
 .ARM.attributes
                0x00000000000018f3       0x34 /Applications/ti/ccsv6/tools/compiler/gcc-arm-none-eabi-4_9-2015q3/bin/../lib/gcc/arm-none-eabi/4.9.3/../../../../arm-none-eabi/lib/armv7e-m/fpu/libc.a(lib_a-vsprintf.o)
 .ARM.attributes
                0x0000000000001927       0x34 /Applications/ti/ccsv6/tools/compiler/gcc-arm-none-eabi-4_9-2015q3/bin/../lib/gcc/arm-none-eabi/4.9.3/../../../../arm-none-eabi/lib/armv7e-m/fpu/libc.a(lib_a-vsscanf.o)
 .ARM.attributes
                0x000000000000195b       0x34 /Applications/ti/ccsv6/tools/compiler/gcc-arm-none-eabi-4_9-2015q3/bin/../lib/gcc/arm-none-eabi/4.9.3/../../../../arm-none-eabi/lib/armv7e-m/fpu/libc.a(lib_a-writer.o)
 .ARM.attributes
                0x000000000000198f       0x34 /Applications/ti/ccsv6/tools/compiler/gcc-arm-none-eabi-4_9-2015q3/bin/../lib/gcc/arm-none-eabi/4.9.3/../../../../arm-none-eabi/lib/armv7e-m/fpu/libc.a(lib_a-wsetup.o)
 .ARM.attributes
                0x00000000000019c3       0x34 /Applications/ti/ccsv6/tools/compiler/gcc-arm-none-eabi-4_9-2015q3/bin/../lib/gcc/arm-none-eabi/4.9.3/../../../../arm-none-eabi/lib/armv7e-m/fpu/libc.a(lib_a-__call_atexit.o)
 .ARM.attributes
                0x00000000000019f7       0x34 /Applications/ti/ccsv6/tools/compiler/gcc-arm-none-eabi-4_9-2015q3/bin/../lib/gcc/arm-none-eabi/4.9.3/../../../../arm-none-eabi/lib/armv7e-m/fpu/libc.a(lib_a-abort.o)
 .ARM.attributes
                0x0000000000001a2b       0x34 /Applications/ti/ccsv6/tools/compiler/gcc-arm-none-eabi-4_9-2015q3/bin/../lib/gcc/arm-none-eabi/4.9.3/../../../../arm-none-eabi/lib/armv7e-m/fpu/libc.a(lib_a-atexit.o)
 .ARM.attributes
                0x0000000000001a5f       0x34 /Applications/ti/ccsv6/tools/compiler/gcc-arm-none-eabi-4_9-2015q3/bin/../lib/gcc/arm-none-eabi/4.9.3/../../../../arm-none-eabi/lib/armv7e-m/fpu/libc.a(lib_a-closer.o)
 .ARM.attributes
                0x0000000000001a93       0x34 /Applications/ti/ccsv6/tools/compiler/gcc-arm-none-eabi-4_9-2015q3/bin/../lib/gcc/arm-none-eabi/4.9.3/../../../../arm-none-eabi/lib/armv7e-m/fpu/libc.a(lib_a-ctype_.o)
 .ARM.attributes
                0x0000000000001ac7       0x34 /Applications/ti/ccsv6/tools/compiler/gcc-arm-none-eabi-4_9-2015q3/bin/../lib/gcc/arm-none-eabi/4.9.3/../../../../arm-none-eabi/lib/armv7e-m/fpu/libc.a(lib_a-dtoa.o)
 .ARM.attributes
                0x0000000000001afb       0x34 /Applications/ti/ccsv6/tools/compiler/gcc-arm-none-eabi-4_9-2015q3/bin/../lib/gcc/arm-none-eabi/4.9.3/../../../../arm-none-eabi/lib/armv7e-m/fpu/libc.a(lib_a-fflush.o)
 .ARM.attributes
                0x0000000000001b2f       0x34 /Applications/ti/ccsv6/tools/compiler/gcc-arm-none-eabi-4_9-2015q3/bin/../lib/gcc/arm-none-eabi/4.9.3/../../../../arm-none-eabi/lib/armv7e-m/fpu/libc.a(lib_a-findfp.o)
 .ARM.attributes
                0x0000000000001b63       0x34 /Applications/ti/ccsv6/tools/compiler/gcc-arm-none-eabi-4_9-2015q3/bin/../lib/gcc/arm-none-eabi/4.9.3/../../../../arm-none-eabi/lib/armv7e-m/fpu/libc.a(lib_a-fini.o)
 .ARM.attributes
                0x0000000000001b97       0x34 /Applications/ti/ccsv6/tools/compiler/gcc-arm-none-eabi-4_9-2015q3/bin/../lib/gcc/arm-none-eabi/4.9.3/../../../../arm-none-eabi/lib/armv7e-m/fpu/libc.a(lib_a-fputwc.o)
 .ARM.attributes
                0x0000000000001bcb       0x34 /Applications/ti/ccsv6/tools/compiler/gcc-arm-none-eabi-4_9-2015q3/bin/../lib/gcc/arm-none-eabi/4.9.3/../../../../arm-none-eabi/lib/armv7e-m/fpu/libc.a(lib_a-freer.o)
 .ARM.attributes
                0x0000000000001bff       0x34 /Applications/ti/ccsv6/tools/compiler/gcc-arm-none-eabi-4_9-2015q3/bin/../lib/gcc/arm-none-eabi/4.9.3/../../../../arm-none-eabi/lib/armv7e-m/fpu/libc.a(lib_a-fvwrite.o)
 .ARM.attributes
                0x0000000000001c33       0x34 /Applications/ti/ccsv6/tools/compiler/gcc-arm-none-eabi-4_9-2015q3/bin/../lib/gcc/arm-none-eabi/4.9.3/../../../../arm-none-eabi/lib/armv7e-m/fpu/libc.a(lib_a-fwalk.o)
 .ARM.attributes
                0x0000000000001c67       0x34 /Applications/ti/ccsv6/tools/compiler/gcc-arm-none-eabi-4_9-2015q3/bin/../lib/gcc/arm-none-eabi/4.9.3/../../../../arm-none-eabi/lib/armv7e-m/fpu/libc.a(lib_a-iswspace.o)
 .ARM.attributes
                0x0000000000001c9b       0x34 /Applications/ti/ccsv6/tools/compiler/gcc-arm-none-eabi-4_9-2015q3/bin/../lib/gcc/arm-none-eabi/4.9.3/../../../../arm-none-eabi/lib/armv7e-m/fpu/libc.a(lib_a-locale.o)
 .ARM.attributes
                0x0000000000001ccf       0x34 /Applications/ti/ccsv6/tools/compiler/gcc-arm-none-eabi-4_9-2015q3/bin/../lib/gcc/arm-none-eabi/4.9.3/../../../../arm-none-eabi/lib/armv7e-m/fpu/libc.a(lib_a-lseekr.o)
 .ARM.attributes
                0x0000000000001d03       0x34 /Applications/ti/ccsv6/tools/compiler/gcc-arm-none-eabi-4_9-2015q3/bin/../lib/gcc/arm-none-eabi/4.9.3/../../../../arm-none-eabi/lib/armv7e-m/fpu/libc.a(lib_a-makebuf.o)
 .ARM.attributes
                0x0000000000001d37       0x34 /Applications/ti/ccsv6/tools/compiler/gcc-arm-none-eabi-4_9-2015q3/bin/../lib/gcc/arm-none-eabi/4.9.3/../../../../arm-none-eabi/lib/armv7e-m/fpu/libc.a(lib_a-mbrtowc.o)
 .ARM.attributes
                0x0000000000001d6b       0x34 /Applications/ti/ccsv6/tools/compiler/gcc-arm-none-eabi-4_9-2015q3/bin/../lib/gcc/arm-none-eabi/4.9.3/../../../../arm-none-eabi/lib/armv7e-m/fpu/libc.a(lib_a-mbtowc_r.o)
 .ARM.attributes
                0x0000000000001d9f       0x34 /Applications/ti/ccsv6/tools/compiler/gcc-arm-none-eabi-4_9-2015q3/bin/../lib/gcc/arm-none-eabi/4.9.3/../../../../arm-none-eabi/lib/armv7e-m/fpu/libc.a(lib_a-memchr.o)
 .ARM.attributes
                0x0000000000001dd3       0x34 /Applications/ti/ccsv6/tools/compiler/gcc-arm-none-eabi-4_9-2015q3/bin/../lib/gcc/arm-none-eabi/4.9.3/../../../../arm-none-eabi/lib/armv7e-m/fpu/libc.a(lib_a-memmove.o)
 .ARM.attributes
                0x0000000000001e07       0x34 /Applications/ti/ccsv6/tools/compiler/gcc-arm-none-eabi-4_9-2015q3/bin/../lib/gcc/arm-none-eabi/4.9.3/../../../../arm-none-eabi/lib/armv7e-m/fpu/libc.a(lib_a-mprec.o)
 .ARM.attributes
                0x0000000000001e3b       0x34 /Applications/ti/ccsv6/tools/compiler/gcc-arm-none-eabi-4_9-2015q3/bin/../lib/gcc/arm-none-eabi/4.9.3/../../../../arm-none-eabi/lib/armv7e-m/fpu/libc.a(lib_a-readr.o)
 .ARM.attributes
                0x0000000000001e6f       0x34 /Applications/ti/ccsv6/tools/compiler/gcc-arm-none-eabi-4_9-2015q3/bin/../lib/gcc/arm-none-eabi/4.9.3/../../../../arm-none-eabi/lib/armv7e-m/fpu/libc.a(lib_a-reent.o)
 .ARM.attributes
                0x0000000000001ea3       0x34 /Applications/ti/ccsv6/tools/compiler/gcc-arm-none-eabi-4_9-2015q3/bin/../lib/gcc/arm-none-eabi/4.9.3/../../../../arm-none-eabi/lib/armv7e-m/fpu/libc.a(lib_a-sccl.o)
 .ARM.attributes
                0x0000000000001ed7       0x34 /Applications/ti/ccsv6/tools/compiler/gcc-arm-none-eabi-4_9-2015q3/bin/../lib/gcc/arm-none-eabi/4.9.3/../../../../arm-none-eabi/lib/armv7e-m/fpu/libc.a(lib_a-sf_nan.o)
 .ARM.attributes
                0x0000000000001f0b       0x34 /Applications/ti/ccsv6/tools/compiler/gcc-arm-none-eabi-4_9-2015q3/bin/../lib/gcc/arm-none-eabi/4.9.3/../../../../arm-none-eabi/lib/armv7e-m/fpu/libc.a(lib_a-signal.o)
 .ARM.attributes
                0x0000000000001f3f       0x34 /Applications/ti/ccsv6/tools/compiler/gcc-arm-none-eabi-4_9-2015q3/bin/../lib/gcc/arm-none-eabi/4.9.3/../../../../arm-none-eabi/lib/armv7e-m/fpu/libc.a(lib_a-signalr.o)
 .ARM.attributes
                0x0000000000001f73       0x34 /Applications/ti/ccsv6/tools/compiler/gcc-arm-none-eabi-4_9-2015q3/bin/../lib/gcc/arm-none-eabi/4.9.3/../../../../arm-none-eabi/lib/armv7e-m/fpu/libc.a(lib_a-strtod.o)
 .ARM.attributes
                0x0000000000001fa7       0x34 /Applications/ti/ccsv6/tools/compiler/gcc-arm-none-eabi-4_9-2015q3/bin/../lib/gcc/arm-none-eabi/4.9.3/../../../../arm-none-eabi/lib/armv7e-m/fpu/libc.a(lib_a-strtol.o)
 .ARM.attributes
                0x0000000000001fdb       0x34 /Applications/ti/ccsv6/tools/compiler/gcc-arm-none-eabi-4_9-2015q3/bin/../lib/gcc/arm-none-eabi/4.9.3/../../../../arm-none-eabi/lib/armv7e-m/fpu/libc.a(lib_a-strtoll_r.o)
 .ARM.attributes
                0x000000000000200f       0x34 /Applications/ti/ccsv6/tools/compiler/gcc-arm-none-eabi-4_9-2015q3/bin/../lib/gcc/arm-none-eabi/4.9.3/../../../../arm-none-eabi/lib/armv7e-m/fpu/libc.a(lib_a-svfiprintf.o)
 .ARM.attributes
                0x0000000000002043       0x34 /Applications/ti/ccsv6/tools/compiler/gcc-arm-none-eabi-4_9-2015q3/bin/../lib/gcc/arm-none-eabi/4.9.3/../../../../arm-none-eabi/lib/armv7e-m/fpu/libc.a(lib_a-svfiscanf.o)
 .ARM.attributes
                0x0000000000002077       0x34 /Applications/ti/ccsv6/tools/compiler/gcc-arm-none-eabi-4_9-2015q3/bin/../lib/gcc/arm-none-eabi/4.9.3/../../../../arm-none-eabi/lib/armv7e-m/fpu/libc.a(lib_a-ungetc.o)
 .ARM.attributes
                0x00000000000020ab       0x34 /Applications/ti/ccsv6/tools/compiler/gcc-arm-none-eabi-4_9-2015q3/bin/../lib/gcc/arm-none-eabi/4.9.3/../../../../arm-none-eabi/lib/armv7e-m/fpu/libc.a(lib_a-wbuf.o)
 .ARM.attributes
                0x00000000000020df       0x34 /Applications/ti/ccsv6/tools/compiler/gcc-arm-none-eabi-4_9-2015q3/bin/../lib/gcc/arm-none-eabi/4.9.3/../../../../arm-none-eabi/lib/armv7e-m/fpu/libc.a(lib_a-wcrtomb.o)
 .ARM.attributes
                0x0000000000002113       0x34 /Applications/ti/ccsv6/tools/compiler/gcc-arm-none-eabi-4_9-2015q3/bin/../lib/gcc/arm-none-eabi/4.9.3/../../../../arm-none-eabi/lib/armv7e-m/fpu/libc.a(lib_a-wctomb_r.o)
 .ARM.attributes
                0x0000000000002147       0x34 /Applications/ti/ccsv6/tools/compiler/gcc-arm-none-eabi-4_9-2015q3/bin/../lib/gcc/arm-none-eabi/4.9.3/../../../../arm-none-eabi/lib/armv7e-m/fpu/libc.a(lib_a-__atexit.o)
 .ARM.attributes
                0x000000000000217b       0x34 /Applications/ti/ccsv6/tools/compiler/gcc-arm-none-eabi-4_9-2015q3/bin/../lib/gcc/arm-none-eabi/4.9.3/../../../../arm-none-eabi/lib/armv7e-m/fpu/libc.a(lib_a-fclose.o)
 .ARM.attributes
                0x00000000000021af       0x34 /Applications/ti/ccsv6/tools/compiler/gcc-arm-none-eabi-4_9-2015q3/bin/../lib/gcc/arm-none-eabi/4.9.3/../../../../arm-none-eabi/lib/armv7e-m/fpu/libc.a(lib_a-fstatr.o)
 .ARM.attributes
                0x00000000000021e3       0x34 /Applications/ti/ccsv6/tools/compiler/gcc-arm-none-eabi-4_9-2015q3/bin/../lib/gcc/arm-none-eabi/4.9.3/../../../../arm-none-eabi/lib/armv7e-m/fpu/libc.a(lib_a-gdtoa-gethex.o)
 .ARM.attributes
                0x0000000000002217       0x34 /Applications/ti/ccsv6/tools/compiler/gcc-arm-none-eabi-4_9-2015q3/bin/../lib/gcc/arm-none-eabi/4.9.3/../../../../arm-none-eabi/lib/armv7e-m/fpu/libc.a(lib_a-gdtoa-hexnan.o)
 .ARM.attributes
                0x000000000000224b       0x34 /Applications/ti/ccsv6/tools/compiler/gcc-arm-none-eabi-4_9-2015q3/bin/../lib/gcc/arm-none-eabi/4.9.3/../../../../arm-none-eabi/lib/armv7e-m/fpu/libc.a(lib_a-isattyr.o)
 .ARM.attributes
                0x000000000000227f       0x34 /Applications/ti/ccsv6/tools/compiler/gcc-arm-none-eabi-4_9-2015q3/bin/../lib/gcc/arm-none-eabi/4.9.3/../../../../arm-none-eabi/lib/armv7e-m/fpu/libnosys.a(close.o)
 .ARM.attributes
                0x00000000000022b3       0x34 /Applications/ti/ccsv6/tools/compiler/gcc-arm-none-eabi-4_9-2015q3/bin/../lib/gcc/arm-none-eabi/4.9.3/../../../../arm-none-eabi/lib/armv7e-m/fpu/libnosys.a(fstat.o)
 .ARM.attributes
                0x00000000000022e7       0x34 /Applications/ti/ccsv6/tools/compiler/gcc-arm-none-eabi-4_9-2015q3/bin/../lib/gcc/arm-none-eabi/4.9.3/../../../../arm-none-eabi/lib/armv7e-m/fpu/libnosys.a(getpid.o)
 .ARM.attributes
                0x000000000000231b       0x34 /Applications/ti/ccsv6/tools/compiler/gcc-arm-none-eabi-4_9-2015q3/bin/../lib/gcc/arm-none-eabi/4.9.3/../../../../arm-none-eabi/lib/armv7e-m/fpu/libnosys.a(isatty.o)
 .ARM.attributes
                0x000000000000234f       0x34 /Applications/ti/ccsv6/tools/compiler/gcc-arm-none-eabi-4_9-2015q3/bin/../lib/gcc/arm-none-eabi/4.9.3/../../../../arm-none-eabi/lib/armv7e-m/fpu/libnosys.a(kill.o)
 .ARM.attributes
                0x0000000000002383       0x34 /Applications/ti/ccsv6/tools/compiler/gcc-arm-none-eabi-4_9-2015q3/bin/../lib/gcc/arm-none-eabi/4.9.3/../../../../arm-none-eabi/lib/armv7e-m/fpu/libnosys.a(lseek.o)
 .ARM.attributes
                0x00000000000023b7       0x34 /Applications/ti/ccsv6/tools/compiler/gcc-arm-none-eabi-4_9-2015q3/bin/../lib/gcc/arm-none-eabi/4.9.3/../../../../arm-none-eabi/lib/armv7e-m/fpu/libnosys.a(read.o)
 .ARM.attributes
                0x00000000000023eb       0x34 /Applications/ti/ccsv6/tools/compiler/gcc-arm-none-eabi-4_9-2015q3/bin/../lib/gcc/arm-none-eabi/4.9.3/../../../../arm-none-eabi/lib/armv7e-m/fpu/libnosys.a(sbrk.o)
 .ARM.attributes
                0x000000000000241f       0x34 /Applications/ti/ccsv6/tools/compiler/gcc-arm-none-eabi-4_9-2015q3/bin/../lib/gcc/arm-none-eabi/4.9.3/../../../../arm-none-eabi/lib/armv7e-m/fpu/libnosys.a(_exit.o)
 .ARM.attributes
                0x0000000000002453       0x22 /Applications/ti/ccsv6/tools/compiler/gcc-arm-none-eabi-4_9-2015q3/bin/../lib/gcc/arm-none-eabi/4.9.3/armv7e-m/fpu/libgcc.a(_arm_addsubdf3.o)
 .ARM.attributes
                0x0000000000002475       0x22 /Applications/ti/ccsv6/tools/compiler/gcc-arm-none-eabi-4_9-2015q3/bin/../lib/gcc/arm-none-eabi/4.9.3/armv7e-m/fpu/libgcc.a(_arm_muldivdf3.o)
 .ARM.attributes
                0x0000000000002497       0x22 /Applications/ti/ccsv6/tools/compiler/gcc-arm-none-eabi-4_9-2015q3/bin/../lib/gcc/arm-none-eabi/4.9.3/armv7e-m/fpu/libgcc.a(_arm_cmpdf2.o)
 .ARM.attributes
                0x00000000000024b9       0x22 /Applications/ti/ccsv6/tools/compiler/gcc-arm-none-eabi-4_9-2015q3/bin/../lib/gcc/arm-none-eabi/4.9.3/armv7e-m/fpu/libgcc.a(_arm_fixdfsi.o)
 .ARM.attributes
                0x00000000000024db       0x22 /Applications/ti/ccsv6/tools/compiler/gcc-arm-none-eabi-4_9-2015q3/bin/../lib/gcc/arm-none-eabi/4.9.3/armv7e-m/fpu/libgcc.a(_arm_fixunsdfsi.o)
 .ARM.attributes
                0x00000000000024fd       0x22 /Applications/ti/ccsv6/tools/compiler/gcc-arm-none-eabi-4_9-2015q3/bin/../lib/gcc/arm-none-eabi/4.9.3/armv7e-m/fpu/libgcc.a(_arm_truncdfsf2.o)
 .ARM.attributes
                0x000000000000251f       0x22 /Applications/ti/ccsv6/tools/compiler/gcc-arm-none-eabi-4_9-2015q3/bin/../lib/gcc/arm-none-eabi/4.9.3/armv7e-m/fpu/libgcc.a(_aeabi_uldivmod.o)
 .ARM.attributes
                0x0000000000002541       0x34 /Applications/ti/ccsv6/tools/compiler/gcc-arm-none-eabi-4_9-2015q3/bin/../lib/gcc/arm-none-eabi/4.9.3/armv7e-m/fpu/libgcc.a(bpabi.o)
 .ARM.attributes
                0x0000000000002575       0x22 /Applications/ti/ccsv6/tools/compiler/gcc-arm-none-eabi-4_9-2015q3/bin/../lib/gcc/arm-none-eabi/4.9.3/armv7e-m/fpu/libgcc.a(_dvmd_tls.o)
 .ARM.attributes
                0x0000000000002597       0x34 /Applications/ti/ccsv6/tools/compiler/gcc-arm-none-eabi-4_9-2015q3/bin/../lib/gcc/arm-none-eabi/4.9.3/armv7e-m/fpu/libgcc.a(_divdi3.o)
 .ARM.attributes
                0x00000000000025cb       0x34 /Applications/ti/ccsv6/tools/compiler/gcc-arm-none-eabi-4_9-2015q3/bin/../lib/gcc/arm-none-eabi/4.9.3/armv7e-m/fpu/libgcc.a(_udivdi3.o)
 .ARM.attributes
                0x00000000000025ff       0x34 /Applications/ti/ccsv6/tools/compiler/gcc-arm-none-eabi-4_9-2015q3/bin/../lib/gcc/arm-none-eabi/4.9.3/armv7e-m/fpu/crtend.o
 .ARM.attributes
                0x0000000000002633       0x22 /Applications/ti/ccsv6/tools/compiler/gcc-arm-none-eabi-4_9-2015q3/bin/../lib/gcc/arm-none-eabi/4.9.3/armv7e-m/fpu/crtn.o

.comment        0x0000000000000000       0x70
 .comment       0x0000000000000000       0x70 ./app_console.o
                                         0x71 (size before relaxing)
 .comment       0x0000000000000000       0x71 ./app_rgbled.o
 .comment       0x0000000000000000       0x71 ./app_sht20.o
 .comment       0x0000000000000000       0x71 ./app_switch.o
 .comment       0x0000000000000000       0x71 ./main.o
 .comment       0x0000000000000000       0x71 ./startup_msp432p401r_gcc.o
 .comment       0x0000000000000000       0x71 ./system_msp432p401r.o
 .comment       0x0000000000000000       0x71 ./Board/AliCloud_SDS/alicloud_sds.o
 .comment       0x0000000000000000       0x71 ./Board/drv_VGM128064/oled.o
 .comment       0x0000000000000000       0x71 ./Board/drv_board.o
 .comment       0x0000000000000000       0x71 ./Board/drv_board_test.o
 .comment       0x0000000000000000       0x71 ./Board/drv_button/io_button.o
 .comment       0x0000000000000000       0x71 ./Board/drv_color_led/color_led.o
 .comment       0x0000000000000000       0x71 ./Board/drv_color_led/hsb2rgb.o
 .comment       0x0000000000000000       0x71 ./Board/drv_sht20/sht2x.o
 .comment       0x0000000000000000       0x71 ./Board/helper/emhost/ATCmdParser/ATCmdParser.o
 .comment       0x0000000000000000       0x71 ./Board/helper/emhost/ATCmdParser/ATCmdParserTest.o
 .comment       0x0000000000000000       0x71 ./Board/helper/emhost/emh_alisds.o
 .comment       0x0000000000000000       0x71 ./Board/helper/emhost/emh_arg.o
 .comment       0x0000000000000000       0x71 ./Board/helper/emhost/emh_module.o
 .comment       0x0000000000000000       0x71 ./Board/helper/emhost/emh_wlan.o
 .comment       0x0000000000000000       0x71 ./Board/helper/hal/mx_hal_atomic.o
 .comment       0x0000000000000000       0x71 ./Board/helper/hal/mx_i2c.o
 .comment       0x0000000000000000       0x71 ./Board/helper/hal/mx_serial.o
 .comment       0x0000000000000000       0x71 ./Board/helper/hal/mx_stdio.o
 .comment       0x0000000000000000       0x71 ./Board/helper/hal/mx_tick.o
 .comment       0x0000000000000000       0x71 ./Board/helper/jsmn/jsmn.o
 .comment       0x0000000000000000       0x71 ./Board/helper/jsmn/json_escape_str.o
 .comment       0x0000000000000000       0x71 ./Board/helper/jsmn/json_generator.o
 .comment       0x0000000000000000       0x71 ./Board/helper/jsmn/json_utils.o
 .comment       0x0000000000000000       0x71 ./Board/helper/jsmn/json_wrappers.o
 .comment       0x0000000000000000       0x71 ./Board/helper/mx_utils/mx_ringbuffer.o
 .comment       0x0000000000000000       0x71 ./aos/soc_impl.o
 .comment       0x0000000000000000       0x71 ./aos/trace_impl.o
 .comment       0x0000000000000000       0x71 ./core/k_buf_queue.o
 .comment       0x0000000000000000       0x71 ./core/k_dyn_mem_proc.o
 .comment       0x0000000000000000       0x71 ./core/k_err.o
 .comment       0x0000000000000000       0x71 ./core/k_event.o
 .comment       0x0000000000000000       0x71 ./core/k_idle.o
 .comment       0x0000000000000000       0x71 ./core/k_mm.o
 .comment       0x0000000000000000       0x71 ./core/k_mm_blk.o
 .comment       0x0000000000000000       0x71 ./core/k_mm_debug.o
 .comment       0x0000000000000000       0x71 ./core/k_mutex.o
 .comment       0x0000000000000000       0x71 ./core/k_obj.o
 .comment       0x0000000000000000       0x71 ./core/k_pend.o
 .comment       0x0000000000000000       0x71 ./core/k_queue.o
 .comment       0x0000000000000000       0x71 ./core/k_ringbuf.o
 .comment       0x0000000000000000       0x71 ./core/k_sched.o
 .comment       0x0000000000000000       0x71 ./core/k_sem.o
 .comment       0x0000000000000000       0x71 ./core/k_stats.o
 .comment       0x0000000000000000       0x71 ./core/k_sys.o
 .comment       0x0000000000000000       0x71 ./core/k_task.o
 .comment       0x0000000000000000       0x71 ./core/k_task_sem.o
 .comment       0x0000000000000000       0x71 ./core/k_tick.o
 .comment       0x0000000000000000       0x71 ./core/k_time.o
 .comment       0x0000000000000000       0x71 ./core/k_timer.o
 .comment       0x0000000000000000       0x71 ./core/k_workqueue.o
 .comment       0x0000000000000000       0x71 ./m4/port_c.o

.TI.symbol.alias
                0x0000000000000000       0x2d
 .TI.symbol.alias
                0x0000000000000000        0x9 /Users/snowyang/workspace/MSP432_DriverLib_3_10_00_09/driverlib/MSP432P4xx/ccs/msp432p4xx_driverlib.lib(gpio.o)
 .TI.symbol.alias
                0x0000000000000009        0x9 /Users/snowyang/workspace/MSP432_DriverLib_3_10_00_09/driverlib/MSP432P4xx/ccs/msp432p4xx_driverlib.lib(i2c.o)
 .TI.symbol.alias
                0x0000000000000012        0x9 /Users/snowyang/workspace/MSP432_DriverLib_3_10_00_09/driverlib/MSP432P4xx/ccs/msp432p4xx_driverlib.lib(interrupt.o)
 .TI.symbol.alias
                0x000000000000001b        0x9 /Users/snowyang/workspace/MSP432_DriverLib_3_10_00_09/driverlib/MSP432P4xx/ccs/msp432p4xx_driverlib.lib(uart.o)
 .TI.symbol.alias
                0x0000000000000024        0x9 /Users/snowyang/workspace/MSP432_DriverLib_3_10_00_09/driverlib/MSP432P4xx/ccs/msp432p4xx_driverlib.lib(cpu.o)

.TI.section.flags
                0x0000000000000000       0x82
 .TI.section.flags
                0x0000000000000000       0x1a /Users/snowyang/workspace/MSP432_DriverLib_3_10_00_09/driverlib/MSP432P4xx/ccs/msp432p4xx_driverlib.lib(gpio.o)
 .TI.section.flags
                0x000000000000001a       0x1a /Users/snowyang/workspace/MSP432_DriverLib_3_10_00_09/driverlib/MSP432P4xx/ccs/msp432p4xx_driverlib.lib(i2c.o)
 .TI.section.flags
                0x0000000000000034       0x1a /Users/snowyang/workspace/MSP432_DriverLib_3_10_00_09/driverlib/MSP432P4xx/ccs/msp432p4xx_driverlib.lib(interrupt.o)
 .TI.section.flags
                0x000000000000004e       0x1a /Users/snowyang/workspace/MSP432_DriverLib_3_10_00_09/driverlib/MSP432P4xx/ccs/msp432p4xx_driverlib.lib(uart.o)
 .TI.section.flags
                0x0000000000000068       0x1a /Users/snowyang/workspace/MSP432_DriverLib_3_10_00_09/driverlib/MSP432P4xx/ccs/msp432p4xx_driverlib.lib(cpu.o)

.debug_info     0x0000000000000000    0x20734
 .debug_info    0x0000000000000000      0x372 ./app_console.o
 .debug_info    0x0000000000000372      0x3e2 ./app_rgbled.o
 .debug_info    0x0000000000000754      0x310 ./app_sht20.o
 .debug_info    0x0000000000000a64      0x2e3 ./app_switch.o
 .debug_info    0x0000000000000d47      0xd0c ./main.o
 .debug_info    0x0000000000001a53      0x15b ./startup_msp432p401r_gcc.o
 .debug_info    0x0000000000001bae      0xeaa ./system_msp432p401r.o
 .debug_info    0x0000000000002a58      0xdd1 ./Board/AliCloud_SDS/alicloud_sds.o
 .debug_info    0x0000000000003829      0x61c ./Board/drv_VGM128064/oled.o
 .debug_info    0x0000000000003e45       0x94 ./Board/drv_board.o
 .debug_info    0x0000000000003ed9       0xf3 ./Board/drv_board_test.o
 .debug_info    0x0000000000003fcc      0x2a6 ./Board/drv_button/io_button.o
 .debug_info    0x0000000000004272      0x1e7 ./Board/drv_color_led/color_led.o
 .debug_info    0x0000000000004459      0x2ec ./Board/drv_color_led/hsb2rgb.o
 .debug_info    0x0000000000004745      0x31f ./Board/drv_sht20/sht2x.o
 .debug_info    0x0000000000004a64      0x672 ./Board/helper/emhost/ATCmdParser/ATCmdParser.o
 .debug_info    0x00000000000050d6       0xc3 ./Board/helper/emhost/ATCmdParser/ATCmdParserTest.o
 .debug_info    0x0000000000005199      0x4d0 ./Board/helper/emhost/emh_alisds.o
 .debug_info    0x0000000000005669      0x28f ./Board/helper/emhost/emh_arg.o
 .debug_info    0x00000000000058f8      0x1b1 ./Board/helper/emhost/emh_module.o
 .debug_info    0x0000000000005aa9      0x21b ./Board/helper/emhost/emh_wlan.o
 .debug_info    0x0000000000005cc4      0x1cf ./Board/helper/hal/mx_hal_atomic.o
 .debug_info    0x0000000000005e93      0x2e1 ./Board/helper/hal/mx_i2c.o
 .debug_info    0x0000000000006174      0x3fb ./Board/helper/hal/mx_serial.o
 .debug_info    0x000000000000656f      0x1fb ./Board/helper/hal/mx_stdio.o
 .debug_info    0x000000000000676a      0x618 ./Board/helper/hal/mx_tick.o
 .debug_info    0x0000000000006d82      0x451 ./Board/helper/jsmn/jsmn.o
 .debug_info    0x00000000000071d3      0x210 ./Board/helper/jsmn/json_escape_str.o
 .debug_info    0x00000000000073e3      0x56b ./Board/helper/jsmn/json_generator.o
 .debug_info    0x000000000000794e      0x1a9 ./Board/helper/jsmn/json_utils.o
 .debug_info    0x0000000000007af7      0xd6c ./Board/helper/jsmn/json_wrappers.o
 .debug_info    0x0000000000008863      0x2d2 ./Board/helper/mx_utils/mx_ringbuffer.o
 .debug_info    0x0000000000008b35      0x2b3 ./aos/soc_impl.o
 .debug_info    0x0000000000008de8       0xa1 ./aos/trace_impl.o
 .debug_info    0x0000000000008e89      0xbd2 ./core/k_buf_queue.o
 .debug_info    0x0000000000009a5b       0x6e ./core/k_dyn_mem_proc.o
 .debug_info    0x0000000000009ac9      0x285 ./core/k_err.o
 .debug_info    0x0000000000009d4e       0x6e ./core/k_event.o
 .debug_info    0x0000000000009dbc      0x121 ./core/k_idle.o
 .debug_info    0x0000000000009edd       0x72 ./core/k_mm.o
 .debug_info    0x0000000000009f4f       0x6e ./core/k_mm_blk.o
 .debug_info    0x0000000000009fbd       0x72 ./core/k_mm_debug.o
 .debug_info    0x000000000000a02f      0xa55 ./core/k_mutex.o
 .debug_info    0x000000000000aa84      0x78e ./core/k_obj.o
 .debug_info    0x000000000000b212      0x7a9 ./core/k_pend.o
 .debug_info    0x000000000000b9bb      0xba0 ./core/k_queue.o
 .debug_info    0x000000000000c55b      0x592 ./core/k_ringbuf.o
 .debug_info    0x000000000000caed      0xaa2 ./core/k_sched.o
 .debug_info    0x000000000000d58f      0xa13 ./core/k_sem.o
 .debug_info    0x000000000000dfa2      0x684 ./core/k_stats.o
 .debug_info    0x000000000000e626      0x84a ./core/k_sys.o
 .debug_info    0x000000000000ee70      0xcb5 ./core/k_task.o
 .debug_info    0x000000000000fb25       0x6e ./core/k_task_sem.o
 .debug_info    0x000000000000fb93      0x82f ./core/k_tick.o
 .debug_info    0x00000000000103c2      0x1ef ./core/k_time.o
 .debug_info    0x00000000000105b1       0x6e ./core/k_timer.o
 .debug_info    0x000000000001061f       0x6e ./core/k_workqueue.o
 .debug_info    0x000000000001068d      0x133 ./m4/port_c.o
 .debug_info    0x00000000000107c0       0xec ./m4/port_s.o
 .debug_info    0x00000000000108ac      0x49e /Users/snowyang/workspace/MSP432_DriverLib_3_10_00_09/driverlib/MSP432P4xx/ccs/msp432p4xx_driverlib.lib(gpio.o)
 .debug_info    0x0000000000010d4a       0xc8 /Users/snowyang/workspace/MSP432_DriverLib_3_10_00_09/driverlib/MSP432P4xx/ccs/msp432p4xx_driverlib.lib(gpio.o)
 .debug_info    0x0000000000010e12       0xca /Users/snowyang/workspace/MSP432_DriverLib_3_10_00_09/driverlib/MSP432P4xx/ccs/msp432p4xx_driverlib.lib(gpio.o)
 .debug_info    0x0000000000010edc      0x187 /Users/snowyang/workspace/MSP432_DriverLib_3_10_00_09/driverlib/MSP432P4xx/ccs/msp432p4xx_driverlib.lib(gpio.o)
 .debug_info    0x0000000000011063      0x17d /Users/snowyang/workspace/MSP432_DriverLib_3_10_00_09/driverlib/MSP432P4xx/ccs/msp432p4xx_driverlib.lib(gpio.o)
 .debug_info    0x00000000000111e0      0x17d /Users/snowyang/workspace/MSP432_DriverLib_3_10_00_09/driverlib/MSP432P4xx/ccs/msp432p4xx_driverlib.lib(gpio.o)
 .debug_info    0x000000000001135d      0x17f /Users/snowyang/workspace/MSP432_DriverLib_3_10_00_09/driverlib/MSP432P4xx/ccs/msp432p4xx_driverlib.lib(gpio.o)
 .debug_info    0x00000000000114dc      0x184 /Users/snowyang/workspace/MSP432_DriverLib_3_10_00_09/driverlib/MSP432P4xx/ccs/msp432p4xx_driverlib.lib(gpio.o)
 .debug_info    0x0000000000011660      0x186 /Users/snowyang/workspace/MSP432_DriverLib_3_10_00_09/driverlib/MSP432P4xx/ccs/msp432p4xx_driverlib.lib(gpio.o)
 .debug_info    0x00000000000117e6      0x1d7 /Users/snowyang/workspace/MSP432_DriverLib_3_10_00_09/driverlib/MSP432P4xx/ccs/msp432p4xx_driverlib.lib(gpio.o)
 .debug_info    0x00000000000119bd      0x1d5 /Users/snowyang/workspace/MSP432_DriverLib_3_10_00_09/driverlib/MSP432P4xx/ccs/msp432p4xx_driverlib.lib(gpio.o)
 .debug_info    0x0000000000011b92      0x196 /Users/snowyang/workspace/MSP432_DriverLib_3_10_00_09/driverlib/MSP432P4xx/ccs/msp432p4xx_driverlib.lib(gpio.o)
 .debug_info    0x0000000000011d28      0x1b8 /Users/snowyang/workspace/MSP432_DriverLib_3_10_00_09/driverlib/MSP432P4xx/ccs/msp432p4xx_driverlib.lib(gpio.o)
 .debug_info    0x0000000000011ee0      0x1bc /Users/snowyang/workspace/MSP432_DriverLib_3_10_00_09/driverlib/MSP432P4xx/ccs/msp432p4xx_driverlib.lib(gpio.o)
 .debug_info    0x000000000001209c      0x194 /Users/snowyang/workspace/MSP432_DriverLib_3_10_00_09/driverlib/MSP432P4xx/ccs/msp432p4xx_driverlib.lib(gpio.o)
 .debug_info    0x0000000000012230      0x19d /Users/snowyang/workspace/MSP432_DriverLib_3_10_00_09/driverlib/MSP432P4xx/ccs/msp432p4xx_driverlib.lib(gpio.o)
 .debug_info    0x00000000000123cd      0x1dd /Users/snowyang/workspace/MSP432_DriverLib_3_10_00_09/driverlib/MSP432P4xx/ccs/msp432p4xx_driverlib.lib(gpio.o)
 .debug_info    0x00000000000125aa      0x183 /Users/snowyang/workspace/MSP432_DriverLib_3_10_00_09/driverlib/MSP432P4xx/ccs/msp432p4xx_driverlib.lib(gpio.o)
 .debug_info    0x000000000001272d      0x17f /Users/snowyang/workspace/MSP432_DriverLib_3_10_00_09/driverlib/MSP432P4xx/ccs/msp432p4xx_driverlib.lib(gpio.o)
 .debug_info    0x00000000000128ac      0x1ae /Users/snowyang/workspace/MSP432_DriverLib_3_10_00_09/driverlib/MSP432P4xx/ccs/msp432p4xx_driverlib.lib(gpio.o)
 .debug_info    0x0000000000012a5a      0x179 /Users/snowyang/workspace/MSP432_DriverLib_3_10_00_09/driverlib/MSP432P4xx/ccs/msp432p4xx_driverlib.lib(gpio.o)
 .debug_info    0x0000000000012bd3      0x17b /Users/snowyang/workspace/MSP432_DriverLib_3_10_00_09/driverlib/MSP432P4xx/ccs/msp432p4xx_driverlib.lib(gpio.o)
 .debug_info    0x0000000000012d4e      0x182 /Users/snowyang/workspace/MSP432_DriverLib_3_10_00_09/driverlib/MSP432P4xx/ccs/msp432p4xx_driverlib.lib(gpio.o)
 .debug_info    0x0000000000012ed0     0x103e /Users/snowyang/workspace/MSP432_DriverLib_3_10_00_09/driverlib/MSP432P4xx/ccs/msp432p4xx_driverlib.lib(gpio.o)
                0x0000000000012ed0                __TI_DW.debug_info.core_cm4.h.3e0d370993f2fb13b428b353093627d8
 .debug_info    0x0000000000013f0e     0x35df /Users/snowyang/workspace/MSP432_DriverLib_3_10_00_09/driverlib/MSP432P4xx/ccs/msp432p4xx_driverlib.lib(gpio.o)
                0x0000000000013f0e                __TI_DW.debug_info.msp432p401r.h.6d8a8070feb1cbdf17cfd12c13726284
 .debug_info    0x00000000000174ed       0x84 /Users/snowyang/workspace/MSP432_DriverLib_3_10_00_09/driverlib/MSP432P4xx/ccs/msp432p4xx_driverlib.lib(gpio.o)
                0x00000000000174ed                __TI_DW.debug_info.$base_types.c8c38483d660372cd06395436475430b
 .debug_info    0x0000000000017571      0x18b /Users/snowyang/workspace/MSP432_DriverLib_3_10_00_09/driverlib/MSP432P4xx/ccs/msp432p4xx_driverlib.lib(gpio.o)
                0x0000000000017571                __TI_DW.debug_info.stdint.h.066348b889ca56249dcd34de01246954
 .debug_info    0x00000000000176fc       0xa7 /Users/snowyang/workspace/MSP432_DriverLib_3_10_00_09/driverlib/MSP432P4xx/ccs/msp432p4xx_driverlib.lib(gpio.o)
                0x00000000000176fc                __TI_DW.debug_info.yvals.h.3104962cf0c0d1dd116d97cae467d0f3
 .debug_info    0x00000000000177a3       0x2d /Users/snowyang/workspace/MSP432_DriverLib_3_10_00_09/driverlib/MSP432P4xx/ccs/msp432p4xx_driverlib.lib(gpio.o)
                0x00000000000177a3                __TI_DW.debug_info.gpio.c.1f0628f9e033b811e35a8d467090308e
 .debug_info    0x00000000000177d0       0x4e /Users/snowyang/workspace/MSP432_DriverLib_3_10_00_09/driverlib/MSP432P4xx/ccs/msp432p4xx_driverlib.lib(gpio.o)
                0x00000000000177d0                __TI_DW.debug_info.stdarg.h.94a6efd7e0ac1e1539e5ef9b3dac1248
 .debug_info    0x000000000001781e      0x4a6 /Users/snowyang/workspace/MSP432_DriverLib_3_10_00_09/driverlib/MSP432P4xx/ccs/msp432p4xx_driverlib.lib(i2c.o)
 .debug_info    0x0000000000017cc4      0x1c8 /Users/snowyang/workspace/MSP432_DriverLib_3_10_00_09/driverlib/MSP432P4xx/ccs/msp432p4xx_driverlib.lib(i2c.o)
 .debug_info    0x0000000000017e8c      0x137 /Users/snowyang/workspace/MSP432_DriverLib_3_10_00_09/driverlib/MSP432P4xx/ccs/msp432p4xx_driverlib.lib(i2c.o)
 .debug_info    0x0000000000017fc3      0x176 /Users/snowyang/workspace/MSP432_DriverLib_3_10_00_09/driverlib/MSP432P4xx/ccs/msp432p4xx_driverlib.lib(i2c.o)
 .debug_info    0x0000000000018139      0x138 /Users/snowyang/workspace/MSP432_DriverLib_3_10_00_09/driverlib/MSP432P4xx/ccs/msp432p4xx_driverlib.lib(i2c.o)
 .debug_info    0x0000000000018271      0x17c /Users/snowyang/workspace/MSP432_DriverLib_3_10_00_09/driverlib/MSP432P4xx/ccs/msp432p4xx_driverlib.lib(i2c.o)
 .debug_info    0x00000000000183ed      0x14c /Users/snowyang/workspace/MSP432_DriverLib_3_10_00_09/driverlib/MSP432P4xx/ccs/msp432p4xx_driverlib.lib(i2c.o)
 .debug_info    0x0000000000018539      0x1e1 /Users/snowyang/workspace/MSP432_DriverLib_3_10_00_09/driverlib/MSP432P4xx/ccs/msp432p4xx_driverlib.lib(i2c.o)
 .debug_info    0x000000000001871a      0x13d /Users/snowyang/workspace/MSP432_DriverLib_3_10_00_09/driverlib/MSP432P4xx/ccs/msp432p4xx_driverlib.lib(i2c.o)
 .debug_info    0x0000000000018857      0x1ed /Users/snowyang/workspace/MSP432_DriverLib_3_10_00_09/driverlib/MSP432P4xx/ccs/msp432p4xx_driverlib.lib(i2c.o)
 .debug_info    0x0000000000018a44      0x18b /Users/snowyang/workspace/MSP432_DriverLib_3_10_00_09/driverlib/MSP432P4xx/ccs/msp432p4xx_driverlib.lib(i2c.o)
 .debug_info    0x0000000000018bcf      0x19b /Users/snowyang/workspace/MSP432_DriverLib_3_10_00_09/driverlib/MSP432P4xx/ccs/msp432p4xx_driverlib.lib(i2c.o)
 .debug_info    0x0000000000018d6a      0x14d /Users/snowyang/workspace/MSP432_DriverLib_3_10_00_09/driverlib/MSP432P4xx/ccs/msp432p4xx_driverlib.lib(i2c.o)
 .debug_info    0x0000000000018eb7      0x1e4 /Users/snowyang/workspace/MSP432_DriverLib_3_10_00_09/driverlib/MSP432P4xx/ccs/msp432p4xx_driverlib.lib(i2c.o)
 .debug_info    0x000000000001909b      0x196 /Users/snowyang/workspace/MSP432_DriverLib_3_10_00_09/driverlib/MSP432P4xx/ccs/msp432p4xx_driverlib.lib(i2c.o)
 .debug_info    0x0000000000019231      0x1c5 /Users/snowyang/workspace/MSP432_DriverLib_3_10_00_09/driverlib/MSP432P4xx/ccs/msp432p4xx_driverlib.lib(i2c.o)
 .debug_info    0x00000000000193f6      0x177 /Users/snowyang/workspace/MSP432_DriverLib_3_10_00_09/driverlib/MSP432P4xx/ccs/msp432p4xx_driverlib.lib(i2c.o)
 .debug_info    0x000000000001956d      0x1e2 /Users/snowyang/workspace/MSP432_DriverLib_3_10_00_09/driverlib/MSP432P4xx/ccs/msp432p4xx_driverlib.lib(i2c.o)
 .debug_info    0x000000000001974f      0x17b /Users/snowyang/workspace/MSP432_DriverLib_3_10_00_09/driverlib/MSP432P4xx/ccs/msp432p4xx_driverlib.lib(i2c.o)
 .debug_info    0x00000000000198ca      0x143 /Users/snowyang/workspace/MSP432_DriverLib_3_10_00_09/driverlib/MSP432P4xx/ccs/msp432p4xx_driverlib.lib(i2c.o)
 .debug_info    0x0000000000019a0d      0x14e /Users/snowyang/workspace/MSP432_DriverLib_3_10_00_09/driverlib/MSP432P4xx/ccs/msp432p4xx_driverlib.lib(i2c.o)
 .debug_info    0x0000000000019b5b      0x149 /Users/snowyang/workspace/MSP432_DriverLib_3_10_00_09/driverlib/MSP432P4xx/ccs/msp432p4xx_driverlib.lib(i2c.o)
 .debug_info    0x0000000000019ca4      0x153 /Users/snowyang/workspace/MSP432_DriverLib_3_10_00_09/driverlib/MSP432P4xx/ccs/msp432p4xx_driverlib.lib(i2c.o)
 .debug_info    0x0000000000019df7      0x157 /Users/snowyang/workspace/MSP432_DriverLib_3_10_00_09/driverlib/MSP432P4xx/ccs/msp432p4xx_driverlib.lib(i2c.o)
 .debug_info    0x0000000000019f4e      0x1e8 /Users/snowyang/workspace/MSP432_DriverLib_3_10_00_09/driverlib/MSP432P4xx/ccs/msp432p4xx_driverlib.lib(i2c.o)
 .debug_info    0x000000000001a136      0x15b /Users/snowyang/workspace/MSP432_DriverLib_3_10_00_09/driverlib/MSP432P4xx/ccs/msp432p4xx_driverlib.lib(i2c.o)
 .debug_info    0x000000000001a291      0x143 /Users/snowyang/workspace/MSP432_DriverLib_3_10_00_09/driverlib/MSP432P4xx/ccs/msp432p4xx_driverlib.lib(i2c.o)
 .debug_info    0x000000000001a3d4      0x145 /Users/snowyang/workspace/MSP432_DriverLib_3_10_00_09/driverlib/MSP432P4xx/ccs/msp432p4xx_driverlib.lib(i2c.o)
 .debug_info    0x000000000001a519      0x132 /Users/snowyang/workspace/MSP432_DriverLib_3_10_00_09/driverlib/MSP432P4xx/ccs/msp432p4xx_driverlib.lib(i2c.o)
 .debug_info    0x000000000001a64b      0x230 /Users/snowyang/workspace/MSP432_DriverLib_3_10_00_09/driverlib/MSP432P4xx/ccs/msp432p4xx_driverlib.lib(i2c.o)
 .debug_info    0x000000000001a87b      0x15a /Users/snowyang/workspace/MSP432_DriverLib_3_10_00_09/driverlib/MSP432P4xx/ccs/msp432p4xx_driverlib.lib(i2c.o)
 .debug_info    0x000000000001a9d5      0x15f /Users/snowyang/workspace/MSP432_DriverLib_3_10_00_09/driverlib/MSP432P4xx/ccs/msp432p4xx_driverlib.lib(i2c.o)
 .debug_info    0x000000000001ab34      0x15d /Users/snowyang/workspace/MSP432_DriverLib_3_10_00_09/driverlib/MSP432P4xx/ccs/msp432p4xx_driverlib.lib(i2c.o)
 .debug_info    0x000000000001ac91      0x131 /Users/snowyang/workspace/MSP432_DriverLib_3_10_00_09/driverlib/MSP432P4xx/ccs/msp432p4xx_driverlib.lib(i2c.o)
 .debug_info    0x000000000001adc2      0x169 /Users/snowyang/workspace/MSP432_DriverLib_3_10_00_09/driverlib/MSP432P4xx/ccs/msp432p4xx_driverlib.lib(i2c.o)
 .debug_info    0x000000000001af2b      0x16d /Users/snowyang/workspace/MSP432_DriverLib_3_10_00_09/driverlib/MSP432P4xx/ccs/msp432p4xx_driverlib.lib(i2c.o)
 .debug_info    0x000000000001b098      0x149 /Users/snowyang/workspace/MSP432_DriverLib_3_10_00_09/driverlib/MSP432P4xx/ccs/msp432p4xx_driverlib.lib(i2c.o)
 .debug_info    0x000000000001b1e1      0x134 /Users/snowyang/workspace/MSP432_DriverLib_3_10_00_09/driverlib/MSP432P4xx/ccs/msp432p4xx_driverlib.lib(i2c.o)
 .debug_info    0x000000000001b315      0x15f /Users/snowyang/workspace/MSP432_DriverLib_3_10_00_09/driverlib/MSP432P4xx/ccs/msp432p4xx_driverlib.lib(i2c.o)
 .debug_info    0x000000000001b474      0x14b /Users/snowyang/workspace/MSP432_DriverLib_3_10_00_09/driverlib/MSP432P4xx/ccs/msp432p4xx_driverlib.lib(i2c.o)
 .debug_info    0x000000000001b5bf      0x136 /Users/snowyang/workspace/MSP432_DriverLib_3_10_00_09/driverlib/MSP432P4xx/ccs/msp432p4xx_driverlib.lib(i2c.o)
 .debug_info    0x000000000001b6f5      0x161 /Users/snowyang/workspace/MSP432_DriverLib_3_10_00_09/driverlib/MSP432P4xx/ccs/msp432p4xx_driverlib.lib(i2c.o)
 .debug_info    0x000000000001b856      0x165 /Users/snowyang/workspace/MSP432_DriverLib_3_10_00_09/driverlib/MSP432P4xx/ccs/msp432p4xx_driverlib.lib(i2c.o)
 .debug_info    0x000000000001b9bb       0x9a /Users/snowyang/workspace/MSP432_DriverLib_3_10_00_09/driverlib/MSP432P4xx/ccs/msp432p4xx_driverlib.lib(i2c.o)
                0x000000000001b9bb                __TI_DW.debug_info.i2c.h.df901748f25508a0f926da5b25480ad6
 .debug_info    0x000000000001ba55       0x8b /Users/snowyang/workspace/MSP432_DriverLib_3_10_00_09/driverlib/MSP432P4xx/ccs/msp432p4xx_driverlib.lib(i2c.o)
                0x000000000001ba55                __TI_DW.debug_info.$base_types.a3001db55c69772f4e2efd565078122a
 .debug_info    0x000000000001bae0       0x2d /Users/snowyang/workspace/MSP432_DriverLib_3_10_00_09/driverlib/MSP432P4xx/ccs/msp432p4xx_driverlib.lib(i2c.o)
                0x000000000001bae0                __TI_DW.debug_info.i2c.c.c28c76a2404c33e0a1a0020af8753e09
 .debug_info    0x000000000001bb0d      0x42c /Users/snowyang/workspace/MSP432_DriverLib_3_10_00_09/driverlib/MSP432P4xx/ccs/msp432p4xx_driverlib.lib(interrupt.o)
 .debug_info    0x000000000001bf39      0x16d /Users/snowyang/workspace/MSP432_DriverLib_3_10_00_09/driverlib/MSP432P4xx/ccs/msp432p4xx_driverlib.lib(interrupt.o)
 .debug_info    0x000000000001c0a6       0xbf /Users/snowyang/workspace/MSP432_DriverLib_3_10_00_09/driverlib/MSP432P4xx/ccs/msp432p4xx_driverlib.lib(interrupt.o)
 .debug_info    0x000000000001c165       0xcc /Users/snowyang/workspace/MSP432_DriverLib_3_10_00_09/driverlib/MSP432P4xx/ccs/msp432p4xx_driverlib.lib(interrupt.o)
 .debug_info    0x000000000001c231      0x164 /Users/snowyang/workspace/MSP432_DriverLib_3_10_00_09/driverlib/MSP432P4xx/ccs/msp432p4xx_driverlib.lib(interrupt.o)
 .debug_info    0x000000000001c395      0x165 /Users/snowyang/workspace/MSP432_DriverLib_3_10_00_09/driverlib/MSP432P4xx/ccs/msp432p4xx_driverlib.lib(interrupt.o)
 .debug_info    0x000000000001c4fa      0x13f /Users/snowyang/workspace/MSP432_DriverLib_3_10_00_09/driverlib/MSP432P4xx/ccs/msp432p4xx_driverlib.lib(interrupt.o)
 .debug_info    0x000000000001c639      0x142 /Users/snowyang/workspace/MSP432_DriverLib_3_10_00_09/driverlib/MSP432P4xx/ccs/msp432p4xx_driverlib.lib(interrupt.o)
 .debug_info    0x000000000001c77b      0x138 /Users/snowyang/workspace/MSP432_DriverLib_3_10_00_09/driverlib/MSP432P4xx/ccs/msp432p4xx_driverlib.lib(interrupt.o)
 .debug_info    0x000000000001c8b3      0x19e /Users/snowyang/workspace/MSP432_DriverLib_3_10_00_09/driverlib/MSP432P4xx/ccs/msp432p4xx_driverlib.lib(interrupt.o)
 .debug_info    0x000000000001ca51      0x1b1 /Users/snowyang/workspace/MSP432_DriverLib_3_10_00_09/driverlib/MSP432P4xx/ccs/msp432p4xx_driverlib.lib(interrupt.o)
 .debug_info    0x000000000001cc02      0x161 /Users/snowyang/workspace/MSP432_DriverLib_3_10_00_09/driverlib/MSP432P4xx/ccs/msp432p4xx_driverlib.lib(interrupt.o)
 .debug_info    0x000000000001cd63      0x16a /Users/snowyang/workspace/MSP432_DriverLib_3_10_00_09/driverlib/MSP432P4xx/ccs/msp432p4xx_driverlib.lib(interrupt.o)
 .debug_info    0x000000000001cecd      0x121 /Users/snowyang/workspace/MSP432_DriverLib_3_10_00_09/driverlib/MSP432P4xx/ccs/msp432p4xx_driverlib.lib(interrupt.o)
 .debug_info    0x000000000001cfee      0x12a /Users/snowyang/workspace/MSP432_DriverLib_3_10_00_09/driverlib/MSP432P4xx/ccs/msp432p4xx_driverlib.lib(interrupt.o)
 .debug_info    0x000000000001d118      0x147 /Users/snowyang/workspace/MSP432_DriverLib_3_10_00_09/driverlib/MSP432P4xx/ccs/msp432p4xx_driverlib.lib(interrupt.o)
 .debug_info    0x000000000001d25f      0x15b /Users/snowyang/workspace/MSP432_DriverLib_3_10_00_09/driverlib/MSP432P4xx/ccs/msp432p4xx_driverlib.lib(interrupt.o)
 .debug_info    0x000000000001d3ba      0x11b /Users/snowyang/workspace/MSP432_DriverLib_3_10_00_09/driverlib/MSP432P4xx/ccs/msp432p4xx_driverlib.lib(interrupt.o)
 .debug_info    0x000000000001d4d5      0x11c /Users/snowyang/workspace/MSP432_DriverLib_3_10_00_09/driverlib/MSP432P4xx/ccs/msp432p4xx_driverlib.lib(interrupt.o)
 .debug_info    0x000000000001d5f1      0x165 /Users/snowyang/workspace/MSP432_DriverLib_3_10_00_09/driverlib/MSP432P4xx/ccs/msp432p4xx_driverlib.lib(interrupt.o)
 .debug_info    0x000000000001d756      0x11d /Users/snowyang/workspace/MSP432_DriverLib_3_10_00_09/driverlib/MSP432P4xx/ccs/msp432p4xx_driverlib.lib(interrupt.o)
 .debug_info    0x000000000001d873      0x11e /Users/snowyang/workspace/MSP432_DriverLib_3_10_00_09/driverlib/MSP432P4xx/ccs/msp432p4xx_driverlib.lib(interrupt.o)
 .debug_info    0x000000000001d991      0x167 /Users/snowyang/workspace/MSP432_DriverLib_3_10_00_09/driverlib/MSP432P4xx/ccs/msp432p4xx_driverlib.lib(interrupt.o)
 .debug_info    0x000000000001daf8       0xf2 /Users/snowyang/workspace/MSP432_DriverLib_3_10_00_09/driverlib/MSP432P4xx/ccs/msp432p4xx_driverlib.lib(interrupt.o)
 .debug_info    0x000000000001dbea       0x2d /Users/snowyang/workspace/MSP432_DriverLib_3_10_00_09/driverlib/MSP432P4xx/ccs/msp432p4xx_driverlib.lib(interrupt.o)
                0x000000000001dbea                __TI_DW.debug_info.interrupt.c.cb9aae39771082ddf4b1b590b3eebca4
 .debug_info    0x000000000001dc17      0x492 /Users/snowyang/workspace/MSP432_DriverLib_3_10_00_09/driverlib/MSP432P4xx/ccs/msp432p4xx_driverlib.lib(uart.o)
 .debug_info    0x000000000001e0a9      0x1cd /Users/snowyang/workspace/MSP432_DriverLib_3_10_00_09/driverlib/MSP432P4xx/ccs/msp432p4xx_driverlib.lib(uart.o)
 .debug_info    0x000000000001e276      0x17b /Users/snowyang/workspace/MSP432_DriverLib_3_10_00_09/driverlib/MSP432P4xx/ccs/msp432p4xx_driverlib.lib(uart.o)
 .debug_info    0x000000000001e3f1      0x13b /Users/snowyang/workspace/MSP432_DriverLib_3_10_00_09/driverlib/MSP432P4xx/ccs/msp432p4xx_driverlib.lib(uart.o)
 .debug_info    0x000000000001e52c      0x18d /Users/snowyang/workspace/MSP432_DriverLib_3_10_00_09/driverlib/MSP432P4xx/ccs/msp432p4xx_driverlib.lib(uart.o)
 .debug_info    0x000000000001e6b9      0x135 /Users/snowyang/workspace/MSP432_DriverLib_3_10_00_09/driverlib/MSP432P4xx/ccs/msp432p4xx_driverlib.lib(uart.o)
 .debug_info    0x000000000001e7ee      0x187 /Users/snowyang/workspace/MSP432_DriverLib_3_10_00_09/driverlib/MSP432P4xx/ccs/msp432p4xx_driverlib.lib(uart.o)
 .debug_info    0x000000000001e975      0x139 /Users/snowyang/workspace/MSP432_DriverLib_3_10_00_09/driverlib/MSP432P4xx/ccs/msp432p4xx_driverlib.lib(uart.o)
 .debug_info    0x000000000001eaae      0x1e6 /Users/snowyang/workspace/MSP432_DriverLib_3_10_00_09/driverlib/MSP432P4xx/ccs/msp432p4xx_driverlib.lib(uart.o)
 .debug_info    0x000000000001ec94      0x13b /Users/snowyang/workspace/MSP432_DriverLib_3_10_00_09/driverlib/MSP432P4xx/ccs/msp432p4xx_driverlib.lib(uart.o)
 .debug_info    0x000000000001edcf      0x167 /Users/snowyang/workspace/MSP432_DriverLib_3_10_00_09/driverlib/MSP432P4xx/ccs/msp432p4xx_driverlib.lib(uart.o)
 .debug_info    0x000000000001ef36      0x163 /Users/snowyang/workspace/MSP432_DriverLib_3_10_00_09/driverlib/MSP432P4xx/ccs/msp432p4xx_driverlib.lib(uart.o)
 .debug_info    0x000000000001f099      0x161 /Users/snowyang/workspace/MSP432_DriverLib_3_10_00_09/driverlib/MSP432P4xx/ccs/msp432p4xx_driverlib.lib(uart.o)
 .debug_info    0x000000000001f1fa      0x15f /Users/snowyang/workspace/MSP432_DriverLib_3_10_00_09/driverlib/MSP432P4xx/ccs/msp432p4xx_driverlib.lib(uart.o)
 .debug_info    0x000000000001f359      0x16e /Users/snowyang/workspace/MSP432_DriverLib_3_10_00_09/driverlib/MSP432P4xx/ccs/msp432p4xx_driverlib.lib(uart.o)
 .debug_info    0x000000000001f4c7      0x1cd /Users/snowyang/workspace/MSP432_DriverLib_3_10_00_09/driverlib/MSP432P4xx/ccs/msp432p4xx_driverlib.lib(uart.o)
 .debug_info    0x000000000001f694      0x139 /Users/snowyang/workspace/MSP432_DriverLib_3_10_00_09/driverlib/MSP432P4xx/ccs/msp432p4xx_driverlib.lib(uart.o)
 .debug_info    0x000000000001f7cd      0x162 /Users/snowyang/workspace/MSP432_DriverLib_3_10_00_09/driverlib/MSP432P4xx/ccs/msp432p4xx_driverlib.lib(uart.o)
 .debug_info    0x000000000001f92f      0x13b /Users/snowyang/workspace/MSP432_DriverLib_3_10_00_09/driverlib/MSP432P4xx/ccs/msp432p4xx_driverlib.lib(uart.o)
 .debug_info    0x000000000001fa6a      0x166 /Users/snowyang/workspace/MSP432_DriverLib_3_10_00_09/driverlib/MSP432P4xx/ccs/msp432p4xx_driverlib.lib(uart.o)
 .debug_info    0x000000000001fbd0      0x16a /Users/snowyang/workspace/MSP432_DriverLib_3_10_00_09/driverlib/MSP432P4xx/ccs/msp432p4xx_driverlib.lib(uart.o)
 .debug_info    0x000000000001fd3a       0x2d /Users/snowyang/workspace/MSP432_DriverLib_3_10_00_09/driverlib/MSP432P4xx/ccs/msp432p4xx_driverlib.lib(uart.o)
                0x000000000001fd3a                __TI_DW.debug_info.uart.c.cce5d63d853ed742f8ce997a4b36a7fc
 .debug_info    0x000000000001fd67       0xee /Users/snowyang/workspace/MSP432_DriverLib_3_10_00_09/driverlib/MSP432P4xx/ccs/msp432p4xx_driverlib.lib(uart.o)
                0x000000000001fd67                __TI_DW.debug_info.uart.h.fb38e74a725c4613f99c8bafacdf9017
 .debug_info    0x000000000001fe55      0x33f /Users/snowyang/workspace/MSP432_DriverLib_3_10_00_09/driverlib/MSP432P4xx/ccs/msp432p4xx_driverlib.lib(cpu.o)
 .debug_info    0x0000000000020194       0xdb /Users/snowyang/workspace/MSP432_DriverLib_3_10_00_09/driverlib/MSP432P4xx/ccs/msp432p4xx_driverlib.lib(cpu.o)
 .debug_info    0x000000000002026f       0xe4 /Users/snowyang/workspace/MSP432_DriverLib_3_10_00_09/driverlib/MSP432P4xx/ccs/msp432p4xx_driverlib.lib(cpu.o)
 .debug_info    0x0000000000020353       0xe1 /Users/snowyang/workspace/MSP432_DriverLib_3_10_00_09/driverlib/MSP432P4xx/ccs/msp432p4xx_driverlib.lib(cpu.o)
 .debug_info    0x0000000000020434       0xe0 /Users/snowyang/workspace/MSP432_DriverLib_3_10_00_09/driverlib/MSP432P4xx/ccs/msp432p4xx_driverlib.lib(cpu.o)
 .debug_info    0x0000000000020514      0x106 /Users/snowyang/workspace/MSP432_DriverLib_3_10_00_09/driverlib/MSP432P4xx/ccs/msp432p4xx_driverlib.lib(cpu.o)
 .debug_info    0x000000000002061a       0xed /Users/snowyang/workspace/MSP432_DriverLib_3_10_00_09/driverlib/MSP432P4xx/ccs/msp432p4xx_driverlib.lib(cpu.o)
 .debug_info    0x0000000000020707       0x2d /Users/snowyang/workspace/MSP432_DriverLib_3_10_00_09/driverlib/MSP432P4xx/ccs/msp432p4xx_driverlib.lib(cpu.o)
                0x0000000000020707                __TI_DW.debug_info.cpu.c.1d849d960c8f480bc1a6ea4cd208cb5a

.debug_abbrev   0x0000000000000000     0x6e8b
 .debug_abbrev  0x0000000000000000      0x12e ./app_console.o
 .debug_abbrev  0x000000000000012e       0xf3 ./app_rgbled.o
 .debug_abbrev  0x0000000000000221      0x11c ./app_sht20.o
 .debug_abbrev  0x000000000000033d      0x111 ./app_switch.o
 .debug_abbrev  0x000000000000044e      0x278 ./main.o
 .debug_abbrev  0x00000000000006c6       0xb9 ./startup_msp432p401r_gcc.o
 .debug_abbrev  0x000000000000077f      0x108 ./system_msp432p401r.o
 .debug_abbrev  0x0000000000000887      0x22f ./Board/AliCloud_SDS/alicloud_sds.o
 .debug_abbrev  0x0000000000000ab6      0x192 ./Board/drv_VGM128064/oled.o
 .debug_abbrev  0x0000000000000c48       0x3f ./Board/drv_board.o
 .debug_abbrev  0x0000000000000c87       0x96 ./Board/drv_board_test.o
 .debug_abbrev  0x0000000000000d1d      0x107 ./Board/drv_button/io_button.o
 .debug_abbrev  0x0000000000000e24       0xc8 ./Board/drv_color_led/color_led.o
 .debug_abbrev  0x0000000000000eec       0xe3 ./Board/drv_color_led/hsb2rgb.o
 .debug_abbrev  0x0000000000000fcf      0x105 ./Board/drv_sht20/sht2x.o
 .debug_abbrev  0x00000000000010d4      0x1be ./Board/helper/emhost/ATCmdParser/ATCmdParser.o
 .debug_abbrev  0x0000000000001292       0x77 ./Board/helper/emhost/ATCmdParser/ATCmdParserTest.o
 .debug_abbrev  0x0000000000001309      0x156 ./Board/helper/emhost/emh_alisds.o
 .debug_abbrev  0x000000000000145f       0xcf ./Board/helper/emhost/emh_arg.o
 .debug_abbrev  0x000000000000152e       0xc5 ./Board/helper/emhost/emh_module.o
 .debug_abbrev  0x00000000000015f3       0xf5 ./Board/helper/emhost/emh_wlan.o
 .debug_abbrev  0x00000000000016e8      0x124 ./Board/helper/hal/mx_hal_atomic.o
 .debug_abbrev  0x000000000000180c      0x114 ./Board/helper/hal/mx_i2c.o
 .debug_abbrev  0x0000000000001920      0x152 ./Board/helper/hal/mx_serial.o
 .debug_abbrev  0x0000000000001a72       0xda ./Board/helper/hal/mx_stdio.o
 .debug_abbrev  0x0000000000001b4c      0x199 ./Board/helper/hal/mx_tick.o
 .debug_abbrev  0x0000000000001ce5      0x143 ./Board/helper/jsmn/jsmn.o
 .debug_abbrev  0x0000000000001e28      0x10a ./Board/helper/jsmn/json_escape_str.o
 .debug_abbrev  0x0000000000001f32      0x17a ./Board/helper/jsmn/json_generator.o
 .debug_abbrev  0x00000000000020ac       0xa0 ./Board/helper/jsmn/json_utils.o
 .debug_abbrev  0x000000000000214c      0x18e ./Board/helper/jsmn/json_wrappers.o
 .debug_abbrev  0x00000000000022da      0x104 ./Board/helper/mx_utils/mx_ringbuffer.o
 .debug_abbrev  0x00000000000023de       0xc3 ./aos/soc_impl.o
 .debug_abbrev  0x00000000000024a1       0x50 ./aos/trace_impl.o
 .debug_abbrev  0x00000000000024f1      0x1aa ./core/k_buf_queue.o
 .debug_abbrev  0x000000000000269b       0x24 ./core/k_dyn_mem_proc.o
 .debug_abbrev  0x00000000000026bf       0x9b ./core/k_err.o
 .debug_abbrev  0x000000000000275a       0x24 ./core/k_event.o
 .debug_abbrev  0x000000000000277e       0xa9 ./core/k_idle.o
 .debug_abbrev  0x0000000000002827       0x26 ./core/k_mm.o
 .debug_abbrev  0x000000000000284d       0x24 ./core/k_mm_blk.o
 .debug_abbrev  0x0000000000002871       0x26 ./core/k_mm_debug.o
 .debug_abbrev  0x0000000000002897      0x1b2 ./core/k_mutex.o
 .debug_abbrev  0x0000000000002a49       0xd7 ./core/k_obj.o
 .debug_abbrev  0x0000000000002b20      0x14d ./core/k_pend.o
 .debug_abbrev  0x0000000000002c6d      0x19b ./core/k_queue.o
 .debug_abbrev  0x0000000000002e08      0x11b ./core/k_ringbuf.o
 .debug_abbrev  0x0000000000002f23      0x1db ./core/k_sched.o
 .debug_abbrev  0x00000000000030fe      0x18c ./core/k_sem.o
 .debug_abbrev  0x000000000000328a      0x133 ./core/k_stats.o
 .debug_abbrev  0x00000000000033bd      0x168 ./core/k_sys.o
 .debug_abbrev  0x0000000000003525      0x1f3 ./core/k_task.o
 .debug_abbrev  0x0000000000003718       0x24 ./core/k_task_sem.o
 .debug_abbrev  0x000000000000373c      0x149 ./core/k_tick.o
 .debug_abbrev  0x0000000000003885       0xb8 ./core/k_time.o
 .debug_abbrev  0x000000000000393d       0x24 ./core/k_timer.o
 .debug_abbrev  0x0000000000003961       0x24 ./core/k_workqueue.o
 .debug_abbrev  0x0000000000003985       0xa8 ./m4/port_c.o
 .debug_abbrev  0x0000000000003a2d       0x14 ./m4/port_s.o
 .debug_abbrev  0x0000000000003a41       0xb0 /Users/snowyang/workspace/MSP432_DriverLib_3_10_00_09/driverlib/MSP432P4xx/ccs/msp432p4xx_driverlib.lib(gpio.o)
 .debug_abbrev  0x0000000000003af1       0x27 /Users/snowyang/workspace/MSP432_DriverLib_3_10_00_09/driverlib/MSP432P4xx/ccs/msp432p4xx_driverlib.lib(gpio.o)
 .debug_abbrev  0x0000000000003b18       0x27 /Users/snowyang/workspace/MSP432_DriverLib_3_10_00_09/driverlib/MSP432P4xx/ccs/msp432p4xx_driverlib.lib(gpio.o)
 .debug_abbrev  0x0000000000003b3f       0x7a /Users/snowyang/workspace/MSP432_DriverLib_3_10_00_09/driverlib/MSP432P4xx/ccs/msp432p4xx_driverlib.lib(gpio.o)
 .debug_abbrev  0x0000000000003bb9       0x6c /Users/snowyang/workspace/MSP432_DriverLib_3_10_00_09/driverlib/MSP432P4xx/ccs/msp432p4xx_driverlib.lib(gpio.o)
 .debug_abbrev  0x0000000000003c25       0x6c /Users/snowyang/workspace/MSP432_DriverLib_3_10_00_09/driverlib/MSP432P4xx/ccs/msp432p4xx_driverlib.lib(gpio.o)
 .debug_abbrev  0x0000000000003c91       0x6c /Users/snowyang/workspace/MSP432_DriverLib_3_10_00_09/driverlib/MSP432P4xx/ccs/msp432p4xx_driverlib.lib(gpio.o)
 .debug_abbrev  0x0000000000003cfd       0x6c /Users/snowyang/workspace/MSP432_DriverLib_3_10_00_09/driverlib/MSP432P4xx/ccs/msp432p4xx_driverlib.lib(gpio.o)
 .debug_abbrev  0x0000000000003d69       0x6c /Users/snowyang/workspace/MSP432_DriverLib_3_10_00_09/driverlib/MSP432P4xx/ccs/msp432p4xx_driverlib.lib(gpio.o)
 .debug_abbrev  0x0000000000003dd5       0x6c /Users/snowyang/workspace/MSP432_DriverLib_3_10_00_09/driverlib/MSP432P4xx/ccs/msp432p4xx_driverlib.lib(gpio.o)
 .debug_abbrev  0x0000000000003e41       0x6c /Users/snowyang/workspace/MSP432_DriverLib_3_10_00_09/driverlib/MSP432P4xx/ccs/msp432p4xx_driverlib.lib(gpio.o)
 .debug_abbrev  0x0000000000003ead       0x6c /Users/snowyang/workspace/MSP432_DriverLib_3_10_00_09/driverlib/MSP432P4xx/ccs/msp432p4xx_driverlib.lib(gpio.o)
 .debug_abbrev  0x0000000000003f19       0x6c /Users/snowyang/workspace/MSP432_DriverLib_3_10_00_09/driverlib/MSP432P4xx/ccs/msp432p4xx_driverlib.lib(gpio.o)
 .debug_abbrev  0x0000000000003f85       0x6c /Users/snowyang/workspace/MSP432_DriverLib_3_10_00_09/driverlib/MSP432P4xx/ccs/msp432p4xx_driverlib.lib(gpio.o)
 .debug_abbrev  0x0000000000003ff1       0x6c /Users/snowyang/workspace/MSP432_DriverLib_3_10_00_09/driverlib/MSP432P4xx/ccs/msp432p4xx_driverlib.lib(gpio.o)
 .debug_abbrev  0x000000000000405d       0x7a /Users/snowyang/workspace/MSP432_DriverLib_3_10_00_09/driverlib/MSP432P4xx/ccs/msp432p4xx_driverlib.lib(gpio.o)
 .debug_abbrev  0x00000000000040d7       0x6c /Users/snowyang/workspace/MSP432_DriverLib_3_10_00_09/driverlib/MSP432P4xx/ccs/msp432p4xx_driverlib.lib(gpio.o)
 .debug_abbrev  0x0000000000004143       0x6e /Users/snowyang/workspace/MSP432_DriverLib_3_10_00_09/driverlib/MSP432P4xx/ccs/msp432p4xx_driverlib.lib(gpio.o)
 .debug_abbrev  0x00000000000041b1       0x6e /Users/snowyang/workspace/MSP432_DriverLib_3_10_00_09/driverlib/MSP432P4xx/ccs/msp432p4xx_driverlib.lib(gpio.o)
 .debug_abbrev  0x000000000000421f       0x7c /Users/snowyang/workspace/MSP432_DriverLib_3_10_00_09/driverlib/MSP432P4xx/ccs/msp432p4xx_driverlib.lib(gpio.o)
 .debug_abbrev  0x000000000000429b       0x6c /Users/snowyang/workspace/MSP432_DriverLib_3_10_00_09/driverlib/MSP432P4xx/ccs/msp432p4xx_driverlib.lib(gpio.o)
 .debug_abbrev  0x0000000000004307       0x6c /Users/snowyang/workspace/MSP432_DriverLib_3_10_00_09/driverlib/MSP432P4xx/ccs/msp432p4xx_driverlib.lib(gpio.o)
 .debug_abbrev  0x0000000000004373       0x6c /Users/snowyang/workspace/MSP432_DriverLib_3_10_00_09/driverlib/MSP432P4xx/ccs/msp432p4xx_driverlib.lib(gpio.o)
 .debug_abbrev  0x00000000000043df       0x97 /Users/snowyang/workspace/MSP432_DriverLib_3_10_00_09/driverlib/MSP432P4xx/ccs/msp432p4xx_driverlib.lib(gpio.o)
 .debug_abbrev  0x0000000000004476       0xbd /Users/snowyang/workspace/MSP432_DriverLib_3_10_00_09/driverlib/MSP432P4xx/ccs/msp432p4xx_driverlib.lib(gpio.o)
 .debug_abbrev  0x0000000000004533       0x1f /Users/snowyang/workspace/MSP432_DriverLib_3_10_00_09/driverlib/MSP432P4xx/ccs/msp432p4xx_driverlib.lib(gpio.o)
 .debug_abbrev  0x0000000000004552       0x35 /Users/snowyang/workspace/MSP432_DriverLib_3_10_00_09/driverlib/MSP432P4xx/ccs/msp432p4xx_driverlib.lib(gpio.o)
 .debug_abbrev  0x0000000000004587       0x35 /Users/snowyang/workspace/MSP432_DriverLib_3_10_00_09/driverlib/MSP432P4xx/ccs/msp432p4xx_driverlib.lib(gpio.o)
 .debug_abbrev  0x00000000000045bc       0x24 /Users/snowyang/workspace/MSP432_DriverLib_3_10_00_09/driverlib/MSP432P4xx/ccs/msp432p4xx_driverlib.lib(gpio.o)
 .debug_abbrev  0x00000000000045e0       0x4b /Users/snowyang/workspace/MSP432_DriverLib_3_10_00_09/driverlib/MSP432P4xx/ccs/msp432p4xx_driverlib.lib(gpio.o)
 .debug_abbrev  0x000000000000462b       0xb7 /Users/snowyang/workspace/MSP432_DriverLib_3_10_00_09/driverlib/MSP432P4xx/ccs/msp432p4xx_driverlib.lib(i2c.o)
 .debug_abbrev  0x00000000000046e2       0x6c /Users/snowyang/workspace/MSP432_DriverLib_3_10_00_09/driverlib/MSP432P4xx/ccs/msp432p4xx_driverlib.lib(i2c.o)
 .debug_abbrev  0x000000000000474e       0x6c /Users/snowyang/workspace/MSP432_DriverLib_3_10_00_09/driverlib/MSP432P4xx/ccs/msp432p4xx_driverlib.lib(i2c.o)
 .debug_abbrev  0x00000000000047ba       0x6c /Users/snowyang/workspace/MSP432_DriverLib_3_10_00_09/driverlib/MSP432P4xx/ccs/msp432p4xx_driverlib.lib(i2c.o)
 .debug_abbrev  0x0000000000004826       0x6e /Users/snowyang/workspace/MSP432_DriverLib_3_10_00_09/driverlib/MSP432P4xx/ccs/msp432p4xx_driverlib.lib(i2c.o)
 .debug_abbrev  0x0000000000004894       0x6c /Users/snowyang/workspace/MSP432_DriverLib_3_10_00_09/driverlib/MSP432P4xx/ccs/msp432p4xx_driverlib.lib(i2c.o)
 .debug_abbrev  0x0000000000004900       0x6c /Users/snowyang/workspace/MSP432_DriverLib_3_10_00_09/driverlib/MSP432P4xx/ccs/msp432p4xx_driverlib.lib(i2c.o)
 .debug_abbrev  0x000000000000496c       0x6c /Users/snowyang/workspace/MSP432_DriverLib_3_10_00_09/driverlib/MSP432P4xx/ccs/msp432p4xx_driverlib.lib(i2c.o)
 .debug_abbrev  0x00000000000049d8       0x6c /Users/snowyang/workspace/MSP432_DriverLib_3_10_00_09/driverlib/MSP432P4xx/ccs/msp432p4xx_driverlib.lib(i2c.o)
 .debug_abbrev  0x0000000000004a44       0x6e /Users/snowyang/workspace/MSP432_DriverLib_3_10_00_09/driverlib/MSP432P4xx/ccs/msp432p4xx_driverlib.lib(i2c.o)
 .debug_abbrev  0x0000000000004ab2       0x6c /Users/snowyang/workspace/MSP432_DriverLib_3_10_00_09/driverlib/MSP432P4xx/ccs/msp432p4xx_driverlib.lib(i2c.o)
 .debug_abbrev  0x0000000000004b1e       0x6e /Users/snowyang/workspace/MSP432_DriverLib_3_10_00_09/driverlib/MSP432P4xx/ccs/msp432p4xx_driverlib.lib(i2c.o)
 .debug_abbrev  0x0000000000004b8c       0x6c /Users/snowyang/workspace/MSP432_DriverLib_3_10_00_09/driverlib/MSP432P4xx/ccs/msp432p4xx_driverlib.lib(i2c.o)
 .debug_abbrev  0x0000000000004bf8       0x6e /Users/snowyang/workspace/MSP432_DriverLib_3_10_00_09/driverlib/MSP432P4xx/ccs/msp432p4xx_driverlib.lib(i2c.o)
 .debug_abbrev  0x0000000000004c66       0x6c /Users/snowyang/workspace/MSP432_DriverLib_3_10_00_09/driverlib/MSP432P4xx/ccs/msp432p4xx_driverlib.lib(i2c.o)
 .debug_abbrev  0x0000000000004cd2       0x6e /Users/snowyang/workspace/MSP432_DriverLib_3_10_00_09/driverlib/MSP432P4xx/ccs/msp432p4xx_driverlib.lib(i2c.o)
 .debug_abbrev  0x0000000000004d40       0x6c /Users/snowyang/workspace/MSP432_DriverLib_3_10_00_09/driverlib/MSP432P4xx/ccs/msp432p4xx_driverlib.lib(i2c.o)
 .debug_abbrev  0x0000000000004dac       0x6e /Users/snowyang/workspace/MSP432_DriverLib_3_10_00_09/driverlib/MSP432P4xx/ccs/msp432p4xx_driverlib.lib(i2c.o)
 .debug_abbrev  0x0000000000004e1a       0x6c /Users/snowyang/workspace/MSP432_DriverLib_3_10_00_09/driverlib/MSP432P4xx/ccs/msp432p4xx_driverlib.lib(i2c.o)
 .debug_abbrev  0x0000000000004e86       0x6c /Users/snowyang/workspace/MSP432_DriverLib_3_10_00_09/driverlib/MSP432P4xx/ccs/msp432p4xx_driverlib.lib(i2c.o)
 .debug_abbrev  0x0000000000004ef2       0x6e /Users/snowyang/workspace/MSP432_DriverLib_3_10_00_09/driverlib/MSP432P4xx/ccs/msp432p4xx_driverlib.lib(i2c.o)
 .debug_abbrev  0x0000000000004f60       0x6e /Users/snowyang/workspace/MSP432_DriverLib_3_10_00_09/driverlib/MSP432P4xx/ccs/msp432p4xx_driverlib.lib(i2c.o)
 .debug_abbrev  0x0000000000004fce       0x6c /Users/snowyang/workspace/MSP432_DriverLib_3_10_00_09/driverlib/MSP432P4xx/ccs/msp432p4xx_driverlib.lib(i2c.o)
 .debug_abbrev  0x000000000000503a       0x6e /Users/snowyang/workspace/MSP432_DriverLib_3_10_00_09/driverlib/MSP432P4xx/ccs/msp432p4xx_driverlib.lib(i2c.o)
 .debug_abbrev  0x00000000000050a8       0x6e /Users/snowyang/workspace/MSP432_DriverLib_3_10_00_09/driverlib/MSP432P4xx/ccs/msp432p4xx_driverlib.lib(i2c.o)
 .debug_abbrev  0x0000000000005116       0x6e /Users/snowyang/workspace/MSP432_DriverLib_3_10_00_09/driverlib/MSP432P4xx/ccs/msp432p4xx_driverlib.lib(i2c.o)
 .debug_abbrev  0x0000000000005184       0x6e /Users/snowyang/workspace/MSP432_DriverLib_3_10_00_09/driverlib/MSP432P4xx/ccs/msp432p4xx_driverlib.lib(i2c.o)
 .debug_abbrev  0x00000000000051f2       0x6e /Users/snowyang/workspace/MSP432_DriverLib_3_10_00_09/driverlib/MSP432P4xx/ccs/msp432p4xx_driverlib.lib(i2c.o)
 .debug_abbrev  0x0000000000005260       0x6e /Users/snowyang/workspace/MSP432_DriverLib_3_10_00_09/driverlib/MSP432P4xx/ccs/msp432p4xx_driverlib.lib(i2c.o)
 .debug_abbrev  0x00000000000052ce       0x6c /Users/snowyang/workspace/MSP432_DriverLib_3_10_00_09/driverlib/MSP432P4xx/ccs/msp432p4xx_driverlib.lib(i2c.o)
 .debug_abbrev  0x000000000000533a       0x6c /Users/snowyang/workspace/MSP432_DriverLib_3_10_00_09/driverlib/MSP432P4xx/ccs/msp432p4xx_driverlib.lib(i2c.o)
 .debug_abbrev  0x00000000000053a6       0x6e /Users/snowyang/workspace/MSP432_DriverLib_3_10_00_09/driverlib/MSP432P4xx/ccs/msp432p4xx_driverlib.lib(i2c.o)
 .debug_abbrev  0x0000000000005414       0x6e /Users/snowyang/workspace/MSP432_DriverLib_3_10_00_09/driverlib/MSP432P4xx/ccs/msp432p4xx_driverlib.lib(i2c.o)
 .debug_abbrev  0x0000000000005482       0x6e /Users/snowyang/workspace/MSP432_DriverLib_3_10_00_09/driverlib/MSP432P4xx/ccs/msp432p4xx_driverlib.lib(i2c.o)
 .debug_abbrev  0x00000000000054f0       0x6e /Users/snowyang/workspace/MSP432_DriverLib_3_10_00_09/driverlib/MSP432P4xx/ccs/msp432p4xx_driverlib.lib(i2c.o)
 .debug_abbrev  0x000000000000555e       0x73 /Users/snowyang/workspace/MSP432_DriverLib_3_10_00_09/driverlib/MSP432P4xx/ccs/msp432p4xx_driverlib.lib(i2c.o)
 .debug_abbrev  0x00000000000055d1       0x6c /Users/snowyang/workspace/MSP432_DriverLib_3_10_00_09/driverlib/MSP432P4xx/ccs/msp432p4xx_driverlib.lib(i2c.o)
 .debug_abbrev  0x000000000000563d       0x6c /Users/snowyang/workspace/MSP432_DriverLib_3_10_00_09/driverlib/MSP432P4xx/ccs/msp432p4xx_driverlib.lib(i2c.o)
 .debug_abbrev  0x00000000000056a9       0x6c /Users/snowyang/workspace/MSP432_DriverLib_3_10_00_09/driverlib/MSP432P4xx/ccs/msp432p4xx_driverlib.lib(i2c.o)
 .debug_abbrev  0x0000000000005715       0x6c /Users/snowyang/workspace/MSP432_DriverLib_3_10_00_09/driverlib/MSP432P4xx/ccs/msp432p4xx_driverlib.lib(i2c.o)
 .debug_abbrev  0x0000000000005781       0x6c /Users/snowyang/workspace/MSP432_DriverLib_3_10_00_09/driverlib/MSP432P4xx/ccs/msp432p4xx_driverlib.lib(i2c.o)
 .debug_abbrev  0x00000000000057ed       0x6c /Users/snowyang/workspace/MSP432_DriverLib_3_10_00_09/driverlib/MSP432P4xx/ccs/msp432p4xx_driverlib.lib(i2c.o)
 .debug_abbrev  0x0000000000005859       0x6c /Users/snowyang/workspace/MSP432_DriverLib_3_10_00_09/driverlib/MSP432P4xx/ccs/msp432p4xx_driverlib.lib(i2c.o)
 .debug_abbrev  0x00000000000058c5       0x49 /Users/snowyang/workspace/MSP432_DriverLib_3_10_00_09/driverlib/MSP432P4xx/ccs/msp432p4xx_driverlib.lib(i2c.o)
 .debug_abbrev  0x000000000000590e       0x1f /Users/snowyang/workspace/MSP432_DriverLib_3_10_00_09/driverlib/MSP432P4xx/ccs/msp432p4xx_driverlib.lib(i2c.o)
 .debug_abbrev  0x000000000000592d       0x24 /Users/snowyang/workspace/MSP432_DriverLib_3_10_00_09/driverlib/MSP432P4xx/ccs/msp432p4xx_driverlib.lib(i2c.o)
 .debug_abbrev  0x0000000000005951       0xb0 /Users/snowyang/workspace/MSP432_DriverLib_3_10_00_09/driverlib/MSP432P4xx/ccs/msp432p4xx_driverlib.lib(interrupt.o)
 .debug_abbrev  0x0000000000005a01       0x27 /Users/snowyang/workspace/MSP432_DriverLib_3_10_00_09/driverlib/MSP432P4xx/ccs/msp432p4xx_driverlib.lib(interrupt.o)
 .debug_abbrev  0x0000000000005a28       0x27 /Users/snowyang/workspace/MSP432_DriverLib_3_10_00_09/driverlib/MSP432P4xx/ccs/msp432p4xx_driverlib.lib(interrupt.o)
 .debug_abbrev  0x0000000000005a4f       0x29 /Users/snowyang/workspace/MSP432_DriverLib_3_10_00_09/driverlib/MSP432P4xx/ccs/msp432p4xx_driverlib.lib(interrupt.o)
 .debug_abbrev  0x0000000000005a78       0x6c /Users/snowyang/workspace/MSP432_DriverLib_3_10_00_09/driverlib/MSP432P4xx/ccs/msp432p4xx_driverlib.lib(interrupt.o)
 .debug_abbrev  0x0000000000005ae4       0x6c /Users/snowyang/workspace/MSP432_DriverLib_3_10_00_09/driverlib/MSP432P4xx/ccs/msp432p4xx_driverlib.lib(interrupt.o)
 .debug_abbrev  0x0000000000005b50       0x6c /Users/snowyang/workspace/MSP432_DriverLib_3_10_00_09/driverlib/MSP432P4xx/ccs/msp432p4xx_driverlib.lib(interrupt.o)
 .debug_abbrev  0x0000000000005bbc       0x63 /Users/snowyang/workspace/MSP432_DriverLib_3_10_00_09/driverlib/MSP432P4xx/ccs/msp432p4xx_driverlib.lib(interrupt.o)
 .debug_abbrev  0x0000000000005c1f       0x6c /Users/snowyang/workspace/MSP432_DriverLib_3_10_00_09/driverlib/MSP432P4xx/ccs/msp432p4xx_driverlib.lib(interrupt.o)
 .debug_abbrev  0x0000000000005c8b       0x6c /Users/snowyang/workspace/MSP432_DriverLib_3_10_00_09/driverlib/MSP432P4xx/ccs/msp432p4xx_driverlib.lib(interrupt.o)
 .debug_abbrev  0x0000000000005cf7       0x6c /Users/snowyang/workspace/MSP432_DriverLib_3_10_00_09/driverlib/MSP432P4xx/ccs/msp432p4xx_driverlib.lib(interrupt.o)
 .debug_abbrev  0x0000000000005d63       0x6c /Users/snowyang/workspace/MSP432_DriverLib_3_10_00_09/driverlib/MSP432P4xx/ccs/msp432p4xx_driverlib.lib(interrupt.o)
 .debug_abbrev  0x0000000000005dcf       0x6e /Users/snowyang/workspace/MSP432_DriverLib_3_10_00_09/driverlib/MSP432P4xx/ccs/msp432p4xx_driverlib.lib(interrupt.o)
 .debug_abbrev  0x0000000000005e3d       0x52 /Users/snowyang/workspace/MSP432_DriverLib_3_10_00_09/driverlib/MSP432P4xx/ccs/msp432p4xx_driverlib.lib(interrupt.o)
 .debug_abbrev  0x0000000000005e8f       0x60 /Users/snowyang/workspace/MSP432_DriverLib_3_10_00_09/driverlib/MSP432P4xx/ccs/msp432p4xx_driverlib.lib(interrupt.o)
 .debug_abbrev  0x0000000000005eef       0x60 /Users/snowyang/workspace/MSP432_DriverLib_3_10_00_09/driverlib/MSP432P4xx/ccs/msp432p4xx_driverlib.lib(interrupt.o)
 .debug_abbrev  0x0000000000005f4f       0x6e /Users/snowyang/workspace/MSP432_DriverLib_3_10_00_09/driverlib/MSP432P4xx/ccs/msp432p4xx_driverlib.lib(interrupt.o)
 .debug_abbrev  0x0000000000005fbd       0x50 /Users/snowyang/workspace/MSP432_DriverLib_3_10_00_09/driverlib/MSP432P4xx/ccs/msp432p4xx_driverlib.lib(interrupt.o)
 .debug_abbrev  0x000000000000600d       0x60 /Users/snowyang/workspace/MSP432_DriverLib_3_10_00_09/driverlib/MSP432P4xx/ccs/msp432p4xx_driverlib.lib(interrupt.o)
 .debug_abbrev  0x000000000000606d       0x6c /Users/snowyang/workspace/MSP432_DriverLib_3_10_00_09/driverlib/MSP432P4xx/ccs/msp432p4xx_driverlib.lib(interrupt.o)
 .debug_abbrev  0x00000000000060d9       0x50 /Users/snowyang/workspace/MSP432_DriverLib_3_10_00_09/driverlib/MSP432P4xx/ccs/msp432p4xx_driverlib.lib(interrupt.o)
 .debug_abbrev  0x0000000000006129       0x60 /Users/snowyang/workspace/MSP432_DriverLib_3_10_00_09/driverlib/MSP432P4xx/ccs/msp432p4xx_driverlib.lib(interrupt.o)
 .debug_abbrev  0x0000000000006189       0x6c /Users/snowyang/workspace/MSP432_DriverLib_3_10_00_09/driverlib/MSP432P4xx/ccs/msp432p4xx_driverlib.lib(interrupt.o)
 .debug_abbrev  0x00000000000061f5       0x40 /Users/snowyang/workspace/MSP432_DriverLib_3_10_00_09/driverlib/MSP432P4xx/ccs/msp432p4xx_driverlib.lib(interrupt.o)
 .debug_abbrev  0x0000000000006235       0x24 /Users/snowyang/workspace/MSP432_DriverLib_3_10_00_09/driverlib/MSP432P4xx/ccs/msp432p4xx_driverlib.lib(interrupt.o)
 .debug_abbrev  0x0000000000006259       0xb7 /Users/snowyang/workspace/MSP432_DriverLib_3_10_00_09/driverlib/MSP432P4xx/ccs/msp432p4xx_driverlib.lib(uart.o)
 .debug_abbrev  0x0000000000006310       0x6c /Users/snowyang/workspace/MSP432_DriverLib_3_10_00_09/driverlib/MSP432P4xx/ccs/msp432p4xx_driverlib.lib(uart.o)
 .debug_abbrev  0x000000000000637c       0x6c /Users/snowyang/workspace/MSP432_DriverLib_3_10_00_09/driverlib/MSP432P4xx/ccs/msp432p4xx_driverlib.lib(uart.o)
 .debug_abbrev  0x00000000000063e8       0x6c /Users/snowyang/workspace/MSP432_DriverLib_3_10_00_09/driverlib/MSP432P4xx/ccs/msp432p4xx_driverlib.lib(uart.o)
 .debug_abbrev  0x0000000000006454       0x6c /Users/snowyang/workspace/MSP432_DriverLib_3_10_00_09/driverlib/MSP432P4xx/ccs/msp432p4xx_driverlib.lib(uart.o)
 .debug_abbrev  0x00000000000064c0       0x6c /Users/snowyang/workspace/MSP432_DriverLib_3_10_00_09/driverlib/MSP432P4xx/ccs/msp432p4xx_driverlib.lib(uart.o)
 .debug_abbrev  0x000000000000652c       0x6c /Users/snowyang/workspace/MSP432_DriverLib_3_10_00_09/driverlib/MSP432P4xx/ccs/msp432p4xx_driverlib.lib(uart.o)
 .debug_abbrev  0x0000000000006598       0x6c /Users/snowyang/workspace/MSP432_DriverLib_3_10_00_09/driverlib/MSP432P4xx/ccs/msp432p4xx_driverlib.lib(uart.o)
 .debug_abbrev  0x0000000000006604       0x6c /Users/snowyang/workspace/MSP432_DriverLib_3_10_00_09/driverlib/MSP432P4xx/ccs/msp432p4xx_driverlib.lib(uart.o)
 .debug_abbrev  0x0000000000006670       0x6e /Users/snowyang/workspace/MSP432_DriverLib_3_10_00_09/driverlib/MSP432P4xx/ccs/msp432p4xx_driverlib.lib(uart.o)
 .debug_abbrev  0x00000000000066de       0x6e /Users/snowyang/workspace/MSP432_DriverLib_3_10_00_09/driverlib/MSP432P4xx/ccs/msp432p4xx_driverlib.lib(uart.o)
 .debug_abbrev  0x000000000000674c       0x6e /Users/snowyang/workspace/MSP432_DriverLib_3_10_00_09/driverlib/MSP432P4xx/ccs/msp432p4xx_driverlib.lib(uart.o)
 .debug_abbrev  0x00000000000067ba       0x6e /Users/snowyang/workspace/MSP432_DriverLib_3_10_00_09/driverlib/MSP432P4xx/ccs/msp432p4xx_driverlib.lib(uart.o)
 .debug_abbrev  0x0000000000006828       0x6e /Users/snowyang/workspace/MSP432_DriverLib_3_10_00_09/driverlib/MSP432P4xx/ccs/msp432p4xx_driverlib.lib(uart.o)
 .debug_abbrev  0x0000000000006896       0x6e /Users/snowyang/workspace/MSP432_DriverLib_3_10_00_09/driverlib/MSP432P4xx/ccs/msp432p4xx_driverlib.lib(uart.o)
 .debug_abbrev  0x0000000000006904       0x7c /Users/snowyang/workspace/MSP432_DriverLib_3_10_00_09/driverlib/MSP432P4xx/ccs/msp432p4xx_driverlib.lib(uart.o)
 .debug_abbrev  0x0000000000006980       0x6c /Users/snowyang/workspace/MSP432_DriverLib_3_10_00_09/driverlib/MSP432P4xx/ccs/msp432p4xx_driverlib.lib(uart.o)
 .debug_abbrev  0x00000000000069ec       0x6c /Users/snowyang/workspace/MSP432_DriverLib_3_10_00_09/driverlib/MSP432P4xx/ccs/msp432p4xx_driverlib.lib(uart.o)
 .debug_abbrev  0x0000000000006a58       0x6c /Users/snowyang/workspace/MSP432_DriverLib_3_10_00_09/driverlib/MSP432P4xx/ccs/msp432p4xx_driverlib.lib(uart.o)
 .debug_abbrev  0x0000000000006ac4       0x6c /Users/snowyang/workspace/MSP432_DriverLib_3_10_00_09/driverlib/MSP432P4xx/ccs/msp432p4xx_driverlib.lib(uart.o)
 .debug_abbrev  0x0000000000006b30       0x6c /Users/snowyang/workspace/MSP432_DriverLib_3_10_00_09/driverlib/MSP432P4xx/ccs/msp432p4xx_driverlib.lib(uart.o)
 .debug_abbrev  0x0000000000006b9c       0x24 /Users/snowyang/workspace/MSP432_DriverLib_3_10_00_09/driverlib/MSP432P4xx/ccs/msp432p4xx_driverlib.lib(uart.o)
 .debug_abbrev  0x0000000000006bc0       0x4b /Users/snowyang/workspace/MSP432_DriverLib_3_10_00_09/driverlib/MSP432P4xx/ccs/msp432p4xx_driverlib.lib(uart.o)
 .debug_abbrev  0x0000000000006c0b       0x66 /Users/snowyang/workspace/MSP432_DriverLib_3_10_00_09/driverlib/MSP432P4xx/ccs/msp432p4xx_driverlib.lib(cpu.o)
 .debug_abbrev  0x0000000000006c71       0x50 /Users/snowyang/workspace/MSP432_DriverLib_3_10_00_09/driverlib/MSP432P4xx/ccs/msp432p4xx_driverlib.lib(cpu.o)
 .debug_abbrev  0x0000000000006cc1       0x52 /Users/snowyang/workspace/MSP432_DriverLib_3_10_00_09/driverlib/MSP432P4xx/ccs/msp432p4xx_driverlib.lib(cpu.o)
 .debug_abbrev  0x0000000000006d13       0x52 /Users/snowyang/workspace/MSP432_DriverLib_3_10_00_09/driverlib/MSP432P4xx/ccs/msp432p4xx_driverlib.lib(cpu.o)
 .debug_abbrev  0x0000000000006d65       0x52 /Users/snowyang/workspace/MSP432_DriverLib_3_10_00_09/driverlib/MSP432P4xx/ccs/msp432p4xx_driverlib.lib(cpu.o)
 .debug_abbrev  0x0000000000006db7       0x5e /Users/snowyang/workspace/MSP432_DriverLib_3_10_00_09/driverlib/MSP432P4xx/ccs/msp432p4xx_driverlib.lib(cpu.o)
 .debug_abbrev  0x0000000000006e15       0x52 /Users/snowyang/workspace/MSP432_DriverLib_3_10_00_09/driverlib/MSP432P4xx/ccs/msp432p4xx_driverlib.lib(cpu.o)
 .debug_abbrev  0x0000000000006e67       0x24 /Users/snowyang/workspace/MSP432_DriverLib_3_10_00_09/driverlib/MSP432P4xx/ccs/msp432p4xx_driverlib.lib(cpu.o)

.debug_aranges  0x0000000000000000     0x1e10
 .debug_aranges
                0x0000000000000000       0x40 ./app_console.o
 .debug_aranges
                0x0000000000000040       0x60 ./app_rgbled.o
 .debug_aranges
                0x00000000000000a0       0x38 ./app_sht20.o
 .debug_aranges
                0x00000000000000d8       0x38 ./app_switch.o
 .debug_aranges
                0x0000000000000110       0x70 ./main.o
 .debug_aranges
                0x0000000000000180       0x38 ./startup_msp432p401r_gcc.o
 .debug_aranges
                0x00000000000001b8       0x28 ./system_msp432p401r.o
 .debug_aranges
                0x00000000000001e0       0x70 ./Board/AliCloud_SDS/alicloud_sds.o
 .debug_aranges
                0x0000000000000250       0xa0 ./Board/drv_VGM128064/oled.o
 .debug_aranges
                0x00000000000002f0       0x20 ./Board/drv_board.o
 .debug_aranges
                0x0000000000000310       0x20 ./Board/drv_board_test.o
 .debug_aranges
                0x0000000000000330       0x30 ./Board/drv_button/io_button.o
 .debug_aranges
                0x0000000000000360       0x30 ./Board/drv_color_led/color_led.o
 .debug_aranges
                0x0000000000000390       0x30 ./Board/drv_color_led/hsb2rgb.o
 .debug_aranges
                0x00000000000003c0       0x48 ./Board/drv_sht20/sht2x.o
 .debug_aranges
                0x0000000000000408       0x80 ./Board/helper/emhost/ATCmdParser/ATCmdParser.o
 .debug_aranges
                0x0000000000000488       0x20 ./Board/helper/emhost/ATCmdParser/ATCmdParserTest.o
 .debug_aranges
                0x00000000000004a8       0x68 ./Board/helper/emhost/emh_alisds.o
 .debug_aranges
                0x0000000000000510       0x28 ./Board/helper/emhost/emh_arg.o
 .debug_aranges
                0x0000000000000538       0x48 ./Board/helper/emhost/emh_module.o
 .debug_aranges
                0x0000000000000580       0x30 ./Board/helper/emhost/emh_wlan.o
 .debug_aranges
                0x00000000000005b0       0x28 ./Board/helper/hal/mx_hal_atomic.o
 .debug_aranges
                0x00000000000005d8       0x30 ./Board/helper/hal/mx_i2c.o
 .debug_aranges
                0x0000000000000608       0x58 ./Board/helper/hal/mx_serial.o
 .debug_aranges
                0x0000000000000660       0x28 ./Board/helper/hal/mx_stdio.o
 .debug_aranges
                0x0000000000000688       0x48 ./Board/helper/hal/mx_tick.o
 .debug_aranges
                0x00000000000006d0       0x48 ./Board/helper/jsmn/jsmn.o
 .debug_aranges
                0x0000000000000718       0x40 ./Board/helper/jsmn/json_escape_str.o
 .debug_aranges
                0x0000000000000758       0x90 ./Board/helper/jsmn/json_generator.o
 .debug_aranges
                0x00000000000007e8       0x28 ./Board/helper/jsmn/json_utils.o
 .debug_aranges
                0x0000000000000810      0x128 ./Board/helper/jsmn/json_wrappers.o
 .debug_aranges
                0x0000000000000938       0x40 ./Board/helper/mx_utils/mx_ringbuffer.o
 .debug_aranges
                0x0000000000000978       0x20 ./aos/soc_impl.o
 .debug_aranges
                0x0000000000000998       0x20 ./aos/trace_impl.o
 .debug_aranges
                0x00000000000009b8       0x88 ./core/k_buf_queue.o
 .debug_aranges
                0x0000000000000a40       0x18 ./core/k_dyn_mem_proc.o
 .debug_aranges
                0x0000000000000a58       0x20 ./core/k_err.o
 .debug_aranges
                0x0000000000000a78       0x18 ./core/k_event.o
 .debug_aranges
                0x0000000000000a90       0x28 ./core/k_idle.o
 .debug_aranges
                0x0000000000000ab8       0x18 ./core/k_mm.o
 .debug_aranges
                0x0000000000000ad0       0x18 ./core/k_mm_blk.o
 .debug_aranges
                0x0000000000000ae8       0x18 ./core/k_mm_debug.o
 .debug_aranges
                0x0000000000000b00       0x88 ./core/k_mutex.o
 .debug_aranges
                0x0000000000000b88       0x18 ./core/k_obj.o
 .debug_aranges
                0x0000000000000ba0       0x58 ./core/k_pend.o
 .debug_aranges
                0x0000000000000bf8       0x98 ./core/k_queue.o
 .debug_aranges
                0x0000000000000c90       0x58 ./core/k_ringbuf.o
 .debug_aranges
                0x0000000000000ce8       0xc0 ./core/k_sched.o
 .debug_aranges
                0x0000000000000da8       0x88 ./core/k_sem.o
 .debug_aranges
                0x0000000000000e30       0x38 ./core/k_stats.o
 .debug_aranges
                0x0000000000000e68       0x58 ./core/k_sys.o
 .debug_aranges
                0x0000000000000ec0       0xb0 ./core/k_task.o
 .debug_aranges
                0x0000000000000f70       0x18 ./core/k_task_sem.o
 .debug_aranges
                0x0000000000000f88       0x58 ./core/k_tick.o
 .debug_aranges
                0x0000000000000fe0       0x40 ./core/k_time.o
 .debug_aranges
                0x0000000000001020       0x18 ./core/k_timer.o
 .debug_aranges
                0x0000000000001038       0x18 ./core/k_workqueue.o
 .debug_aranges
                0x0000000000001050       0x20 ./m4/port_c.o
 .debug_aranges
                0x0000000000001070       0x20 ./m4/port_s.o
 .debug_aranges
                0x0000000000001090       0x20 /Users/snowyang/workspace/MSP432_DriverLib_3_10_00_09/driverlib/MSP432P4xx/ccs/msp432p4xx_driverlib.lib(gpio.o)
 .debug_aranges
                0x00000000000010b0       0x20 /Users/snowyang/workspace/MSP432_DriverLib_3_10_00_09/driverlib/MSP432P4xx/ccs/msp432p4xx_driverlib.lib(gpio.o)
 .debug_aranges
                0x00000000000010d0       0x20 /Users/snowyang/workspace/MSP432_DriverLib_3_10_00_09/driverlib/MSP432P4xx/ccs/msp432p4xx_driverlib.lib(gpio.o)
 .debug_aranges
                0x00000000000010f0       0x20 /Users/snowyang/workspace/MSP432_DriverLib_3_10_00_09/driverlib/MSP432P4xx/ccs/msp432p4xx_driverlib.lib(gpio.o)
 .debug_aranges
                0x0000000000001110       0x20 /Users/snowyang/workspace/MSP432_DriverLib_3_10_00_09/driverlib/MSP432P4xx/ccs/msp432p4xx_driverlib.lib(gpio.o)
 .debug_aranges
                0x0000000000001130       0x20 /Users/snowyang/workspace/MSP432_DriverLib_3_10_00_09/driverlib/MSP432P4xx/ccs/msp432p4xx_driverlib.lib(gpio.o)
 .debug_aranges
                0x0000000000001150       0x20 /Users/snowyang/workspace/MSP432_DriverLib_3_10_00_09/driverlib/MSP432P4xx/ccs/msp432p4xx_driverlib.lib(gpio.o)
 .debug_aranges
                0x0000000000001170       0x20 /Users/snowyang/workspace/MSP432_DriverLib_3_10_00_09/driverlib/MSP432P4xx/ccs/msp432p4xx_driverlib.lib(gpio.o)
 .debug_aranges
                0x0000000000001190       0x20 /Users/snowyang/workspace/MSP432_DriverLib_3_10_00_09/driverlib/MSP432P4xx/ccs/msp432p4xx_driverlib.lib(gpio.o)
 .debug_aranges
                0x00000000000011b0       0x20 /Users/snowyang/workspace/MSP432_DriverLib_3_10_00_09/driverlib/MSP432P4xx/ccs/msp432p4xx_driverlib.lib(gpio.o)
 .debug_aranges
                0x00000000000011d0       0x20 /Users/snowyang/workspace/MSP432_DriverLib_3_10_00_09/driverlib/MSP432P4xx/ccs/msp432p4xx_driverlib.lib(gpio.o)
 .debug_aranges
                0x00000000000011f0       0x20 /Users/snowyang/workspace/MSP432_DriverLib_3_10_00_09/driverlib/MSP432P4xx/ccs/msp432p4xx_driverlib.lib(gpio.o)
 .debug_aranges
                0x0000000000001210       0x20 /Users/snowyang/workspace/MSP432_DriverLib_3_10_00_09/driverlib/MSP432P4xx/ccs/msp432p4xx_driverlib.lib(gpio.o)
 .debug_aranges
                0x0000000000001230       0x20 /Users/snowyang/workspace/MSP432_DriverLib_3_10_00_09/driverlib/MSP432P4xx/ccs/msp432p4xx_driverlib.lib(gpio.o)
 .debug_aranges
                0x0000000000001250       0x20 /Users/snowyang/workspace/MSP432_DriverLib_3_10_00_09/driverlib/MSP432P4xx/ccs/msp432p4xx_driverlib.lib(gpio.o)
 .debug_aranges
                0x0000000000001270       0x20 /Users/snowyang/workspace/MSP432_DriverLib_3_10_00_09/driverlib/MSP432P4xx/ccs/msp432p4xx_driverlib.lib(gpio.o)
 .debug_aranges
                0x0000000000001290       0x20 /Users/snowyang/workspace/MSP432_DriverLib_3_10_00_09/driverlib/MSP432P4xx/ccs/msp432p4xx_driverlib.lib(gpio.o)
 .debug_aranges
                0x00000000000012b0       0x20 /Users/snowyang/workspace/MSP432_DriverLib_3_10_00_09/driverlib/MSP432P4xx/ccs/msp432p4xx_driverlib.lib(gpio.o)
 .debug_aranges
                0x00000000000012d0       0x20 /Users/snowyang/workspace/MSP432_DriverLib_3_10_00_09/driverlib/MSP432P4xx/ccs/msp432p4xx_driverlib.lib(gpio.o)
 .debug_aranges
                0x00000000000012f0       0x20 /Users/snowyang/workspace/MSP432_DriverLib_3_10_00_09/driverlib/MSP432P4xx/ccs/msp432p4xx_driverlib.lib(gpio.o)
 .debug_aranges
                0x0000000000001310       0x20 /Users/snowyang/workspace/MSP432_DriverLib_3_10_00_09/driverlib/MSP432P4xx/ccs/msp432p4xx_driverlib.lib(i2c.o)
 .debug_aranges
                0x0000000000001330       0x20 /Users/snowyang/workspace/MSP432_DriverLib_3_10_00_09/driverlib/MSP432P4xx/ccs/msp432p4xx_driverlib.lib(i2c.o)
 .debug_aranges
                0x0000000000001350       0x20 /Users/snowyang/workspace/MSP432_DriverLib_3_10_00_09/driverlib/MSP432P4xx/ccs/msp432p4xx_driverlib.lib(i2c.o)
 .debug_aranges
                0x0000000000001370       0x20 /Users/snowyang/workspace/MSP432_DriverLib_3_10_00_09/driverlib/MSP432P4xx/ccs/msp432p4xx_driverlib.lib(i2c.o)
 .debug_aranges
                0x0000000000001390       0x20 /Users/snowyang/workspace/MSP432_DriverLib_3_10_00_09/driverlib/MSP432P4xx/ccs/msp432p4xx_driverlib.lib(i2c.o)
 .debug_aranges
                0x00000000000013b0       0x20 /Users/snowyang/workspace/MSP432_DriverLib_3_10_00_09/driverlib/MSP432P4xx/ccs/msp432p4xx_driverlib.lib(i2c.o)
 .debug_aranges
                0x00000000000013d0       0x20 /Users/snowyang/workspace/MSP432_DriverLib_3_10_00_09/driverlib/MSP432P4xx/ccs/msp432p4xx_driverlib.lib(i2c.o)
 .debug_aranges
                0x00000000000013f0       0x20 /Users/snowyang/workspace/MSP432_DriverLib_3_10_00_09/driverlib/MSP432P4xx/ccs/msp432p4xx_driverlib.lib(i2c.o)
 .debug_aranges
                0x0000000000001410       0x20 /Users/snowyang/workspace/MSP432_DriverLib_3_10_00_09/driverlib/MSP432P4xx/ccs/msp432p4xx_driverlib.lib(i2c.o)
 .debug_aranges
                0x0000000000001430       0x20 /Users/snowyang/workspace/MSP432_DriverLib_3_10_00_09/driverlib/MSP432P4xx/ccs/msp432p4xx_driverlib.lib(i2c.o)
 .debug_aranges
                0x0000000000001450       0x20 /Users/snowyang/workspace/MSP432_DriverLib_3_10_00_09/driverlib/MSP432P4xx/ccs/msp432p4xx_driverlib.lib(i2c.o)
 .debug_aranges
                0x0000000000001470       0x20 /Users/snowyang/workspace/MSP432_DriverLib_3_10_00_09/driverlib/MSP432P4xx/ccs/msp432p4xx_driverlib.lib(i2c.o)
 .debug_aranges
                0x0000000000001490       0x20 /Users/snowyang/workspace/MSP432_DriverLib_3_10_00_09/driverlib/MSP432P4xx/ccs/msp432p4xx_driverlib.lib(i2c.o)
 .debug_aranges
                0x00000000000014b0       0x20 /Users/snowyang/workspace/MSP432_DriverLib_3_10_00_09/driverlib/MSP432P4xx/ccs/msp432p4xx_driverlib.lib(i2c.o)
 .debug_aranges
                0x00000000000014d0       0x20 /Users/snowyang/workspace/MSP432_DriverLib_3_10_00_09/driverlib/MSP432P4xx/ccs/msp432p4xx_driverlib.lib(i2c.o)
 .debug_aranges
                0x00000000000014f0       0x20 /Users/snowyang/workspace/MSP432_DriverLib_3_10_00_09/driverlib/MSP432P4xx/ccs/msp432p4xx_driverlib.lib(i2c.o)
 .debug_aranges
                0x0000000000001510       0x20 /Users/snowyang/workspace/MSP432_DriverLib_3_10_00_09/driverlib/MSP432P4xx/ccs/msp432p4xx_driverlib.lib(i2c.o)
 .debug_aranges
                0x0000000000001530       0x20 /Users/snowyang/workspace/MSP432_DriverLib_3_10_00_09/driverlib/MSP432P4xx/ccs/msp432p4xx_driverlib.lib(i2c.o)
 .debug_aranges
                0x0000000000001550       0x20 /Users/snowyang/workspace/MSP432_DriverLib_3_10_00_09/driverlib/MSP432P4xx/ccs/msp432p4xx_driverlib.lib(i2c.o)
 .debug_aranges
                0x0000000000001570       0x20 /Users/snowyang/workspace/MSP432_DriverLib_3_10_00_09/driverlib/MSP432P4xx/ccs/msp432p4xx_driverlib.lib(i2c.o)
 .debug_aranges
                0x0000000000001590       0x20 /Users/snowyang/workspace/MSP432_DriverLib_3_10_00_09/driverlib/MSP432P4xx/ccs/msp432p4xx_driverlib.lib(i2c.o)
 .debug_aranges
                0x00000000000015b0       0x20 /Users/snowyang/workspace/MSP432_DriverLib_3_10_00_09/driverlib/MSP432P4xx/ccs/msp432p4xx_driverlib.lib(i2c.o)
 .debug_aranges
                0x00000000000015d0       0x20 /Users/snowyang/workspace/MSP432_DriverLib_3_10_00_09/driverlib/MSP432P4xx/ccs/msp432p4xx_driverlib.lib(i2c.o)
 .debug_aranges
                0x00000000000015f0       0x20 /Users/snowyang/workspace/MSP432_DriverLib_3_10_00_09/driverlib/MSP432P4xx/ccs/msp432p4xx_driverlib.lib(i2c.o)
 .debug_aranges
                0x0000000000001610       0x20 /Users/snowyang/workspace/MSP432_DriverLib_3_10_00_09/driverlib/MSP432P4xx/ccs/msp432p4xx_driverlib.lib(i2c.o)
 .debug_aranges
                0x0000000000001630       0x20 /Users/snowyang/workspace/MSP432_DriverLib_3_10_00_09/driverlib/MSP432P4xx/ccs/msp432p4xx_driverlib.lib(i2c.o)
 .debug_aranges
                0x0000000000001650       0x20 /Users/snowyang/workspace/MSP432_DriverLib_3_10_00_09/driverlib/MSP432P4xx/ccs/msp432p4xx_driverlib.lib(i2c.o)
 .debug_aranges
                0x0000000000001670       0x20 /Users/snowyang/workspace/MSP432_DriverLib_3_10_00_09/driverlib/MSP432P4xx/ccs/msp432p4xx_driverlib.lib(i2c.o)
 .debug_aranges
                0x0000000000001690       0x20 /Users/snowyang/workspace/MSP432_DriverLib_3_10_00_09/driverlib/MSP432P4xx/ccs/msp432p4xx_driverlib.lib(i2c.o)
 .debug_aranges
                0x00000000000016b0       0x20 /Users/snowyang/workspace/MSP432_DriverLib_3_10_00_09/driverlib/MSP432P4xx/ccs/msp432p4xx_driverlib.lib(i2c.o)
 .debug_aranges
                0x00000000000016d0       0x20 /Users/snowyang/workspace/MSP432_DriverLib_3_10_00_09/driverlib/MSP432P4xx/ccs/msp432p4xx_driverlib.lib(i2c.o)
 .debug_aranges
                0x00000000000016f0       0x20 /Users/snowyang/workspace/MSP432_DriverLib_3_10_00_09/driverlib/MSP432P4xx/ccs/msp432p4xx_driverlib.lib(i2c.o)
 .debug_aranges
                0x0000000000001710       0x20 /Users/snowyang/workspace/MSP432_DriverLib_3_10_00_09/driverlib/MSP432P4xx/ccs/msp432p4xx_driverlib.lib(i2c.o)
 .debug_aranges
                0x0000000000001730       0x20 /Users/snowyang/workspace/MSP432_DriverLib_3_10_00_09/driverlib/MSP432P4xx/ccs/msp432p4xx_driverlib.lib(i2c.o)
 .debug_aranges
                0x0000000000001750       0x20 /Users/snowyang/workspace/MSP432_DriverLib_3_10_00_09/driverlib/MSP432P4xx/ccs/msp432p4xx_driverlib.lib(i2c.o)
 .debug_aranges
                0x0000000000001770       0x20 /Users/snowyang/workspace/MSP432_DriverLib_3_10_00_09/driverlib/MSP432P4xx/ccs/msp432p4xx_driverlib.lib(i2c.o)
 .debug_aranges
                0x0000000000001790       0x20 /Users/snowyang/workspace/MSP432_DriverLib_3_10_00_09/driverlib/MSP432P4xx/ccs/msp432p4xx_driverlib.lib(i2c.o)
 .debug_aranges
                0x00000000000017b0       0x20 /Users/snowyang/workspace/MSP432_DriverLib_3_10_00_09/driverlib/MSP432P4xx/ccs/msp432p4xx_driverlib.lib(i2c.o)
 .debug_aranges
                0x00000000000017d0       0x20 /Users/snowyang/workspace/MSP432_DriverLib_3_10_00_09/driverlib/MSP432P4xx/ccs/msp432p4xx_driverlib.lib(i2c.o)
 .debug_aranges
                0x00000000000017f0       0x20 /Users/snowyang/workspace/MSP432_DriverLib_3_10_00_09/driverlib/MSP432P4xx/ccs/msp432p4xx_driverlib.lib(i2c.o)
 .debug_aranges
                0x0000000000001810       0x20 /Users/snowyang/workspace/MSP432_DriverLib_3_10_00_09/driverlib/MSP432P4xx/ccs/msp432p4xx_driverlib.lib(i2c.o)
 .debug_aranges
                0x0000000000001830       0x20 /Users/snowyang/workspace/MSP432_DriverLib_3_10_00_09/driverlib/MSP432P4xx/ccs/msp432p4xx_driverlib.lib(i2c.o)
 .debug_aranges
                0x0000000000001850       0x20 /Users/snowyang/workspace/MSP432_DriverLib_3_10_00_09/driverlib/MSP432P4xx/ccs/msp432p4xx_driverlib.lib(interrupt.o)
 .debug_aranges
                0x0000000000001870       0x20 /Users/snowyang/workspace/MSP432_DriverLib_3_10_00_09/driverlib/MSP432P4xx/ccs/msp432p4xx_driverlib.lib(interrupt.o)
 .debug_aranges
                0x0000000000001890       0x20 /Users/snowyang/workspace/MSP432_DriverLib_3_10_00_09/driverlib/MSP432P4xx/ccs/msp432p4xx_driverlib.lib(interrupt.o)
 .debug_aranges
                0x00000000000018b0       0x20 /Users/snowyang/workspace/MSP432_DriverLib_3_10_00_09/driverlib/MSP432P4xx/ccs/msp432p4xx_driverlib.lib(interrupt.o)
 .debug_aranges
                0x00000000000018d0       0x20 /Users/snowyang/workspace/MSP432_DriverLib_3_10_00_09/driverlib/MSP432P4xx/ccs/msp432p4xx_driverlib.lib(interrupt.o)
 .debug_aranges
                0x00000000000018f0       0x20 /Users/snowyang/workspace/MSP432_DriverLib_3_10_00_09/driverlib/MSP432P4xx/ccs/msp432p4xx_driverlib.lib(interrupt.o)
 .debug_aranges
                0x0000000000001910       0x20 /Users/snowyang/workspace/MSP432_DriverLib_3_10_00_09/driverlib/MSP432P4xx/ccs/msp432p4xx_driverlib.lib(interrupt.o)
 .debug_aranges
                0x0000000000001930       0x20 /Users/snowyang/workspace/MSP432_DriverLib_3_10_00_09/driverlib/MSP432P4xx/ccs/msp432p4xx_driverlib.lib(interrupt.o)
 .debug_aranges
                0x0000000000001950       0x20 /Users/snowyang/workspace/MSP432_DriverLib_3_10_00_09/driverlib/MSP432P4xx/ccs/msp432p4xx_driverlib.lib(interrupt.o)
 .debug_aranges
                0x0000000000001970       0x20 /Users/snowyang/workspace/MSP432_DriverLib_3_10_00_09/driverlib/MSP432P4xx/ccs/msp432p4xx_driverlib.lib(interrupt.o)
 .debug_aranges
                0x0000000000001990       0x20 /Users/snowyang/workspace/MSP432_DriverLib_3_10_00_09/driverlib/MSP432P4xx/ccs/msp432p4xx_driverlib.lib(interrupt.o)
 .debug_aranges
                0x00000000000019b0       0x20 /Users/snowyang/workspace/MSP432_DriverLib_3_10_00_09/driverlib/MSP432P4xx/ccs/msp432p4xx_driverlib.lib(interrupt.o)
 .debug_aranges
                0x00000000000019d0       0x20 /Users/snowyang/workspace/MSP432_DriverLib_3_10_00_09/driverlib/MSP432P4xx/ccs/msp432p4xx_driverlib.lib(interrupt.o)
 .debug_aranges
                0x00000000000019f0       0x20 /Users/snowyang/workspace/MSP432_DriverLib_3_10_00_09/driverlib/MSP432P4xx/ccs/msp432p4xx_driverlib.lib(interrupt.o)
 .debug_aranges
                0x0000000000001a10       0x20 /Users/snowyang/workspace/MSP432_DriverLib_3_10_00_09/driverlib/MSP432P4xx/ccs/msp432p4xx_driverlib.lib(interrupt.o)
 .debug_aranges
                0x0000000000001a30       0x20 /Users/snowyang/workspace/MSP432_DriverLib_3_10_00_09/driverlib/MSP432P4xx/ccs/msp432p4xx_driverlib.lib(interrupt.o)
 .debug_aranges
                0x0000000000001a50       0x20 /Users/snowyang/workspace/MSP432_DriverLib_3_10_00_09/driverlib/MSP432P4xx/ccs/msp432p4xx_driverlib.lib(interrupt.o)
 .debug_aranges
                0x0000000000001a70       0x20 /Users/snowyang/workspace/MSP432_DriverLib_3_10_00_09/driverlib/MSP432P4xx/ccs/msp432p4xx_driverlib.lib(interrupt.o)
 .debug_aranges
                0x0000000000001a90       0x20 /Users/snowyang/workspace/MSP432_DriverLib_3_10_00_09/driverlib/MSP432P4xx/ccs/msp432p4xx_driverlib.lib(interrupt.o)
 .debug_aranges
                0x0000000000001ab0       0x20 /Users/snowyang/workspace/MSP432_DriverLib_3_10_00_09/driverlib/MSP432P4xx/ccs/msp432p4xx_driverlib.lib(interrupt.o)
 .debug_aranges
                0x0000000000001ad0       0x20 /Users/snowyang/workspace/MSP432_DriverLib_3_10_00_09/driverlib/MSP432P4xx/ccs/msp432p4xx_driverlib.lib(uart.o)
 .debug_aranges
                0x0000000000001af0       0x20 /Users/snowyang/workspace/MSP432_DriverLib_3_10_00_09/driverlib/MSP432P4xx/ccs/msp432p4xx_driverlib.lib(uart.o)
 .debug_aranges
                0x0000000000001b10       0x20 /Users/snowyang/workspace/MSP432_DriverLib_3_10_00_09/driverlib/MSP432P4xx/ccs/msp432p4xx_driverlib.lib(uart.o)
 .debug_aranges
                0x0000000000001b30       0x20 /Users/snowyang/workspace/MSP432_DriverLib_3_10_00_09/driverlib/MSP432P4xx/ccs/msp432p4xx_driverlib.lib(uart.o)
 .debug_aranges
                0x0000000000001b50       0x20 /Users/snowyang/workspace/MSP432_DriverLib_3_10_00_09/driverlib/MSP432P4xx/ccs/msp432p4xx_driverlib.lib(uart.o)
 .debug_aranges
                0x0000000000001b70       0x20 /Users/snowyang/workspace/MSP432_DriverLib_3_10_00_09/driverlib/MSP432P4xx/ccs/msp432p4xx_driverlib.lib(uart.o)
 .debug_aranges
                0x0000000000001b90       0x20 /Users/snowyang/workspace/MSP432_DriverLib_3_10_00_09/driverlib/MSP432P4xx/ccs/msp432p4xx_driverlib.lib(uart.o)
 .debug_aranges
                0x0000000000001bb0       0x20 /Users/snowyang/workspace/MSP432_DriverLib_3_10_00_09/driverlib/MSP432P4xx/ccs/msp432p4xx_driverlib.lib(uart.o)
 .debug_aranges
                0x0000000000001bd0       0x20 /Users/snowyang/workspace/MSP432_DriverLib_3_10_00_09/driverlib/MSP432P4xx/ccs/msp432p4xx_driverlib.lib(uart.o)
 .debug_aranges
                0x0000000000001bf0       0x20 /Users/snowyang/workspace/MSP432_DriverLib_3_10_00_09/driverlib/MSP432P4xx/ccs/msp432p4xx_driverlib.lib(uart.o)
 .debug_aranges
                0x0000000000001c10       0x20 /Users/snowyang/workspace/MSP432_DriverLib_3_10_00_09/driverlib/MSP432P4xx/ccs/msp432p4xx_driverlib.lib(uart.o)
 .debug_aranges
                0x0000000000001c30       0x20 /Users/snowyang/workspace/MSP432_DriverLib_3_10_00_09/driverlib/MSP432P4xx/ccs/msp432p4xx_driverlib.lib(uart.o)
 .debug_aranges
                0x0000000000001c50       0x20 /Users/snowyang/workspace/MSP432_DriverLib_3_10_00_09/driverlib/MSP432P4xx/ccs/msp432p4xx_driverlib.lib(uart.o)
 .debug_aranges
                0x0000000000001c70       0x20 /Users/snowyang/workspace/MSP432_DriverLib_3_10_00_09/driverlib/MSP432P4xx/ccs/msp432p4xx_driverlib.lib(uart.o)
 .debug_aranges
                0x0000000000001c90       0x20 /Users/snowyang/workspace/MSP432_DriverLib_3_10_00_09/driverlib/MSP432P4xx/ccs/msp432p4xx_driverlib.lib(uart.o)
 .debug_aranges
                0x0000000000001cb0       0x20 /Users/snowyang/workspace/MSP432_DriverLib_3_10_00_09/driverlib/MSP432P4xx/ccs/msp432p4xx_driverlib.lib(uart.o)
 .debug_aranges
                0x0000000000001cd0       0x20 /Users/snowyang/workspace/MSP432_DriverLib_3_10_00_09/driverlib/MSP432P4xx/ccs/msp432p4xx_driverlib.lib(uart.o)
 .debug_aranges
                0x0000000000001cf0       0x20 /Users/snowyang/workspace/MSP432_DriverLib_3_10_00_09/driverlib/MSP432P4xx/ccs/msp432p4xx_driverlib.lib(uart.o)
 .debug_aranges
                0x0000000000001d10       0x20 /Users/snowyang/workspace/MSP432_DriverLib_3_10_00_09/driverlib/MSP432P4xx/ccs/msp432p4xx_driverlib.lib(uart.o)
 .debug_aranges
                0x0000000000001d30       0x20 /Users/snowyang/workspace/MSP432_DriverLib_3_10_00_09/driverlib/MSP432P4xx/ccs/msp432p4xx_driverlib.lib(uart.o)
 .debug_aranges
                0x0000000000001d50       0x20 /Users/snowyang/workspace/MSP432_DriverLib_3_10_00_09/driverlib/MSP432P4xx/ccs/msp432p4xx_driverlib.lib(cpu.o)
 .debug_aranges
                0x0000000000001d70       0x20 /Users/snowyang/workspace/MSP432_DriverLib_3_10_00_09/driverlib/MSP432P4xx/ccs/msp432p4xx_driverlib.lib(cpu.o)
 .debug_aranges
                0x0000000000001d90       0x20 /Users/snowyang/workspace/MSP432_DriverLib_3_10_00_09/driverlib/MSP432P4xx/ccs/msp432p4xx_driverlib.lib(cpu.o)
 .debug_aranges
                0x0000000000001db0       0x20 /Users/snowyang/workspace/MSP432_DriverLib_3_10_00_09/driverlib/MSP432P4xx/ccs/msp432p4xx_driverlib.lib(cpu.o)
 .debug_aranges
                0x0000000000001dd0       0x20 /Users/snowyang/workspace/MSP432_DriverLib_3_10_00_09/driverlib/MSP432P4xx/ccs/msp432p4xx_driverlib.lib(cpu.o)
 .debug_aranges
                0x0000000000001df0       0x20 /Users/snowyang/workspace/MSP432_DriverLib_3_10_00_09/driverlib/MSP432P4xx/ccs/msp432p4xx_driverlib.lib(cpu.o)

.debug_ranges   0x0000000000000000      0xca0
 .debug_ranges  0x0000000000000000       0x30 ./app_console.o
 .debug_ranges  0x0000000000000030       0x50 ./app_rgbled.o
 .debug_ranges  0x0000000000000080       0x28 ./app_sht20.o
 .debug_ranges  0x00000000000000a8       0x28 ./app_switch.o
 .debug_ranges  0x00000000000000d0       0x60 ./main.o
 .debug_ranges  0x0000000000000130       0x28 ./startup_msp432p401r_gcc.o
 .debug_ranges  0x0000000000000158       0x18 ./system_msp432p401r.o
 .debug_ranges  0x0000000000000170       0x60 ./Board/AliCloud_SDS/alicloud_sds.o
 .debug_ranges  0x00000000000001d0       0x90 ./Board/drv_VGM128064/oled.o
 .debug_ranges  0x0000000000000260       0x10 ./Board/drv_board.o
 .debug_ranges  0x0000000000000270       0x10 ./Board/drv_board_test.o
 .debug_ranges  0x0000000000000280       0x20 ./Board/drv_button/io_button.o
 .debug_ranges  0x00000000000002a0       0x20 ./Board/drv_color_led/color_led.o
 .debug_ranges  0x00000000000002c0       0x20 ./Board/drv_color_led/hsb2rgb.o
 .debug_ranges  0x00000000000002e0       0x38 ./Board/drv_sht20/sht2x.o
 .debug_ranges  0x0000000000000318       0x88 ./Board/helper/emhost/ATCmdParser/ATCmdParser.o
 .debug_ranges  0x00000000000003a0       0x10 ./Board/helper/emhost/ATCmdParser/ATCmdParserTest.o
 .debug_ranges  0x00000000000003b0       0x58 ./Board/helper/emhost/emh_alisds.o
 .debug_ranges  0x0000000000000408       0x18 ./Board/helper/emhost/emh_arg.o
 .debug_ranges  0x0000000000000420       0x38 ./Board/helper/emhost/emh_module.o
 .debug_ranges  0x0000000000000458       0x20 ./Board/helper/emhost/emh_wlan.o
 .debug_ranges  0x0000000000000478       0x18 ./Board/helper/hal/mx_hal_atomic.o
 .debug_ranges  0x0000000000000490       0x20 ./Board/helper/hal/mx_i2c.o
 .debug_ranges  0x00000000000004b0       0x48 ./Board/helper/hal/mx_serial.o
 .debug_ranges  0x00000000000004f8       0x18 ./Board/helper/hal/mx_stdio.o
 .debug_ranges  0x0000000000000510       0x38 ./Board/helper/hal/mx_tick.o
 .debug_ranges  0x0000000000000548       0x38 ./Board/helper/jsmn/jsmn.o
 .debug_ranges  0x0000000000000580       0x30 ./Board/helper/jsmn/json_escape_str.o
 .debug_ranges  0x00000000000005b0       0x80 ./Board/helper/jsmn/json_generator.o
 .debug_ranges  0x0000000000000630       0x18 ./Board/helper/jsmn/json_utils.o
 .debug_ranges  0x0000000000000648      0x118 ./Board/helper/jsmn/json_wrappers.o
 .debug_ranges  0x0000000000000760       0x30 ./Board/helper/mx_utils/mx_ringbuffer.o
 .debug_ranges  0x0000000000000790       0x10 ./aos/soc_impl.o
 .debug_ranges  0x00000000000007a0       0x10 ./aos/trace_impl.o
 .debug_ranges  0x00000000000007b0       0x78 ./core/k_buf_queue.o
 .debug_ranges  0x0000000000000828       0x10 ./core/k_err.o
 .debug_ranges  0x0000000000000838       0x18 ./core/k_idle.o
 .debug_ranges  0x0000000000000850       0x78 ./core/k_mutex.o
 .debug_ranges  0x00000000000008c8       0x48 ./core/k_pend.o
 .debug_ranges  0x0000000000000910       0x88 ./core/k_queue.o
 .debug_ranges  0x0000000000000998       0x48 ./core/k_ringbuf.o
 .debug_ranges  0x00000000000009e0       0xb0 ./core/k_sched.o
 .debug_ranges  0x0000000000000a90       0x78 ./core/k_sem.o
 .debug_ranges  0x0000000000000b08       0x28 ./core/k_stats.o
 .debug_ranges  0x0000000000000b30       0x48 ./core/k_sys.o
 .debug_ranges  0x0000000000000b78       0xa0 ./core/k_task.o
 .debug_ranges  0x0000000000000c18       0x48 ./core/k_tick.o
 .debug_ranges  0x0000000000000c60       0x30 ./core/k_time.o
 .debug_ranges  0x0000000000000c90       0x10 ./m4/port_c.o

.debug_line     0x0000000000000000     0xae76
 .debug_line    0x0000000000000000      0x29b ./app_console.o
 .debug_line    0x000000000000029b      0x2f9 ./app_rgbled.o
 .debug_line    0x0000000000000594      0x28c ./app_sht20.o
 .debug_line    0x0000000000000820      0x2e3 ./app_switch.o
 .debug_line    0x0000000000000b03      0x63f ./main.o
 .debug_line    0x0000000000001142      0x169 ./startup_msp432p401r_gcc.o
 .debug_line    0x00000000000012ab      0x258 ./system_msp432p401r.o
 .debug_line    0x0000000000001503      0x4fd ./Board/AliCloud_SDS/alicloud_sds.o
 .debug_line    0x0000000000001a00      0x367 ./Board/drv_VGM128064/oled.o
 .debug_line    0x0000000000001d67       0x48 ./Board/drv_board.o
 .debug_line    0x0000000000001daf      0x1b2 ./Board/drv_board_test.o
 .debug_line    0x0000000000001f61      0x206 ./Board/drv_button/io_button.o
 .debug_line    0x0000000000002167      0x290 ./Board/drv_color_led/color_led.o
 .debug_line    0x00000000000023f7      0x1a1 ./Board/drv_color_led/hsb2rgb.o
 .debug_line    0x0000000000002598      0x223 ./Board/drv_sht20/sht2x.o
 .debug_line    0x00000000000027bb      0x2ab ./Board/helper/emhost/ATCmdParser/ATCmdParser.o
 .debug_line    0x0000000000002a66       0xf3 ./Board/helper/emhost/ATCmdParser/ATCmdParserTest.o
 .debug_line    0x0000000000002b59      0x2f8 ./Board/helper/emhost/emh_alisds.o
 .debug_line    0x0000000000002e51      0x15a ./Board/helper/emhost/emh_arg.o
 .debug_line    0x0000000000002fab      0x246 ./Board/helper/emhost/emh_module.o
 .debug_line    0x00000000000031f1      0x209 ./Board/helper/emhost/emh_wlan.o
 .debug_line    0x00000000000033fa      0x1ee ./Board/helper/hal/mx_hal_atomic.o
 .debug_line    0x00000000000035e8      0x344 ./Board/helper/hal/mx_i2c.o
 .debug_line    0x000000000000392c      0x3a3 ./Board/helper/hal/mx_serial.o
 .debug_line    0x0000000000003ccf      0x2ea ./Board/helper/hal/mx_stdio.o
 .debug_line    0x0000000000003fb9      0x26b ./Board/helper/hal/mx_tick.o
 .debug_line    0x0000000000004224      0x361 ./Board/helper/jsmn/jsmn.o
 .debug_line    0x0000000000004585      0x101 ./Board/helper/jsmn/json_escape_str.o
 .debug_line    0x0000000000004686      0x2fa ./Board/helper/jsmn/json_generator.o
 .debug_line    0x0000000000004980       0x8e ./Board/helper/jsmn/json_utils.o
 .debug_line    0x0000000000004a0e      0x50c ./Board/helper/jsmn/json_wrappers.o
 .debug_line    0x0000000000004f1a      0x237 ./Board/helper/mx_utils/mx_ringbuffer.o
 .debug_line    0x0000000000005151       0xc7 ./aos/soc_impl.o
 .debug_line    0x0000000000005218       0xba ./aos/trace_impl.o
 .debug_line    0x00000000000052d2      0x48e ./core/k_buf_queue.o
 .debug_line    0x0000000000005760       0x1d ./core/k_dyn_mem_proc.o
 .debug_line    0x000000000000577d       0xbd ./core/k_err.o
 .debug_line    0x000000000000583a       0x1d ./core/k_event.o
 .debug_line    0x0000000000005857      0x28c ./core/k_idle.o
 .debug_line    0x0000000000005ae3       0x1d ./core/k_mm.o
 .debug_line    0x0000000000005b00       0x1d ./core/k_mm_blk.o
 .debug_line    0x0000000000005b1d       0x1d ./core/k_mm_debug.o
 .debug_line    0x0000000000005b3a      0x458 ./core/k_mutex.o
 .debug_line    0x0000000000005f92      0x29b ./core/k_obj.o
 .debug_line    0x000000000000622d      0x37b ./core/k_pend.o
 .debug_line    0x00000000000065a8      0x4a1 ./core/k_queue.o
 .debug_line    0x0000000000006a49      0x332 ./core/k_ringbuf.o
 .debug_line    0x0000000000006d7b      0x4be ./core/k_sched.o
 .debug_line    0x0000000000007239      0x446 ./core/k_sem.o
 .debug_line    0x000000000000767f      0x2fb ./core/k_stats.o
 .debug_line    0x000000000000797a      0x377 ./core/k_sys.o
 .debug_line    0x0000000000007cf1      0x547 ./core/k_task.o
 .debug_line    0x0000000000008238       0x1d ./core/k_task_sem.o
 .debug_line    0x0000000000008255      0x37e ./core/k_tick.o
 .debug_line    0x00000000000085d3      0x284 ./core/k_time.o
 .debug_line    0x0000000000008857       0x1d ./core/k_timer.o
 .debug_line    0x0000000000008874       0x1d ./core/k_workqueue.o
 .debug_line    0x0000000000008891      0x251 ./m4/port_c.o
 .debug_line    0x0000000000008ae2       0xc4 ./m4/port_s.o
 .debug_line    0x0000000000008ba6       0x31 /Users/snowyang/workspace/MSP432_DriverLib_3_10_00_09/driverlib/MSP432P4xx/ccs/msp432p4xx_driverlib.lib(gpio.o)
 .debug_line    0x0000000000008bd7       0x2a /Users/snowyang/workspace/MSP432_DriverLib_3_10_00_09/driverlib/MSP432P4xx/ccs/msp432p4xx_driverlib.lib(gpio.o)
 .debug_line    0x0000000000008c01       0x2a /Users/snowyang/workspace/MSP432_DriverLib_3_10_00_09/driverlib/MSP432P4xx/ccs/msp432p4xx_driverlib.lib(gpio.o)
 .debug_line    0x0000000000008c2b       0x40 /Users/snowyang/workspace/MSP432_DriverLib_3_10_00_09/driverlib/MSP432P4xx/ccs/msp432p4xx_driverlib.lib(gpio.o)
 .debug_line    0x0000000000008c6b       0x3f /Users/snowyang/workspace/MSP432_DriverLib_3_10_00_09/driverlib/MSP432P4xx/ccs/msp432p4xx_driverlib.lib(gpio.o)
 .debug_line    0x0000000000008caa       0x3f /Users/snowyang/workspace/MSP432_DriverLib_3_10_00_09/driverlib/MSP432P4xx/ccs/msp432p4xx_driverlib.lib(gpio.o)
 .debug_line    0x0000000000008ce9       0x3f /Users/snowyang/workspace/MSP432_DriverLib_3_10_00_09/driverlib/MSP432P4xx/ccs/msp432p4xx_driverlib.lib(gpio.o)
 .debug_line    0x0000000000008d28       0x3f /Users/snowyang/workspace/MSP432_DriverLib_3_10_00_09/driverlib/MSP432P4xx/ccs/msp432p4xx_driverlib.lib(gpio.o)
 .debug_line    0x0000000000008d67       0x3f /Users/snowyang/workspace/MSP432_DriverLib_3_10_00_09/driverlib/MSP432P4xx/ccs/msp432p4xx_driverlib.lib(gpio.o)
 .debug_line    0x0000000000008da6       0x50 /Users/snowyang/workspace/MSP432_DriverLib_3_10_00_09/driverlib/MSP432P4xx/ccs/msp432p4xx_driverlib.lib(gpio.o)
 .debug_line    0x0000000000008df6       0x4e /Users/snowyang/workspace/MSP432_DriverLib_3_10_00_09/driverlib/MSP432P4xx/ccs/msp432p4xx_driverlib.lib(gpio.o)
 .debug_line    0x0000000000008e44       0x44 /Users/snowyang/workspace/MSP432_DriverLib_3_10_00_09/driverlib/MSP432P4xx/ccs/msp432p4xx_driverlib.lib(gpio.o)
 .debug_line    0x0000000000008e88       0x46 /Users/snowyang/workspace/MSP432_DriverLib_3_10_00_09/driverlib/MSP432P4xx/ccs/msp432p4xx_driverlib.lib(gpio.o)
 .debug_line    0x0000000000008ece       0x46 /Users/snowyang/workspace/MSP432_DriverLib_3_10_00_09/driverlib/MSP432P4xx/ccs/msp432p4xx_driverlib.lib(gpio.o)
 .debug_line    0x0000000000008f14       0x45 /Users/snowyang/workspace/MSP432_DriverLib_3_10_00_09/driverlib/MSP432P4xx/ccs/msp432p4xx_driverlib.lib(gpio.o)
 .debug_line    0x0000000000008f59       0x40 /Users/snowyang/workspace/MSP432_DriverLib_3_10_00_09/driverlib/MSP432P4xx/ccs/msp432p4xx_driverlib.lib(gpio.o)
 .debug_line    0x0000000000008f99       0x46 /Users/snowyang/workspace/MSP432_DriverLib_3_10_00_09/driverlib/MSP432P4xx/ccs/msp432p4xx_driverlib.lib(gpio.o)
 .debug_line    0x0000000000008fdf       0x3f /Users/snowyang/workspace/MSP432_DriverLib_3_10_00_09/driverlib/MSP432P4xx/ccs/msp432p4xx_driverlib.lib(gpio.o)
 .debug_line    0x000000000000901e       0x3f /Users/snowyang/workspace/MSP432_DriverLib_3_10_00_09/driverlib/MSP432P4xx/ccs/msp432p4xx_driverlib.lib(gpio.o)
 .debug_line    0x000000000000905d       0x4d /Users/snowyang/workspace/MSP432_DriverLib_3_10_00_09/driverlib/MSP432P4xx/ccs/msp432p4xx_driverlib.lib(gpio.o)
 .debug_line    0x00000000000090aa       0x3f /Users/snowyang/workspace/MSP432_DriverLib_3_10_00_09/driverlib/MSP432P4xx/ccs/msp432p4xx_driverlib.lib(gpio.o)
 .debug_line    0x00000000000090e9       0x3f /Users/snowyang/workspace/MSP432_DriverLib_3_10_00_09/driverlib/MSP432P4xx/ccs/msp432p4xx_driverlib.lib(gpio.o)
 .debug_line    0x0000000000009128       0x3f /Users/snowyang/workspace/MSP432_DriverLib_3_10_00_09/driverlib/MSP432P4xx/ccs/msp432p4xx_driverlib.lib(gpio.o)
 .debug_line    0x0000000000009167       0x5e /Users/snowyang/workspace/MSP432_DriverLib_3_10_00_09/driverlib/MSP432P4xx/ccs/msp432p4xx_driverlib.lib(gpio.o)
 .debug_line    0x00000000000091c5       0x5b /Users/snowyang/workspace/MSP432_DriverLib_3_10_00_09/driverlib/MSP432P4xx/ccs/msp432p4xx_driverlib.lib(gpio.o)
 .debug_line    0x0000000000009220       0x20 /Users/snowyang/workspace/MSP432_DriverLib_3_10_00_09/driverlib/MSP432P4xx/ccs/msp432p4xx_driverlib.lib(gpio.o)
 .debug_line    0x0000000000009240       0x69 /Users/snowyang/workspace/MSP432_DriverLib_3_10_00_09/driverlib/MSP432P4xx/ccs/msp432p4xx_driverlib.lib(gpio.o)
 .debug_line    0x00000000000092a9       0x68 /Users/snowyang/workspace/MSP432_DriverLib_3_10_00_09/driverlib/MSP432P4xx/ccs/msp432p4xx_driverlib.lib(gpio.o)
 .debug_line    0x0000000000009311       0x2a /Users/snowyang/workspace/MSP432_DriverLib_3_10_00_09/driverlib/MSP432P4xx/ccs/msp432p4xx_driverlib.lib(gpio.o)
 .debug_line    0x000000000000933b       0x69 /Users/snowyang/workspace/MSP432_DriverLib_3_10_00_09/driverlib/MSP432P4xx/ccs/msp432p4xx_driverlib.lib(gpio.o)
 .debug_line    0x00000000000093a4       0x31 /Users/snowyang/workspace/MSP432_DriverLib_3_10_00_09/driverlib/MSP432P4xx/ccs/msp432p4xx_driverlib.lib(i2c.o)
 .debug_line    0x00000000000093d5       0x53 /Users/snowyang/workspace/MSP432_DriverLib_3_10_00_09/driverlib/MSP432P4xx/ccs/msp432p4xx_driverlib.lib(i2c.o)
 .debug_line    0x0000000000009428       0x3e /Users/snowyang/workspace/MSP432_DriverLib_3_10_00_09/driverlib/MSP432P4xx/ccs/msp432p4xx_driverlib.lib(i2c.o)
 .debug_line    0x0000000000009466       0x3e /Users/snowyang/workspace/MSP432_DriverLib_3_10_00_09/driverlib/MSP432P4xx/ccs/msp432p4xx_driverlib.lib(i2c.o)
 .debug_line    0x00000000000094a4       0x3e /Users/snowyang/workspace/MSP432_DriverLib_3_10_00_09/driverlib/MSP432P4xx/ccs/msp432p4xx_driverlib.lib(i2c.o)
 .debug_line    0x00000000000094e2       0x3e /Users/snowyang/workspace/MSP432_DriverLib_3_10_00_09/driverlib/MSP432P4xx/ccs/msp432p4xx_driverlib.lib(i2c.o)
 .debug_line    0x0000000000009520       0x3e /Users/snowyang/workspace/MSP432_DriverLib_3_10_00_09/driverlib/MSP432P4xx/ccs/msp432p4xx_driverlib.lib(i2c.o)
 .debug_line    0x000000000000955e       0x53 /Users/snowyang/workspace/MSP432_DriverLib_3_10_00_09/driverlib/MSP432P4xx/ccs/msp432p4xx_driverlib.lib(i2c.o)
 .debug_line    0x00000000000095b1       0x3e /Users/snowyang/workspace/MSP432_DriverLib_3_10_00_09/driverlib/MSP432P4xx/ccs/msp432p4xx_driverlib.lib(i2c.o)
 .debug_line    0x00000000000095ef       0x5d /Users/snowyang/workspace/MSP432_DriverLib_3_10_00_09/driverlib/MSP432P4xx/ccs/msp432p4xx_driverlib.lib(i2c.o)
 .debug_line    0x000000000000964c       0x59 /Users/snowyang/workspace/MSP432_DriverLib_3_10_00_09/driverlib/MSP432P4xx/ccs/msp432p4xx_driverlib.lib(i2c.o)
 .debug_line    0x00000000000096a5       0x4a /Users/snowyang/workspace/MSP432_DriverLib_3_10_00_09/driverlib/MSP432P4xx/ccs/msp432p4xx_driverlib.lib(i2c.o)
 .debug_line    0x00000000000096ef       0x44 /Users/snowyang/workspace/MSP432_DriverLib_3_10_00_09/driverlib/MSP432P4xx/ccs/msp432p4xx_driverlib.lib(i2c.o)
 .debug_line    0x0000000000009733       0x4c /Users/snowyang/workspace/MSP432_DriverLib_3_10_00_09/driverlib/MSP432P4xx/ccs/msp432p4xx_driverlib.lib(i2c.o)
 .debug_line    0x000000000000977f       0x52 /Users/snowyang/workspace/MSP432_DriverLib_3_10_00_09/driverlib/MSP432P4xx/ccs/msp432p4xx_driverlib.lib(i2c.o)
 .debug_line    0x00000000000097d1       0x4b /Users/snowyang/workspace/MSP432_DriverLib_3_10_00_09/driverlib/MSP432P4xx/ccs/msp432p4xx_driverlib.lib(i2c.o)
 .debug_line    0x000000000000981c       0x44 /Users/snowyang/workspace/MSP432_DriverLib_3_10_00_09/driverlib/MSP432P4xx/ccs/msp432p4xx_driverlib.lib(i2c.o)
 .debug_line    0x0000000000009860       0x57 /Users/snowyang/workspace/MSP432_DriverLib_3_10_00_09/driverlib/MSP432P4xx/ccs/msp432p4xx_driverlib.lib(i2c.o)
 .debug_line    0x00000000000098b7       0x4a /Users/snowyang/workspace/MSP432_DriverLib_3_10_00_09/driverlib/MSP432P4xx/ccs/msp432p4xx_driverlib.lib(i2c.o)
 .debug_line    0x0000000000009901       0x3e /Users/snowyang/workspace/MSP432_DriverLib_3_10_00_09/driverlib/MSP432P4xx/ccs/msp432p4xx_driverlib.lib(i2c.o)
 .debug_line    0x000000000000993f       0x4b /Users/snowyang/workspace/MSP432_DriverLib_3_10_00_09/driverlib/MSP432P4xx/ccs/msp432p4xx_driverlib.lib(i2c.o)
 .debug_line    0x000000000000998a       0x44 /Users/snowyang/workspace/MSP432_DriverLib_3_10_00_09/driverlib/MSP432P4xx/ccs/msp432p4xx_driverlib.lib(i2c.o)
 .debug_line    0x00000000000099ce       0x3e /Users/snowyang/workspace/MSP432_DriverLib_3_10_00_09/driverlib/MSP432P4xx/ccs/msp432p4xx_driverlib.lib(i2c.o)
 .debug_line    0x0000000000009a0c       0x3e /Users/snowyang/workspace/MSP432_DriverLib_3_10_00_09/driverlib/MSP432P4xx/ccs/msp432p4xx_driverlib.lib(i2c.o)
 .debug_line    0x0000000000009a4a       0x63 /Users/snowyang/workspace/MSP432_DriverLib_3_10_00_09/driverlib/MSP432P4xx/ccs/msp432p4xx_driverlib.lib(i2c.o)
 .debug_line    0x0000000000009aad       0x48 /Users/snowyang/workspace/MSP432_DriverLib_3_10_00_09/driverlib/MSP432P4xx/ccs/msp432p4xx_driverlib.lib(i2c.o)
 .debug_line    0x0000000000009af5       0x3e /Users/snowyang/workspace/MSP432_DriverLib_3_10_00_09/driverlib/MSP432P4xx/ccs/msp432p4xx_driverlib.lib(i2c.o)
 .debug_line    0x0000000000009b33       0x3e /Users/snowyang/workspace/MSP432_DriverLib_3_10_00_09/driverlib/MSP432P4xx/ccs/msp432p4xx_driverlib.lib(i2c.o)
 .debug_line    0x0000000000009b71       0x3e /Users/snowyang/workspace/MSP432_DriverLib_3_10_00_09/driverlib/MSP432P4xx/ccs/msp432p4xx_driverlib.lib(i2c.o)
 .debug_line    0x0000000000009baf       0x42 /Users/snowyang/workspace/MSP432_DriverLib_3_10_00_09/driverlib/MSP432P4xx/ccs/msp432p4xx_driverlib.lib(i2c.o)
 .debug_line    0x0000000000009bf1       0x41 /Users/snowyang/workspace/MSP432_DriverLib_3_10_00_09/driverlib/MSP432P4xx/ccs/msp432p4xx_driverlib.lib(i2c.o)
 .debug_line    0x0000000000009c32       0x3e /Users/snowyang/workspace/MSP432_DriverLib_3_10_00_09/driverlib/MSP432P4xx/ccs/msp432p4xx_driverlib.lib(i2c.o)
 .debug_line    0x0000000000009c70       0x3e /Users/snowyang/workspace/MSP432_DriverLib_3_10_00_09/driverlib/MSP432P4xx/ccs/msp432p4xx_driverlib.lib(i2c.o)
 .debug_line    0x0000000000009cae       0x3e /Users/snowyang/workspace/MSP432_DriverLib_3_10_00_09/driverlib/MSP432P4xx/ccs/msp432p4xx_driverlib.lib(i2c.o)
 .debug_line    0x0000000000009cec       0x3e /Users/snowyang/workspace/MSP432_DriverLib_3_10_00_09/driverlib/MSP432P4xx/ccs/msp432p4xx_driverlib.lib(i2c.o)
 .debug_line    0x0000000000009d2a       0x3e /Users/snowyang/workspace/MSP432_DriverLib_3_10_00_09/driverlib/MSP432P4xx/ccs/msp432p4xx_driverlib.lib(i2c.o)
 .debug_line    0x0000000000009d68       0x3f /Users/snowyang/workspace/MSP432_DriverLib_3_10_00_09/driverlib/MSP432P4xx/ccs/msp432p4xx_driverlib.lib(i2c.o)
 .debug_line    0x0000000000009da7       0x3e /Users/snowyang/workspace/MSP432_DriverLib_3_10_00_09/driverlib/MSP432P4xx/ccs/msp432p4xx_driverlib.lib(i2c.o)
 .debug_line    0x0000000000009de5       0x3e /Users/snowyang/workspace/MSP432_DriverLib_3_10_00_09/driverlib/MSP432P4xx/ccs/msp432p4xx_driverlib.lib(i2c.o)
 .debug_line    0x0000000000009e23       0x3f /Users/snowyang/workspace/MSP432_DriverLib_3_10_00_09/driverlib/MSP432P4xx/ccs/msp432p4xx_driverlib.lib(i2c.o)
 .debug_line    0x0000000000009e62       0x3e /Users/snowyang/workspace/MSP432_DriverLib_3_10_00_09/driverlib/MSP432P4xx/ccs/msp432p4xx_driverlib.lib(i2c.o)
 .debug_line    0x0000000000009ea0       0x3e /Users/snowyang/workspace/MSP432_DriverLib_3_10_00_09/driverlib/MSP432P4xx/ccs/msp432p4xx_driverlib.lib(i2c.o)
 .debug_line    0x0000000000009ede       0x3e /Users/snowyang/workspace/MSP432_DriverLib_3_10_00_09/driverlib/MSP432P4xx/ccs/msp432p4xx_driverlib.lib(i2c.o)
 .debug_line    0x0000000000009f1c       0x2b /Users/snowyang/workspace/MSP432_DriverLib_3_10_00_09/driverlib/MSP432P4xx/ccs/msp432p4xx_driverlib.lib(i2c.o)
 .debug_line    0x0000000000009f47       0x20 /Users/snowyang/workspace/MSP432_DriverLib_3_10_00_09/driverlib/MSP432P4xx/ccs/msp432p4xx_driverlib.lib(i2c.o)
 .debug_line    0x0000000000009f67       0x29 /Users/snowyang/workspace/MSP432_DriverLib_3_10_00_09/driverlib/MSP432P4xx/ccs/msp432p4xx_driverlib.lib(i2c.o)
 .debug_line    0x0000000000009f90       0x2b /Users/snowyang/workspace/MSP432_DriverLib_3_10_00_09/driverlib/MSP432P4xx/ccs/msp432p4xx_driverlib.lib(interrupt.o)
 .debug_line    0x0000000000009fbb       0x2f /Users/snowyang/workspace/MSP432_DriverLib_3_10_00_09/driverlib/MSP432P4xx/ccs/msp432p4xx_driverlib.lib(interrupt.o)
 .debug_line    0x0000000000009fea       0x2f /Users/snowyang/workspace/MSP432_DriverLib_3_10_00_09/driverlib/MSP432P4xx/ccs/msp432p4xx_driverlib.lib(interrupt.o)
 .debug_line    0x000000000000a019       0x2f /Users/snowyang/workspace/MSP432_DriverLib_3_10_00_09/driverlib/MSP432P4xx/ccs/msp432p4xx_driverlib.lib(interrupt.o)
 .debug_line    0x000000000000a048       0x44 /Users/snowyang/workspace/MSP432_DriverLib_3_10_00_09/driverlib/MSP432P4xx/ccs/msp432p4xx_driverlib.lib(interrupt.o)
 .debug_line    0x000000000000a08c       0x5b /Users/snowyang/workspace/MSP432_DriverLib_3_10_00_09/driverlib/MSP432P4xx/ccs/msp432p4xx_driverlib.lib(interrupt.o)
 .debug_line    0x000000000000a0e7       0x44 /Users/snowyang/workspace/MSP432_DriverLib_3_10_00_09/driverlib/MSP432P4xx/ccs/msp432p4xx_driverlib.lib(interrupt.o)
 .debug_line    0x000000000000a12b       0x44 /Users/snowyang/workspace/MSP432_DriverLib_3_10_00_09/driverlib/MSP432P4xx/ccs/msp432p4xx_driverlib.lib(interrupt.o)
 .debug_line    0x000000000000a16f       0x44 /Users/snowyang/workspace/MSP432_DriverLib_3_10_00_09/driverlib/MSP432P4xx/ccs/msp432p4xx_driverlib.lib(interrupt.o)
 .debug_line    0x000000000000a1b3       0x46 /Users/snowyang/workspace/MSP432_DriverLib_3_10_00_09/driverlib/MSP432P4xx/ccs/msp432p4xx_driverlib.lib(interrupt.o)
 .debug_line    0x000000000000a1f9       0x5c /Users/snowyang/workspace/MSP432_DriverLib_3_10_00_09/driverlib/MSP432P4xx/ccs/msp432p4xx_driverlib.lib(interrupt.o)
 .debug_line    0x000000000000a255       0x64 /Users/snowyang/workspace/MSP432_DriverLib_3_10_00_09/driverlib/MSP432P4xx/ccs/msp432p4xx_driverlib.lib(interrupt.o)
 .debug_line    0x000000000000a2b9       0x77 /Users/snowyang/workspace/MSP432_DriverLib_3_10_00_09/driverlib/MSP432P4xx/ccs/msp432p4xx_driverlib.lib(interrupt.o)
 .debug_line    0x000000000000a330       0x44 /Users/snowyang/workspace/MSP432_DriverLib_3_10_00_09/driverlib/MSP432P4xx/ccs/msp432p4xx_driverlib.lib(interrupt.o)
 .debug_line    0x000000000000a374       0x44 /Users/snowyang/workspace/MSP432_DriverLib_3_10_00_09/driverlib/MSP432P4xx/ccs/msp432p4xx_driverlib.lib(interrupt.o)
 .debug_line    0x000000000000a3b8       0x53 /Users/snowyang/workspace/MSP432_DriverLib_3_10_00_09/driverlib/MSP432P4xx/ccs/msp432p4xx_driverlib.lib(interrupt.o)
 .debug_line    0x000000000000a40b       0x44 /Users/snowyang/workspace/MSP432_DriverLib_3_10_00_09/driverlib/MSP432P4xx/ccs/msp432p4xx_driverlib.lib(interrupt.o)
 .debug_line    0x000000000000a44f       0x44 /Users/snowyang/workspace/MSP432_DriverLib_3_10_00_09/driverlib/MSP432P4xx/ccs/msp432p4xx_driverlib.lib(interrupt.o)
 .debug_line    0x000000000000a493       0x44 /Users/snowyang/workspace/MSP432_DriverLib_3_10_00_09/driverlib/MSP432P4xx/ccs/msp432p4xx_driverlib.lib(interrupt.o)
 .debug_line    0x000000000000a4d7       0x6d /Users/snowyang/workspace/MSP432_DriverLib_3_10_00_09/driverlib/MSP432P4xx/ccs/msp432p4xx_driverlib.lib(interrupt.o)
 .debug_line    0x000000000000a544       0x44 /Users/snowyang/workspace/MSP432_DriverLib_3_10_00_09/driverlib/MSP432P4xx/ccs/msp432p4xx_driverlib.lib(interrupt.o)
 .debug_line    0x000000000000a588       0x44 /Users/snowyang/workspace/MSP432_DriverLib_3_10_00_09/driverlib/MSP432P4xx/ccs/msp432p4xx_driverlib.lib(interrupt.o)
 .debug_line    0x000000000000a5cc       0x6d /Users/snowyang/workspace/MSP432_DriverLib_3_10_00_09/driverlib/MSP432P4xx/ccs/msp432p4xx_driverlib.lib(interrupt.o)
 .debug_line    0x000000000000a639       0x44 /Users/snowyang/workspace/MSP432_DriverLib_3_10_00_09/driverlib/MSP432P4xx/ccs/msp432p4xx_driverlib.lib(interrupt.o)
 .debug_line    0x000000000000a67d       0x2f /Users/snowyang/workspace/MSP432_DriverLib_3_10_00_09/driverlib/MSP432P4xx/ccs/msp432p4xx_driverlib.lib(interrupt.o)
 .debug_line    0x000000000000a6ac       0x31 /Users/snowyang/workspace/MSP432_DriverLib_3_10_00_09/driverlib/MSP432P4xx/ccs/msp432p4xx_driverlib.lib(uart.o)
 .debug_line    0x000000000000a6dd       0x54 /Users/snowyang/workspace/MSP432_DriverLib_3_10_00_09/driverlib/MSP432P4xx/ccs/msp432p4xx_driverlib.lib(uart.o)
 .debug_line    0x000000000000a731       0x45 /Users/snowyang/workspace/MSP432_DriverLib_3_10_00_09/driverlib/MSP432P4xx/ccs/msp432p4xx_driverlib.lib(uart.o)
 .debug_line    0x000000000000a776       0x4a /Users/snowyang/workspace/MSP432_DriverLib_3_10_00_09/driverlib/MSP432P4xx/ccs/msp432p4xx_driverlib.lib(uart.o)
 .debug_line    0x000000000000a7c0       0x40 /Users/snowyang/workspace/MSP432_DriverLib_3_10_00_09/driverlib/MSP432P4xx/ccs/msp432p4xx_driverlib.lib(uart.o)
 .debug_line    0x000000000000a800       0x3f /Users/snowyang/workspace/MSP432_DriverLib_3_10_00_09/driverlib/MSP432P4xx/ccs/msp432p4xx_driverlib.lib(uart.o)
 .debug_line    0x000000000000a83f       0x3f /Users/snowyang/workspace/MSP432_DriverLib_3_10_00_09/driverlib/MSP432P4xx/ccs/msp432p4xx_driverlib.lib(uart.o)
 .debug_line    0x000000000000a87e       0x3f /Users/snowyang/workspace/MSP432_DriverLib_3_10_00_09/driverlib/MSP432P4xx/ccs/msp432p4xx_driverlib.lib(uart.o)
 .debug_line    0x000000000000a8bd       0x54 /Users/snowyang/workspace/MSP432_DriverLib_3_10_00_09/driverlib/MSP432P4xx/ccs/msp432p4xx_driverlib.lib(uart.o)
 .debug_line    0x000000000000a911       0x45 /Users/snowyang/workspace/MSP432_DriverLib_3_10_00_09/driverlib/MSP432P4xx/ccs/msp432p4xx_driverlib.lib(uart.o)
 .debug_line    0x000000000000a956       0x3f /Users/snowyang/workspace/MSP432_DriverLib_3_10_00_09/driverlib/MSP432P4xx/ccs/msp432p4xx_driverlib.lib(uart.o)
 .debug_line    0x000000000000a995       0x75 /Users/snowyang/workspace/MSP432_DriverLib_3_10_00_09/driverlib/MSP432P4xx/ccs/msp432p4xx_driverlib.lib(uart.o)
 .debug_line    0x000000000000aa0a       0x3f /Users/snowyang/workspace/MSP432_DriverLib_3_10_00_09/driverlib/MSP432P4xx/ccs/msp432p4xx_driverlib.lib(uart.o)
 .debug_line    0x000000000000aa49       0x3f /Users/snowyang/workspace/MSP432_DriverLib_3_10_00_09/driverlib/MSP432P4xx/ccs/msp432p4xx_driverlib.lib(uart.o)
 .debug_line    0x000000000000aa88       0x3f /Users/snowyang/workspace/MSP432_DriverLib_3_10_00_09/driverlib/MSP432P4xx/ccs/msp432p4xx_driverlib.lib(uart.o)
 .debug_line    0x000000000000aac7       0x5b /Users/snowyang/workspace/MSP432_DriverLib_3_10_00_09/driverlib/MSP432P4xx/ccs/msp432p4xx_driverlib.lib(uart.o)
 .debug_line    0x000000000000ab22       0x3f /Users/snowyang/workspace/MSP432_DriverLib_3_10_00_09/driverlib/MSP432P4xx/ccs/msp432p4xx_driverlib.lib(uart.o)
 .debug_line    0x000000000000ab61       0x40 /Users/snowyang/workspace/MSP432_DriverLib_3_10_00_09/driverlib/MSP432P4xx/ccs/msp432p4xx_driverlib.lib(uart.o)
 .debug_line    0x000000000000aba1       0x3f /Users/snowyang/workspace/MSP432_DriverLib_3_10_00_09/driverlib/MSP432P4xx/ccs/msp432p4xx_driverlib.lib(uart.o)
 .debug_line    0x000000000000abe0       0x4a /Users/snowyang/workspace/MSP432_DriverLib_3_10_00_09/driverlib/MSP432P4xx/ccs/msp432p4xx_driverlib.lib(uart.o)
 .debug_line    0x000000000000ac2a       0x3f /Users/snowyang/workspace/MSP432_DriverLib_3_10_00_09/driverlib/MSP432P4xx/ccs/msp432p4xx_driverlib.lib(uart.o)
 .debug_line    0x000000000000ac69       0x2a /Users/snowyang/workspace/MSP432_DriverLib_3_10_00_09/driverlib/MSP432P4xx/ccs/msp432p4xx_driverlib.lib(uart.o)
 .debug_line    0x000000000000ac93       0x2c /Users/snowyang/workspace/MSP432_DriverLib_3_10_00_09/driverlib/MSP432P4xx/ccs/msp432p4xx_driverlib.lib(uart.o)
 .debug_line    0x000000000000acbf       0x20 /Users/snowyang/workspace/MSP432_DriverLib_3_10_00_09/driverlib/MSP432P4xx/ccs/msp432p4xx_driverlib.lib(cpu.o)
 .debug_line    0x000000000000acdf       0x3b /Users/snowyang/workspace/MSP432_DriverLib_3_10_00_09/driverlib/MSP432P4xx/ccs/msp432p4xx_driverlib.lib(cpu.o)
 .debug_line    0x000000000000ad1a       0x3e /Users/snowyang/workspace/MSP432_DriverLib_3_10_00_09/driverlib/MSP432P4xx/ccs/msp432p4xx_driverlib.lib(cpu.o)
 .debug_line    0x000000000000ad58       0x3e /Users/snowyang/workspace/MSP432_DriverLib_3_10_00_09/driverlib/MSP432P4xx/ccs/msp432p4xx_driverlib.lib(cpu.o)
 .debug_line    0x000000000000ad96       0x3e /Users/snowyang/workspace/MSP432_DriverLib_3_10_00_09/driverlib/MSP432P4xx/ccs/msp432p4xx_driverlib.lib(cpu.o)
 .debug_line    0x000000000000add4       0x3b /Users/snowyang/workspace/MSP432_DriverLib_3_10_00_09/driverlib/MSP432P4xx/ccs/msp432p4xx_driverlib.lib(cpu.o)
 .debug_line    0x000000000000ae0f       0x3e /Users/snowyang/workspace/MSP432_DriverLib_3_10_00_09/driverlib/MSP432P4xx/ccs/msp432p4xx_driverlib.lib(cpu.o)
 .debug_line    0x000000000000ae4d       0x29 /Users/snowyang/workspace/MSP432_DriverLib_3_10_00_09/driverlib/MSP432P4xx/ccs/msp432p4xx_driverlib.lib(cpu.o)

.debug_str      0x0000000000000000     0x73b9
 .debug_str     0x0000000000000000      0x52a ./app_console.o
                                        0x5a4 (size before relaxing)
 .debug_str     0x000000000000052a       0xf4 ./app_rgbled.o
                                        0x554 (size before relaxing)
 .debug_str     0x000000000000061e       0x91 ./app_sht20.o
                                        0x4eb (size before relaxing)
 .debug_str     0x00000000000006af       0x76 ./app_switch.o
                                        0x4c6 (size before relaxing)
 .debug_str     0x0000000000000725      0x8c9 ./main.o
                                        0xce1 (size before relaxing)
 .debug_str     0x0000000000000fee       0x8e ./startup_msp432p401r_gcc.o
                                        0x2a3 (size before relaxing)
 .debug_str     0x000000000000107c      0xb23 ./system_msp432p401r.o
                                        0xe3d (size before relaxing)
 .debug_str     0x0000000000001b9f      0x4e8 ./Board/AliCloud_SDS/alicloud_sds.o
                                        0xa42 (size before relaxing)
 .debug_str     0x0000000000002087      0x150 ./Board/drv_VGM128064/oled.o
                                        0x3b0 (size before relaxing)
 .debug_str     0x00000000000021d7       0x24 ./Board/drv_board.o
                                        0x227 (size before relaxing)
 .debug_str     0x00000000000021fb       0x29 ./Board/drv_board_test.o
                                        0x25a (size before relaxing)
 .debug_str     0x0000000000002224       0x7b ./Board/drv_button/io_button.o
                                        0x3b8 (size before relaxing)
 .debug_str     0x000000000000229f      0x108 ./Board/drv_color_led/color_led.o
                                        0x36b (size before relaxing)
 .debug_str     0x00000000000023a7       0xc9 ./Board/drv_color_led/hsb2rgb.o
                                        0x2fd (size before relaxing)
 .debug_str     0x0000000000002470      0x112 ./Board/drv_sht20/sht2x.o
                                        0x378 (size before relaxing)
 .debug_str     0x0000000000002582      0x21d ./Board/helper/emhost/ATCmdParser/ATCmdParser.o
                                        0x48e (size before relaxing)
 .debug_str     0x000000000000279f       0x51 ./Board/helper/emhost/ATCmdParser/ATCmdParserTest.o
                                        0x258 (size before relaxing)
 .debug_str     0x00000000000027f0      0x1eb ./Board/helper/emhost/emh_alisds.o
                                        0x515 (size before relaxing)
 .debug_str     0x00000000000029db       0xc5 ./Board/helper/emhost/emh_arg.o
                                        0x56f (size before relaxing)
 .debug_str     0x0000000000002aa0       0x94 ./Board/helper/emhost/emh_module.o
                                        0x2c0 (size before relaxing)
 .debug_str     0x0000000000002b34       0x76 ./Board/helper/emhost/emh_wlan.o
                                        0x2f4 (size before relaxing)
 .debug_str     0x0000000000002baa       0x87 ./Board/helper/hal/mx_hal_atomic.o
                                        0x2d3 (size before relaxing)
 .debug_str     0x0000000000002c31       0xee ./Board/helper/hal/mx_i2c.o
                                        0x391 (size before relaxing)
 .debug_str     0x0000000000002d1f      0x197 ./Board/helper/hal/mx_serial.o
                                        0x463 (size before relaxing)
 .debug_str     0x0000000000002eb6       0x39 ./Board/helper/hal/mx_stdio.o
                                        0x35e (size before relaxing)
 .debug_str     0x0000000000002eef       0x78 ./Board/helper/hal/mx_tick.o
                                        0x661 (size before relaxing)
 .debug_str     0x0000000000002f67      0x103 ./Board/helper/jsmn/jsmn.o
                                        0x390 (size before relaxing)
 .debug_str     0x000000000000306a       0xc0 ./Board/helper/jsmn/json_escape_str.o
                                        0x2c2 (size before relaxing)
 .debug_str     0x000000000000312a      0x16f ./Board/helper/jsmn/json_generator.o
                                        0x432 (size before relaxing)
 .debug_str     0x0000000000003299       0x9c ./Board/helper/jsmn/json_utils.o
                                        0x2bb (size before relaxing)
 .debug_str     0x0000000000003335      0x327 ./Board/helper/jsmn/json_wrappers.o
                                        0x688 (size before relaxing)
 .debug_str     0x000000000000365c       0x77 ./Board/helper/mx_utils/mx_ringbuffer.o
                                        0x2fb (size before relaxing)
 .debug_str     0x00000000000036d3      0x5db ./aos/soc_impl.o
                                        0x7d8 (size before relaxing)
 .debug_str     0x0000000000003cae       0x66 ./aos/trace_impl.o
                                        0x269 (size before relaxing)
 .debug_str     0x0000000000003d14      0x23c ./core/k_buf_queue.o
                                        0xd04 (size before relaxing)
 .debug_str     0x0000000000003f50       0x4a ./core/k_dyn_mem_proc.o
                                        0x1d3 (size before relaxing)
 .debug_str     0x0000000000003f9a       0x4c ./core/k_err.o
                                        0x750 (size before relaxing)
 .debug_str     0x0000000000003fe6       0x43 ./core/k_event.o
                                        0x1cc (size before relaxing)
 .debug_str     0x0000000000004029       0x5c ./core/k_idle.o
                                        0x22d (size before relaxing)
 .debug_str     0x0000000000004085       0x40 ./core/k_mm.o
                                        0x23d (size before relaxing)
 .debug_str     0x00000000000040c5       0x44 ./core/k_mm_blk.o
                                        0x1cd (size before relaxing)
 .debug_str     0x0000000000004109       0x46 ./core/k_mm_debug.o
                                        0x243 (size before relaxing)
 .debug_str     0x000000000000414f      0x126 ./core/k_mutex.o
                                        0xc62 (size before relaxing)
 .debug_str     0x0000000000004275       0xe3 ./core/k_obj.o
                                        0xbbd (size before relaxing)
 .debug_str     0x0000000000004358       0xb8 ./core/k_pend.o
                                        0xb63 (size before relaxing)
 .debug_str     0x0000000000004410      0x151 ./core/k_queue.o
                                        0xcff (size before relaxing)
 .debug_str     0x0000000000004561      0x13f ./core/k_ringbuf.o
                                        0x885 (size before relaxing)
 .debug_str     0x00000000000046a0      0x16d ./core/k_sched.o
                                        0xcbd (size before relaxing)
 .debug_str     0x000000000000480d       0xf7 ./core/k_sem.o
                                        0xc55 (size before relaxing)
 .debug_str     0x0000000000004904       0x75 ./core/k_stats.o
                                        0xb20 (size before relaxing)
 .debug_str     0x0000000000004979       0xc3 ./core/k_sys.o
                                        0xc5c (size before relaxing)
 .debug_str     0x0000000000004a3c      0x171 ./core/k_task.o
                                        0xd5d (size before relaxing)
 .debug_str     0x0000000000004bad       0x46 ./core/k_task_sem.o
                                        0x1cf (size before relaxing)
 .debug_str     0x0000000000004bf3       0xc7 ./core/k_tick.o
                                        0xbce (size before relaxing)
 .debug_str     0x0000000000004cba       0xc5 ./core/k_time.o
                                        0x2b5 (size before relaxing)
 .debug_str     0x0000000000004d7f       0x43 ./core/k_timer.o
                                        0x1cc (size before relaxing)
 .debug_str     0x0000000000004dc2       0x47 ./core/k_workqueue.o
                                        0x1d0 (size before relaxing)
 .debug_str     0x0000000000004e09       0x64 ./m4/port_c.o
                                        0x242 (size before relaxing)
 .debug_str     0x0000000000004e6d      0x465 /Users/snowyang/workspace/MSP432_DriverLib_3_10_00_09/driverlib/MSP432P4xx/ccs/msp432p4xx_driverlib.lib(gpio.o)
 .debug_str     0x00000000000052d2     0x15f0 /Users/snowyang/workspace/MSP432_DriverLib_3_10_00_09/driverlib/MSP432P4xx/ccs/msp432p4xx_driverlib.lib(gpio.o)
 .debug_str     0x00000000000068c2       0xf5 /Users/snowyang/workspace/MSP432_DriverLib_3_10_00_09/driverlib/MSP432P4xx/ccs/msp432p4xx_driverlib.lib(gpio.o)
 .debug_str     0x00000000000069b7      0x209 /Users/snowyang/workspace/MSP432_DriverLib_3_10_00_09/driverlib/MSP432P4xx/ccs/msp432p4xx_driverlib.lib(gpio.o)
 .debug_str     0x0000000000006bc0      0x11c /Users/snowyang/workspace/MSP432_DriverLib_3_10_00_09/driverlib/MSP432P4xx/ccs/msp432p4xx_driverlib.lib(gpio.o)
 .debug_str     0x0000000000006cdc       0x98 /Users/snowyang/workspace/MSP432_DriverLib_3_10_00_09/driverlib/MSP432P4xx/ccs/msp432p4xx_driverlib.lib(gpio.o)
 .debug_str     0x0000000000006d74       0xdc /Users/snowyang/workspace/MSP432_DriverLib_3_10_00_09/driverlib/MSP432P4xx/ccs/msp432p4xx_driverlib.lib(gpio.o)
 .debug_str     0x0000000000006e50       0xe8 /Users/snowyang/workspace/MSP432_DriverLib_3_10_00_09/driverlib/MSP432P4xx/ccs/msp432p4xx_driverlib.lib(i2c.o)
 .debug_str     0x0000000000006f38       0xf5 /Users/snowyang/workspace/MSP432_DriverLib_3_10_00_09/driverlib/MSP432P4xx/ccs/msp432p4xx_driverlib.lib(i2c.o)
 .debug_str     0x000000000000702d       0x97 /Users/snowyang/workspace/MSP432_DriverLib_3_10_00_09/driverlib/MSP432P4xx/ccs/msp432p4xx_driverlib.lib(i2c.o)
 .debug_str     0x00000000000070c4       0x9d /Users/snowyang/workspace/MSP432_DriverLib_3_10_00_09/driverlib/MSP432P4xx/ccs/msp432p4xx_driverlib.lib(interrupt.o)
 .debug_str     0x0000000000007161       0x98 /Users/snowyang/workspace/MSP432_DriverLib_3_10_00_09/driverlib/MSP432P4xx/ccs/msp432p4xx_driverlib.lib(uart.o)
 .debug_str     0x00000000000071f9      0x129 /Users/snowyang/workspace/MSP432_DriverLib_3_10_00_09/driverlib/MSP432P4xx/ccs/msp432p4xx_driverlib.lib(uart.o)
 .debug_str     0x0000000000007322       0x97 /Users/snowyang/workspace/MSP432_DriverLib_3_10_00_09/driverlib/MSP432P4xx/ccs/msp432p4xx_driverlib.lib(cpu.o)

.debug_frame    0x0000000000000000     0x8cc4
 .debug_frame   0x0000000000000000       0xc8 ./app_console.o
 .debug_frame   0x00000000000000c8      0x174 ./app_rgbled.o
 .debug_frame   0x000000000000023c       0x9c ./app_sht20.o
 .debug_frame   0x00000000000002d8       0xa8 ./app_switch.o
 .debug_frame   0x0000000000000380      0x180 ./main.o
 .debug_frame   0x0000000000000500       0x7c ./startup_msp432p401r_gcc.o
 .debug_frame   0x000000000000057c       0x58 ./system_msp432p401r.o
 .debug_frame   0x00000000000005d4      0x1c4 ./Board/AliCloud_SDS/alicloud_sds.o
 .debug_frame   0x0000000000000798      0x26c ./Board/drv_VGM128064/oled.o
 .debug_frame   0x0000000000000a04       0x2c ./Board/drv_board.o
 .debug_frame   0x0000000000000a30       0x38 ./Board/drv_board_test.o
 .debug_frame   0x0000000000000a68       0x7c ./Board/drv_button/io_button.o
 .debug_frame   0x0000000000000ae4       0x6c ./Board/drv_color_led/color_led.o
 .debug_frame   0x0000000000000b50       0x88 ./Board/drv_color_led/hsb2rgb.o
 .debug_frame   0x0000000000000bd8       0xe0 ./Board/drv_sht20/sht2x.o
 .debug_frame   0x0000000000000cb8      0x234 ./Board/helper/emhost/ATCmdParser/ATCmdParser.o
 .debug_frame   0x0000000000000eec       0x30 ./Board/helper/emhost/ATCmdParser/ATCmdParserTest.o
 .debug_frame   0x0000000000000f1c      0x164 ./Board/helper/emhost/emh_alisds.o
 .debug_frame   0x0000000000001080       0x60 ./Board/helper/emhost/emh_arg.o
 .debug_frame   0x00000000000010e0       0xd8 ./Board/helper/emhost/emh_module.o
 .debug_frame   0x00000000000011b8       0x80 ./Board/helper/emhost/emh_wlan.o
 .debug_frame   0x0000000000001238       0x60 ./Board/helper/hal/mx_hal_atomic.o
 .debug_frame   0x0000000000001298       0x84 ./Board/helper/hal/mx_i2c.o
 .debug_frame   0x000000000000131c      0x12c ./Board/helper/hal/mx_serial.o
 .debug_frame   0x0000000000001448       0x54 ./Board/helper/hal/mx_stdio.o
 .debug_frame   0x000000000000149c       0xdc ./Board/helper/hal/mx_tick.o
 .debug_frame   0x0000000000001578       0xfc ./Board/helper/jsmn/jsmn.o
 .debug_frame   0x0000000000001674       0xcc ./Board/helper/jsmn/json_escape_str.o
 .debug_frame   0x0000000000001740      0x23c ./Board/helper/jsmn/json_generator.o
 .debug_frame   0x000000000000197c       0x60 ./Board/helper/jsmn/json_utils.o
 .debug_frame   0x00000000000019dc      0x4ec ./Board/helper/jsmn/json_wrappers.o
 .debug_frame   0x0000000000001ec8       0xcc ./Board/helper/mx_utils/mx_ringbuffer.o
 .debug_frame   0x0000000000001f94       0x30 ./aos/soc_impl.o
 .debug_frame   0x0000000000001fc4       0x2c ./aos/trace_impl.o
 .debug_frame   0x0000000000001ff0      0x21c ./core/k_buf_queue.o
 .debug_frame   0x000000000000220c       0x34 ./core/k_err.o
 .debug_frame   0x0000000000002240       0x50 ./core/k_idle.o
 .debug_frame   0x0000000000002290      0x214 ./core/k_mutex.o
 .debug_frame   0x00000000000024a4      0x138 ./core/k_pend.o
 .debug_frame   0x00000000000025dc      0x260 ./core/k_queue.o
 .debug_frame   0x000000000000283c      0x144 ./core/k_ringbuf.o
 .debug_frame   0x0000000000002980      0x32c ./core/k_sched.o
 .debug_frame   0x0000000000002cac      0x214 ./core/k_sem.o
 .debug_frame   0x0000000000002ec0       0x98 ./core/k_stats.o
 .debug_frame   0x0000000000002f58      0x120 ./core/k_sys.o
 .debug_frame   0x0000000000003078      0x2cc ./core/k_task.o
 .debug_frame   0x0000000000003344      0x134 ./core/k_tick.o
 .debug_frame   0x0000000000003478       0xd0 ./core/k_time.o
 .debug_frame   0x0000000000003548       0x38 ./m4/port_c.o
 .debug_frame   0x0000000000003580       0x86 /Users/snowyang/workspace/MSP432_DriverLib_3_10_00_09/driverlib/MSP432P4xx/ccs/msp432p4xx_driverlib.lib(gpio.o)
 .debug_frame   0x0000000000003606       0x7f /Users/snowyang/workspace/MSP432_DriverLib_3_10_00_09/driverlib/MSP432P4xx/ccs/msp432p4xx_driverlib.lib(gpio.o)
 .debug_frame   0x0000000000003685       0x7f /Users/snowyang/workspace/MSP432_DriverLib_3_10_00_09/driverlib/MSP432P4xx/ccs/msp432p4xx_driverlib.lib(gpio.o)
 .debug_frame   0x0000000000003704       0x7f /Users/snowyang/workspace/MSP432_DriverLib_3_10_00_09/driverlib/MSP432P4xx/ccs/msp432p4xx_driverlib.lib(gpio.o)
 .debug_frame   0x0000000000003783       0x7f /Users/snowyang/workspace/MSP432_DriverLib_3_10_00_09/driverlib/MSP432P4xx/ccs/msp432p4xx_driverlib.lib(gpio.o)
 .debug_frame   0x0000000000003802       0x7f /Users/snowyang/workspace/MSP432_DriverLib_3_10_00_09/driverlib/MSP432P4xx/ccs/msp432p4xx_driverlib.lib(gpio.o)
 .debug_frame   0x0000000000003881       0x7f /Users/snowyang/workspace/MSP432_DriverLib_3_10_00_09/driverlib/MSP432P4xx/ccs/msp432p4xx_driverlib.lib(gpio.o)
 .debug_frame   0x0000000000003900       0x86 /Users/snowyang/workspace/MSP432_DriverLib_3_10_00_09/driverlib/MSP432P4xx/ccs/msp432p4xx_driverlib.lib(gpio.o)
 .debug_frame   0x0000000000003986       0x7f /Users/snowyang/workspace/MSP432_DriverLib_3_10_00_09/driverlib/MSP432P4xx/ccs/msp432p4xx_driverlib.lib(gpio.o)
 .debug_frame   0x0000000000003a05       0x7f /Users/snowyang/workspace/MSP432_DriverLib_3_10_00_09/driverlib/MSP432P4xx/ccs/msp432p4xx_driverlib.lib(gpio.o)
 .debug_frame   0x0000000000003a84       0x7f /Users/snowyang/workspace/MSP432_DriverLib_3_10_00_09/driverlib/MSP432P4xx/ccs/msp432p4xx_driverlib.lib(gpio.o)
 .debug_frame   0x0000000000003b03       0x7f /Users/snowyang/workspace/MSP432_DriverLib_3_10_00_09/driverlib/MSP432P4xx/ccs/msp432p4xx_driverlib.lib(gpio.o)
 .debug_frame   0x0000000000003b82       0x86 /Users/snowyang/workspace/MSP432_DriverLib_3_10_00_09/driverlib/MSP432P4xx/ccs/msp432p4xx_driverlib.lib(gpio.o)
 .debug_frame   0x0000000000003c08       0x7f /Users/snowyang/workspace/MSP432_DriverLib_3_10_00_09/driverlib/MSP432P4xx/ccs/msp432p4xx_driverlib.lib(gpio.o)
 .debug_frame   0x0000000000003c87       0x7f /Users/snowyang/workspace/MSP432_DriverLib_3_10_00_09/driverlib/MSP432P4xx/ccs/msp432p4xx_driverlib.lib(gpio.o)
 .debug_frame   0x0000000000003d06       0x7f /Users/snowyang/workspace/MSP432_DriverLib_3_10_00_09/driverlib/MSP432P4xx/ccs/msp432p4xx_driverlib.lib(gpio.o)
 .debug_frame   0x0000000000003d85       0x8a /Users/snowyang/workspace/MSP432_DriverLib_3_10_00_09/driverlib/MSP432P4xx/ccs/msp432p4xx_driverlib.lib(gpio.o)
 .debug_frame   0x0000000000003e0f       0x7f /Users/snowyang/workspace/MSP432_DriverLib_3_10_00_09/driverlib/MSP432P4xx/ccs/msp432p4xx_driverlib.lib(gpio.o)
 .debug_frame   0x0000000000003e8e       0x7f /Users/snowyang/workspace/MSP432_DriverLib_3_10_00_09/driverlib/MSP432P4xx/ccs/msp432p4xx_driverlib.lib(gpio.o)
 .debug_frame   0x0000000000003f0d       0x7f /Users/snowyang/workspace/MSP432_DriverLib_3_10_00_09/driverlib/MSP432P4xx/ccs/msp432p4xx_driverlib.lib(gpio.o)
 .debug_frame   0x0000000000003f8c       0x86 /Users/snowyang/workspace/MSP432_DriverLib_3_10_00_09/driverlib/MSP432P4xx/ccs/msp432p4xx_driverlib.lib(i2c.o)
 .debug_frame   0x0000000000004012       0x7f /Users/snowyang/workspace/MSP432_DriverLib_3_10_00_09/driverlib/MSP432P4xx/ccs/msp432p4xx_driverlib.lib(i2c.o)
 .debug_frame   0x0000000000004091       0x7f /Users/snowyang/workspace/MSP432_DriverLib_3_10_00_09/driverlib/MSP432P4xx/ccs/msp432p4xx_driverlib.lib(i2c.o)
 .debug_frame   0x0000000000004110       0x7f /Users/snowyang/workspace/MSP432_DriverLib_3_10_00_09/driverlib/MSP432P4xx/ccs/msp432p4xx_driverlib.lib(i2c.o)
 .debug_frame   0x000000000000418f       0x7f /Users/snowyang/workspace/MSP432_DriverLib_3_10_00_09/driverlib/MSP432P4xx/ccs/msp432p4xx_driverlib.lib(i2c.o)
 .debug_frame   0x000000000000420e       0x7f /Users/snowyang/workspace/MSP432_DriverLib_3_10_00_09/driverlib/MSP432P4xx/ccs/msp432p4xx_driverlib.lib(i2c.o)
 .debug_frame   0x000000000000428d       0x86 /Users/snowyang/workspace/MSP432_DriverLib_3_10_00_09/driverlib/MSP432P4xx/ccs/msp432p4xx_driverlib.lib(i2c.o)
 .debug_frame   0x0000000000004313       0x7f /Users/snowyang/workspace/MSP432_DriverLib_3_10_00_09/driverlib/MSP432P4xx/ccs/msp432p4xx_driverlib.lib(i2c.o)
 .debug_frame   0x0000000000004392       0x8e /Users/snowyang/workspace/MSP432_DriverLib_3_10_00_09/driverlib/MSP432P4xx/ccs/msp432p4xx_driverlib.lib(i2c.o)
 .debug_frame   0x0000000000004420       0x8a /Users/snowyang/workspace/MSP432_DriverLib_3_10_00_09/driverlib/MSP432P4xx/ccs/msp432p4xx_driverlib.lib(i2c.o)
 .debug_frame   0x00000000000044aa       0x8a /Users/snowyang/workspace/MSP432_DriverLib_3_10_00_09/driverlib/MSP432P4xx/ccs/msp432p4xx_driverlib.lib(i2c.o)
 .debug_frame   0x0000000000004534       0x86 /Users/snowyang/workspace/MSP432_DriverLib_3_10_00_09/driverlib/MSP432P4xx/ccs/msp432p4xx_driverlib.lib(i2c.o)
 .debug_frame   0x00000000000045ba       0x92 /Users/snowyang/workspace/MSP432_DriverLib_3_10_00_09/driverlib/MSP432P4xx/ccs/msp432p4xx_driverlib.lib(i2c.o)
 .debug_frame   0x000000000000464c       0x8a /Users/snowyang/workspace/MSP432_DriverLib_3_10_00_09/driverlib/MSP432P4xx/ccs/msp432p4xx_driverlib.lib(i2c.o)
 .debug_frame   0x00000000000046d6       0x8e /Users/snowyang/workspace/MSP432_DriverLib_3_10_00_09/driverlib/MSP432P4xx/ccs/msp432p4xx_driverlib.lib(i2c.o)
 .debug_frame   0x0000000000004764       0x86 /Users/snowyang/workspace/MSP432_DriverLib_3_10_00_09/driverlib/MSP432P4xx/ccs/msp432p4xx_driverlib.lib(i2c.o)
 .debug_frame   0x00000000000047ea       0x8e /Users/snowyang/workspace/MSP432_DriverLib_3_10_00_09/driverlib/MSP432P4xx/ccs/msp432p4xx_driverlib.lib(i2c.o)
 .debug_frame   0x0000000000004878       0x86 /Users/snowyang/workspace/MSP432_DriverLib_3_10_00_09/driverlib/MSP432P4xx/ccs/msp432p4xx_driverlib.lib(i2c.o)
 .debug_frame   0x00000000000048fe       0x7f /Users/snowyang/workspace/MSP432_DriverLib_3_10_00_09/driverlib/MSP432P4xx/ccs/msp432p4xx_driverlib.lib(i2c.o)
 .debug_frame   0x000000000000497d       0x86 /Users/snowyang/workspace/MSP432_DriverLib_3_10_00_09/driverlib/MSP432P4xx/ccs/msp432p4xx_driverlib.lib(i2c.o)
 .debug_frame   0x0000000000004a03       0x86 /Users/snowyang/workspace/MSP432_DriverLib_3_10_00_09/driverlib/MSP432P4xx/ccs/msp432p4xx_driverlib.lib(i2c.o)
 .debug_frame   0x0000000000004a89       0x7f /Users/snowyang/workspace/MSP432_DriverLib_3_10_00_09/driverlib/MSP432P4xx/ccs/msp432p4xx_driverlib.lib(i2c.o)
 .debug_frame   0x0000000000004b08       0x7f /Users/snowyang/workspace/MSP432_DriverLib_3_10_00_09/driverlib/MSP432P4xx/ccs/msp432p4xx_driverlib.lib(i2c.o)
 .debug_frame   0x0000000000004b87       0x92 /Users/snowyang/workspace/MSP432_DriverLib_3_10_00_09/driverlib/MSP432P4xx/ccs/msp432p4xx_driverlib.lib(i2c.o)
 .debug_frame   0x0000000000004c19       0x8a /Users/snowyang/workspace/MSP432_DriverLib_3_10_00_09/driverlib/MSP432P4xx/ccs/msp432p4xx_driverlib.lib(i2c.o)
 .debug_frame   0x0000000000004ca3       0x7f /Users/snowyang/workspace/MSP432_DriverLib_3_10_00_09/driverlib/MSP432P4xx/ccs/msp432p4xx_driverlib.lib(i2c.o)
 .debug_frame   0x0000000000004d22       0x7f /Users/snowyang/workspace/MSP432_DriverLib_3_10_00_09/driverlib/MSP432P4xx/ccs/msp432p4xx_driverlib.lib(i2c.o)
 .debug_frame   0x0000000000004da1       0x7f /Users/snowyang/workspace/MSP432_DriverLib_3_10_00_09/driverlib/MSP432P4xx/ccs/msp432p4xx_driverlib.lib(i2c.o)
 .debug_frame   0x0000000000004e20       0x8a /Users/snowyang/workspace/MSP432_DriverLib_3_10_00_09/driverlib/MSP432P4xx/ccs/msp432p4xx_driverlib.lib(i2c.o)
 .debug_frame   0x0000000000004eaa       0x86 /Users/snowyang/workspace/MSP432_DriverLib_3_10_00_09/driverlib/MSP432P4xx/ccs/msp432p4xx_driverlib.lib(i2c.o)
 .debug_frame   0x0000000000004f30       0x7f /Users/snowyang/workspace/MSP432_DriverLib_3_10_00_09/driverlib/MSP432P4xx/ccs/msp432p4xx_driverlib.lib(i2c.o)
 .debug_frame   0x0000000000004faf       0x7f /Users/snowyang/workspace/MSP432_DriverLib_3_10_00_09/driverlib/MSP432P4xx/ccs/msp432p4xx_driverlib.lib(i2c.o)
 .debug_frame   0x000000000000502e       0x7f /Users/snowyang/workspace/MSP432_DriverLib_3_10_00_09/driverlib/MSP432P4xx/ccs/msp432p4xx_driverlib.lib(i2c.o)
 .debug_frame   0x00000000000050ad       0x7f /Users/snowyang/workspace/MSP432_DriverLib_3_10_00_09/driverlib/MSP432P4xx/ccs/msp432p4xx_driverlib.lib(i2c.o)
 .debug_frame   0x000000000000512c       0x7f /Users/snowyang/workspace/MSP432_DriverLib_3_10_00_09/driverlib/MSP432P4xx/ccs/msp432p4xx_driverlib.lib(i2c.o)
 .debug_frame   0x00000000000051ab       0x7f /Users/snowyang/workspace/MSP432_DriverLib_3_10_00_09/driverlib/MSP432P4xx/ccs/msp432p4xx_driverlib.lib(i2c.o)
 .debug_frame   0x000000000000522a       0x7f /Users/snowyang/workspace/MSP432_DriverLib_3_10_00_09/driverlib/MSP432P4xx/ccs/msp432p4xx_driverlib.lib(i2c.o)
 .debug_frame   0x00000000000052a9       0x7f /Users/snowyang/workspace/MSP432_DriverLib_3_10_00_09/driverlib/MSP432P4xx/ccs/msp432p4xx_driverlib.lib(i2c.o)
 .debug_frame   0x0000000000005328       0x7f /Users/snowyang/workspace/MSP432_DriverLib_3_10_00_09/driverlib/MSP432P4xx/ccs/msp432p4xx_driverlib.lib(i2c.o)
 .debug_frame   0x00000000000053a7       0x7f /Users/snowyang/workspace/MSP432_DriverLib_3_10_00_09/driverlib/MSP432P4xx/ccs/msp432p4xx_driverlib.lib(i2c.o)
 .debug_frame   0x0000000000005426       0x7f /Users/snowyang/workspace/MSP432_DriverLib_3_10_00_09/driverlib/MSP432P4xx/ccs/msp432p4xx_driverlib.lib(i2c.o)
 .debug_frame   0x00000000000054a5       0x7f /Users/snowyang/workspace/MSP432_DriverLib_3_10_00_09/driverlib/MSP432P4xx/ccs/msp432p4xx_driverlib.lib(i2c.o)
 .debug_frame   0x0000000000005524       0x7f /Users/snowyang/workspace/MSP432_DriverLib_3_10_00_09/driverlib/MSP432P4xx/ccs/msp432p4xx_driverlib.lib(interrupt.o)
 .debug_frame   0x00000000000055a3       0x83 /Users/snowyang/workspace/MSP432_DriverLib_3_10_00_09/driverlib/MSP432P4xx/ccs/msp432p4xx_driverlib.lib(interrupt.o)
 .debug_frame   0x0000000000005626       0x7f /Users/snowyang/workspace/MSP432_DriverLib_3_10_00_09/driverlib/MSP432P4xx/ccs/msp432p4xx_driverlib.lib(interrupt.o)
 .debug_frame   0x00000000000056a5       0x7f /Users/snowyang/workspace/MSP432_DriverLib_3_10_00_09/driverlib/MSP432P4xx/ccs/msp432p4xx_driverlib.lib(interrupt.o)
 .debug_frame   0x0000000000005724       0x7f /Users/snowyang/workspace/MSP432_DriverLib_3_10_00_09/driverlib/MSP432P4xx/ccs/msp432p4xx_driverlib.lib(interrupt.o)
 .debug_frame   0x00000000000057a3       0x86 /Users/snowyang/workspace/MSP432_DriverLib_3_10_00_09/driverlib/MSP432P4xx/ccs/msp432p4xx_driverlib.lib(interrupt.o)
 .debug_frame   0x0000000000005829       0x8e /Users/snowyang/workspace/MSP432_DriverLib_3_10_00_09/driverlib/MSP432P4xx/ccs/msp432p4xx_driverlib.lib(interrupt.o)
 .debug_frame   0x00000000000058b7       0x83 /Users/snowyang/workspace/MSP432_DriverLib_3_10_00_09/driverlib/MSP432P4xx/ccs/msp432p4xx_driverlib.lib(interrupt.o)
 .debug_frame   0x000000000000593a       0x7f /Users/snowyang/workspace/MSP432_DriverLib_3_10_00_09/driverlib/MSP432P4xx/ccs/msp432p4xx_driverlib.lib(interrupt.o)
 .debug_frame   0x00000000000059b9       0x7f /Users/snowyang/workspace/MSP432_DriverLib_3_10_00_09/driverlib/MSP432P4xx/ccs/msp432p4xx_driverlib.lib(interrupt.o)
 .debug_frame   0x0000000000005a38       0x86 /Users/snowyang/workspace/MSP432_DriverLib_3_10_00_09/driverlib/MSP432P4xx/ccs/msp432p4xx_driverlib.lib(interrupt.o)
 .debug_frame   0x0000000000005abe       0x86 /Users/snowyang/workspace/MSP432_DriverLib_3_10_00_09/driverlib/MSP432P4xx/ccs/msp432p4xx_driverlib.lib(interrupt.o)
 .debug_frame   0x0000000000005b44       0x7f /Users/snowyang/workspace/MSP432_DriverLib_3_10_00_09/driverlib/MSP432P4xx/ccs/msp432p4xx_driverlib.lib(interrupt.o)
 .debug_frame   0x0000000000005bc3       0x7f /Users/snowyang/workspace/MSP432_DriverLib_3_10_00_09/driverlib/MSP432P4xx/ccs/msp432p4xx_driverlib.lib(interrupt.o)
 .debug_frame   0x0000000000005c42       0x86 /Users/snowyang/workspace/MSP432_DriverLib_3_10_00_09/driverlib/MSP432P4xx/ccs/msp432p4xx_driverlib.lib(interrupt.o)
 .debug_frame   0x0000000000005cc8       0x83 /Users/snowyang/workspace/MSP432_DriverLib_3_10_00_09/driverlib/MSP432P4xx/ccs/msp432p4xx_driverlib.lib(interrupt.o)
 .debug_frame   0x0000000000005d4b       0x7f /Users/snowyang/workspace/MSP432_DriverLib_3_10_00_09/driverlib/MSP432P4xx/ccs/msp432p4xx_driverlib.lib(interrupt.o)
 .debug_frame   0x0000000000005dca       0x86 /Users/snowyang/workspace/MSP432_DriverLib_3_10_00_09/driverlib/MSP432P4xx/ccs/msp432p4xx_driverlib.lib(interrupt.o)
 .debug_frame   0x0000000000005e50       0x83 /Users/snowyang/workspace/MSP432_DriverLib_3_10_00_09/driverlib/MSP432P4xx/ccs/msp432p4xx_driverlib.lib(interrupt.o)
 .debug_frame   0x0000000000005ed3       0x7f /Users/snowyang/workspace/MSP432_DriverLib_3_10_00_09/driverlib/MSP432P4xx/ccs/msp432p4xx_driverlib.lib(interrupt.o)
 .debug_frame   0x0000000000005f52       0x86 /Users/snowyang/workspace/MSP432_DriverLib_3_10_00_09/driverlib/MSP432P4xx/ccs/msp432p4xx_driverlib.lib(uart.o)
 .debug_frame   0x0000000000005fd8       0x86 /Users/snowyang/workspace/MSP432_DriverLib_3_10_00_09/driverlib/MSP432P4xx/ccs/msp432p4xx_driverlib.lib(uart.o)
 .debug_frame   0x000000000000605e       0x86 /Users/snowyang/workspace/MSP432_DriverLib_3_10_00_09/driverlib/MSP432P4xx/ccs/msp432p4xx_driverlib.lib(uart.o)
 .debug_frame   0x00000000000060e4       0x86 /Users/snowyang/workspace/MSP432_DriverLib_3_10_00_09/driverlib/MSP432P4xx/ccs/msp432p4xx_driverlib.lib(uart.o)
 .debug_frame   0x000000000000616a       0x7f /Users/snowyang/workspace/MSP432_DriverLib_3_10_00_09/driverlib/MSP432P4xx/ccs/msp432p4xx_driverlib.lib(uart.o)
 .debug_frame   0x00000000000061e9       0x7f /Users/snowyang/workspace/MSP432_DriverLib_3_10_00_09/driverlib/MSP432P4xx/ccs/msp432p4xx_driverlib.lib(uart.o)
 .debug_frame   0x0000000000006268       0x7f /Users/snowyang/workspace/MSP432_DriverLib_3_10_00_09/driverlib/MSP432P4xx/ccs/msp432p4xx_driverlib.lib(uart.o)
 .debug_frame   0x00000000000062e7       0x86 /Users/snowyang/workspace/MSP432_DriverLib_3_10_00_09/driverlib/MSP432P4xx/ccs/msp432p4xx_driverlib.lib(uart.o)
 .debug_frame   0x000000000000636d       0x86 /Users/snowyang/workspace/MSP432_DriverLib_3_10_00_09/driverlib/MSP432P4xx/ccs/msp432p4xx_driverlib.lib(uart.o)
 .debug_frame   0x00000000000063f3       0x7f /Users/snowyang/workspace/MSP432_DriverLib_3_10_00_09/driverlib/MSP432P4xx/ccs/msp432p4xx_driverlib.lib(uart.o)
 .debug_frame   0x0000000000006472       0x8f /Users/snowyang/workspace/MSP432_DriverLib_3_10_00_09/driverlib/MSP432P4xx/ccs/msp432p4xx_driverlib.lib(uart.o)
 .debug_frame   0x0000000000006501       0x7f /Users/snowyang/workspace/MSP432_DriverLib_3_10_00_09/driverlib/MSP432P4xx/ccs/msp432p4xx_driverlib.lib(uart.o)
 .debug_frame   0x0000000000006580       0x7f /Users/snowyang/workspace/MSP432_DriverLib_3_10_00_09/driverlib/MSP432P4xx/ccs/msp432p4xx_driverlib.lib(uart.o)
 .debug_frame   0x00000000000065ff       0x7f /Users/snowyang/workspace/MSP432_DriverLib_3_10_00_09/driverlib/MSP432P4xx/ccs/msp432p4xx_driverlib.lib(uart.o)
 .debug_frame   0x000000000000667e       0x86 /Users/snowyang/workspace/MSP432_DriverLib_3_10_00_09/driverlib/MSP432P4xx/ccs/msp432p4xx_driverlib.lib(uart.o)
 .debug_frame   0x0000000000006704       0x7f /Users/snowyang/workspace/MSP432_DriverLib_3_10_00_09/driverlib/MSP432P4xx/ccs/msp432p4xx_driverlib.lib(uart.o)
 .debug_frame   0x0000000000006783       0x7f /Users/snowyang/workspace/MSP432_DriverLib_3_10_00_09/driverlib/MSP432P4xx/ccs/msp432p4xx_driverlib.lib(uart.o)
 .debug_frame   0x0000000000006802       0x7f /Users/snowyang/workspace/MSP432_DriverLib_3_10_00_09/driverlib/MSP432P4xx/ccs/msp432p4xx_driverlib.lib(uart.o)
 .debug_frame   0x0000000000006881       0x86 /Users/snowyang/workspace/MSP432_DriverLib_3_10_00_09/driverlib/MSP432P4xx/ccs/msp432p4xx_driverlib.lib(uart.o)
 .debug_frame   0x0000000000006907       0x7f /Users/snowyang/workspace/MSP432_DriverLib_3_10_00_09/driverlib/MSP432P4xx/ccs/msp432p4xx_driverlib.lib(uart.o)
 .debug_frame   0x0000000000006986       0x7f /Users/snowyang/workspace/MSP432_DriverLib_3_10_00_09/driverlib/MSP432P4xx/ccs/msp432p4xx_driverlib.lib(cpu.o)
 .debug_frame   0x0000000000006a05       0x7f /Users/snowyang/workspace/MSP432_DriverLib_3_10_00_09/driverlib/MSP432P4xx/ccs/msp432p4xx_driverlib.lib(cpu.o)
 .debug_frame   0x0000000000006a84       0x7f /Users/snowyang/workspace/MSP432_DriverLib_3_10_00_09/driverlib/MSP432P4xx/ccs/msp432p4xx_driverlib.lib(cpu.o)
 .debug_frame   0x0000000000006b03       0x7f /Users/snowyang/workspace/MSP432_DriverLib_3_10_00_09/driverlib/MSP432P4xx/ccs/msp432p4xx_driverlib.lib(cpu.o)
 .debug_frame   0x0000000000006b82       0x7f /Users/snowyang/workspace/MSP432_DriverLib_3_10_00_09/driverlib/MSP432P4xx/ccs/msp432p4xx_driverlib.lib(cpu.o)
 .debug_frame   0x0000000000006c01       0x7f /Users/snowyang/workspace/MSP432_DriverLib_3_10_00_09/driverlib/MSP432P4xx/ccs/msp432p4xx_driverlib.lib(cpu.o)
 .debug_frame   0x0000000000006c80       0x74 /Applications/ti/ccsv6/tools/compiler/gcc-arm-none-eabi-4_9-2015q3/bin/../lib/gcc/arm-none-eabi/4.9.3/../../../../arm-none-eabi/lib/armv7e-m/fpu/libm.a(lib_a-w_pow.o)
 .debug_frame   0x0000000000006cf4       0x64 /Applications/ti/ccsv6/tools/compiler/gcc-arm-none-eabi-4_9-2015q3/bin/../lib/gcc/arm-none-eabi/4.9.3/../../../../arm-none-eabi/lib/armv7e-m/fpu/libm.a(lib_a-e_pow.o)
 .debug_frame   0x0000000000006d58       0x30 /Applications/ti/ccsv6/tools/compiler/gcc-arm-none-eabi-4_9-2015q3/bin/../lib/gcc/arm-none-eabi/4.9.3/../../../../arm-none-eabi/lib/armv7e-m/fpu/libm.a(lib_a-e_sqrt.o)
 .debug_frame   0x0000000000006d88       0x20 /Applications/ti/ccsv6/tools/compiler/gcc-arm-none-eabi-4_9-2015q3/bin/../lib/gcc/arm-none-eabi/4.9.3/../../../../arm-none-eabi/lib/armv7e-m/fpu/libm.a(lib_a-s_fabs.o)
 .debug_frame   0x0000000000006da8       0x20 /Applications/ti/ccsv6/tools/compiler/gcc-arm-none-eabi-4_9-2015q3/bin/../lib/gcc/arm-none-eabi/4.9.3/../../../../arm-none-eabi/lib/armv7e-m/fpu/libm.a(lib_a-s_finite.o)
 .debug_frame   0x0000000000006dc8       0x34 /Applications/ti/ccsv6/tools/compiler/gcc-arm-none-eabi-4_9-2015q3/bin/../lib/gcc/arm-none-eabi/4.9.3/../../../../arm-none-eabi/lib/armv7e-m/fpu/libm.a(lib_a-s_fpclassify.o)
 .debug_frame   0x0000000000006dfc       0x20 /Applications/ti/ccsv6/tools/compiler/gcc-arm-none-eabi-4_9-2015q3/bin/../lib/gcc/arm-none-eabi/4.9.3/../../../../arm-none-eabi/lib/armv7e-m/fpu/libm.a(lib_a-s_matherr.o)
 .debug_frame   0x0000000000006e1c       0x20 /Applications/ti/ccsv6/tools/compiler/gcc-arm-none-eabi-4_9-2015q3/bin/../lib/gcc/arm-none-eabi/4.9.3/../../../../arm-none-eabi/lib/armv7e-m/fpu/libm.a(lib_a-s_nan.o)
 .debug_frame   0x0000000000006e3c       0x3c /Applications/ti/ccsv6/tools/compiler/gcc-arm-none-eabi-4_9-2015q3/bin/../lib/gcc/arm-none-eabi/4.9.3/../../../../arm-none-eabi/lib/armv7e-m/fpu/libm.a(lib_a-s_rint.o)
 .debug_frame   0x0000000000006e78       0x2c /Applications/ti/ccsv6/tools/compiler/gcc-arm-none-eabi-4_9-2015q3/bin/../lib/gcc/arm-none-eabi/4.9.3/../../../../arm-none-eabi/lib/armv7e-m/fpu/libm.a(lib_a-s_scalbn.o)
 .debug_frame   0x0000000000006ea4       0x20 /Applications/ti/ccsv6/tools/compiler/gcc-arm-none-eabi-4_9-2015q3/bin/../lib/gcc/arm-none-eabi/4.9.3/../../../../arm-none-eabi/lib/armv7e-m/fpu/libm.a(lib_a-s_copysign.o)
 .debug_frame   0x0000000000006ec4       0x40 /Applications/ti/ccsv6/tools/compiler/gcc-arm-none-eabi-4_9-2015q3/bin/../lib/gcc/arm-none-eabi/4.9.3/../../../../arm-none-eabi/lib/armv7e-m/fpu/libc.a(lib_a-assert.o)
 .debug_frame   0x0000000000006f04       0x20 /Applications/ti/ccsv6/tools/compiler/gcc-arm-none-eabi-4_9-2015q3/bin/../lib/gcc/arm-none-eabi/4.9.3/../../../../arm-none-eabi/lib/armv7e-m/fpu/libc.a(lib_a-calloc.o)
 .debug_frame   0x0000000000006f24       0x28 /Applications/ti/ccsv6/tools/compiler/gcc-arm-none-eabi-4_9-2015q3/bin/../lib/gcc/arm-none-eabi/4.9.3/../../../../arm-none-eabi/lib/armv7e-m/fpu/libc.a(lib_a-callocr.o)
 .debug_frame   0x0000000000006f4c       0x20 /Applications/ti/ccsv6/tools/compiler/gcc-arm-none-eabi-4_9-2015q3/bin/../lib/gcc/arm-none-eabi/4.9.3/../../../../arm-none-eabi/lib/armv7e-m/fpu/libc.a(lib_a-errno.o)
 .debug_frame   0x0000000000006f6c       0x28 /Applications/ti/ccsv6/tools/compiler/gcc-arm-none-eabi-4_9-2015q3/bin/../lib/gcc/arm-none-eabi/4.9.3/../../../../arm-none-eabi/lib/armv7e-m/fpu/libc.a(lib_a-exit.o)
 .debug_frame   0x0000000000006f94       0x70 /Applications/ti/ccsv6/tools/compiler/gcc-arm-none-eabi-4_9-2015q3/bin/../lib/gcc/arm-none-eabi/4.9.3/../../../../arm-none-eabi/lib/armv7e-m/fpu/libc.a(lib_a-fiprintf.o)
 .debug_frame   0x0000000000007004       0x2c /Applications/ti/ccsv6/tools/compiler/gcc-arm-none-eabi-4_9-2015q3/bin/../lib/gcc/arm-none-eabi/4.9.3/../../../../arm-none-eabi/lib/armv7e-m/fpu/libc.a(lib_a-init.o)
 .debug_frame   0x0000000000007030       0x30 /Applications/ti/ccsv6/tools/compiler/gcc-arm-none-eabi-4_9-2015q3/bin/../lib/gcc/arm-none-eabi/4.9.3/../../../../arm-none-eabi/lib/armv7e-m/fpu/libc.a(lib_a-malloc.o)
 .debug_frame   0x0000000000007060       0x58 /Applications/ti/ccsv6/tools/compiler/gcc-arm-none-eabi-4_9-2015q3/bin/../lib/gcc/arm-none-eabi/4.9.3/../../../../arm-none-eabi/lib/armv7e-m/fpu/libc.a(lib_a-mallocr.o)
 .debug_frame   0x00000000000070b8       0x38 /Applications/ti/ccsv6/tools/compiler/gcc-arm-none-eabi-4_9-2015q3/bin/../lib/gcc/arm-none-eabi/4.9.3/../../../../arm-none-eabi/lib/armv7e-m/fpu/libc.a(lib_a-memcmp.o)
 .debug_frame   0x00000000000070f0       0x34 /Applications/ti/ccsv6/tools/compiler/gcc-arm-none-eabi-4_9-2015q3/bin/../lib/gcc/arm-none-eabi/4.9.3/../../../../arm-none-eabi/lib/armv7e-m/fpu/libc.a(lib_a-memset.o)
 .debug_frame   0x0000000000007124       0x30 /Applications/ti/ccsv6/tools/compiler/gcc-arm-none-eabi-4_9-2015q3/bin/../lib/gcc/arm-none-eabi/4.9.3/../../../../arm-none-eabi/lib/armv7e-m/fpu/libc.a(lib_a-mlock.o)
 .debug_frame   0x0000000000007154       0x74 /Applications/ti/ccsv6/tools/compiler/gcc-arm-none-eabi-4_9-2015q3/bin/../lib/gcc/arm-none-eabi/4.9.3/../../../../arm-none-eabi/lib/armv7e-m/fpu/libc.a(lib_a-printf.o)
 .debug_frame   0x00000000000071c8       0x48 /Applications/ti/ccsv6/tools/compiler/gcc-arm-none-eabi-4_9-2015q3/bin/../lib/gcc/arm-none-eabi/4.9.3/../../../../arm-none-eabi/lib/armv7e-m/fpu/libc.a(lib_a-puts.o)
 .debug_frame   0x0000000000007210       0x20 /Applications/ti/ccsv6/tools/compiler/gcc-arm-none-eabi-4_9-2015q3/bin/../lib/gcc/arm-none-eabi/4.9.3/../../../../arm-none-eabi/lib/armv7e-m/fpu/libc.a(lib_a-realloc.o)
 .debug_frame   0x0000000000007230       0x60 /Applications/ti/ccsv6/tools/compiler/gcc-arm-none-eabi-4_9-2015q3/bin/../lib/gcc/arm-none-eabi/4.9.3/../../../../arm-none-eabi/lib/armv7e-m/fpu/libc.a(lib_a-reallocr.o)
 .debug_frame   0x0000000000007290       0x2c /Applications/ti/ccsv6/tools/compiler/gcc-arm-none-eabi-4_9-2015q3/bin/../lib/gcc/arm-none-eabi/4.9.3/../../../../arm-none-eabi/lib/armv7e-m/fpu/libc.a(lib_a-sbrkr.o)
 .debug_frame   0x00000000000072bc       0xd0 /Applications/ti/ccsv6/tools/compiler/gcc-arm-none-eabi-4_9-2015q3/bin/../lib/gcc/arm-none-eabi/4.9.3/../../../../arm-none-eabi/lib/armv7e-m/fpu/libc.a(lib_a-snprintf.o)
 .debug_frame   0x000000000000738c       0x84 /Applications/ti/ccsv6/tools/compiler/gcc-arm-none-eabi-4_9-2015q3/bin/../lib/gcc/arm-none-eabi/4.9.3/../../../../arm-none-eabi/lib/armv7e-m/fpu/libc.a(lib_a-sprintf.o)
 .debug_frame   0x0000000000007410       0x84 /Applications/ti/ccsv6/tools/compiler/gcc-arm-none-eabi-4_9-2015q3/bin/../lib/gcc/arm-none-eabi/4.9.3/../../../../arm-none-eabi/lib/armv7e-m/fpu/libc.a(lib_a-sscanf.o)
 .debug_frame   0x0000000000007494       0x88 /Applications/ti/ccsv6/tools/compiler/gcc-arm-none-eabi-4_9-2015q3/bin/../lib/gcc/arm-none-eabi/4.9.3/../../../../arm-none-eabi/lib/armv7e-m/fpu/libc.a(lib_a-stdio.o)
 .debug_frame   0x000000000000751c       0x20 /Applications/ti/ccsv6/tools/compiler/gcc-arm-none-eabi-4_9-2015q3/bin/../lib/gcc/arm-none-eabi/4.9.3/../../../../arm-none-eabi/lib/armv7e-m/fpu/libc.a(lib_a-strcpy.o)
 .debug_frame   0x000000000000753c       0x20 /Applications/ti/ccsv6/tools/compiler/gcc-arm-none-eabi-4_9-2015q3/bin/../lib/gcc/arm-none-eabi/4.9.3/../../../../arm-none-eabi/lib/armv7e-m/fpu/libc.a(lib_a-strlen.o)
 .debug_frame   0x000000000000755c       0x54 /Applications/ti/ccsv6/tools/compiler/gcc-arm-none-eabi-4_9-2015q3/bin/../lib/gcc/arm-none-eabi/4.9.3/../../../../arm-none-eabi/lib/armv7e-m/fpu/libc.a(lib_a-strncmp.o)
 .debug_frame   0x00000000000075b0       0x34 /Applications/ti/ccsv6/tools/compiler/gcc-arm-none-eabi-4_9-2015q3/bin/../lib/gcc/arm-none-eabi/4.9.3/../../../../arm-none-eabi/lib/armv7e-m/fpu/libc.a(lib_a-strncpy.o)
 .debug_frame   0x00000000000075e4       0x54 /Applications/ti/ccsv6/tools/compiler/gcc-arm-none-eabi-4_9-2015q3/bin/../lib/gcc/arm-none-eabi/4.9.3/../../../../arm-none-eabi/lib/armv7e-m/fpu/libc.a(lib_a-strtoul.o)
 .debug_frame   0x0000000000007638       0x2c /Applications/ti/ccsv6/tools/compiler/gcc-arm-none-eabi-4_9-2015q3/bin/../lib/gcc/arm-none-eabi/4.9.3/../../../../arm-none-eabi/lib/armv7e-m/fpu/libc.a(lib_a-strtoull.o)
 .debug_frame   0x0000000000007664       0x40 /Applications/ti/ccsv6/tools/compiler/gcc-arm-none-eabi-4_9-2015q3/bin/../lib/gcc/arm-none-eabi/4.9.3/../../../../arm-none-eabi/lib/armv7e-m/fpu/libc.a(lib_a-strtoull_r.o)
 .debug_frame   0x00000000000076a4       0x40 /Applications/ti/ccsv6/tools/compiler/gcc-arm-none-eabi-4_9-2015q3/bin/../lib/gcc/arm-none-eabi/4.9.3/../../../../arm-none-eabi/lib/armv7e-m/fpu/libc.a(lib_a-svfprintf.o)
 .debug_frame   0x00000000000076e4       0x70 /Applications/ti/ccsv6/tools/compiler/gcc-arm-none-eabi-4_9-2015q3/bin/../lib/gcc/arm-none-eabi/4.9.3/../../../../arm-none-eabi/lib/armv7e-m/fpu/libc.a(lib_a-svfscanf.o)
 .debug_frame   0x0000000000007754       0xd8 /Applications/ti/ccsv6/tools/compiler/gcc-arm-none-eabi-4_9-2015q3/bin/../lib/gcc/arm-none-eabi/4.9.3/../../../../arm-none-eabi/lib/armv7e-m/fpu/libc.a(lib_a-vfiprintf.o)
 .debug_frame   0x000000000000782c       0x90 /Applications/ti/ccsv6/tools/compiler/gcc-arm-none-eabi-4_9-2015q3/bin/../lib/gcc/arm-none-eabi/4.9.3/../../../../arm-none-eabi/lib/armv7e-m/fpu/libc.a(lib_a-vfprintf.o)
 .debug_frame   0x00000000000078bc       0x3c /Applications/ti/ccsv6/tools/compiler/gcc-arm-none-eabi-4_9-2015q3/bin/../lib/gcc/arm-none-eabi/4.9.3/../../../../arm-none-eabi/lib/armv7e-m/fpu/libc.a(lib_a-vprintf.o)
 .debug_frame   0x00000000000078f8       0x50 /Applications/ti/ccsv6/tools/compiler/gcc-arm-none-eabi-4_9-2015q3/bin/../lib/gcc/arm-none-eabi/4.9.3/../../../../arm-none-eabi/lib/armv7e-m/fpu/libc.a(lib_a-vsprintf.o)
 .debug_frame   0x0000000000007948       0x50 /Applications/ti/ccsv6/tools/compiler/gcc-arm-none-eabi-4_9-2015q3/bin/../lib/gcc/arm-none-eabi/4.9.3/../../../../arm-none-eabi/lib/armv7e-m/fpu/libc.a(lib_a-vsscanf.o)
 .debug_frame   0x0000000000007998       0x2c /Applications/ti/ccsv6/tools/compiler/gcc-arm-none-eabi-4_9-2015q3/bin/../lib/gcc/arm-none-eabi/4.9.3/../../../../arm-none-eabi/lib/armv7e-m/fpu/libc.a(lib_a-writer.o)
 .debug_frame   0x00000000000079c4       0x2c /Applications/ti/ccsv6/tools/compiler/gcc-arm-none-eabi-4_9-2015q3/bin/../lib/gcc/arm-none-eabi/4.9.3/../../../../arm-none-eabi/lib/armv7e-m/fpu/libc.a(lib_a-wsetup.o)
 .debug_frame   0x00000000000079f0       0x50 /Applications/ti/ccsv6/tools/compiler/gcc-arm-none-eabi-4_9-2015q3/bin/../lib/gcc/arm-none-eabi/4.9.3/../../../../arm-none-eabi/lib/armv7e-m/fpu/libc.a(lib_a-__call_atexit.o)
 .debug_frame   0x0000000000007a40       0x28 /Applications/ti/ccsv6/tools/compiler/gcc-arm-none-eabi-4_9-2015q3/bin/../lib/gcc/arm-none-eabi/4.9.3/../../../../arm-none-eabi/lib/armv7e-m/fpu/libc.a(lib_a-abort.o)
 .debug_frame   0x0000000000007a68       0x20 /Applications/ti/ccsv6/tools/compiler/gcc-arm-none-eabi-4_9-2015q3/bin/../lib/gcc/arm-none-eabi/4.9.3/../../../../arm-none-eabi/lib/armv7e-m/fpu/libc.a(lib_a-atexit.o)
 .debug_frame   0x0000000000007a88       0x2c /Applications/ti/ccsv6/tools/compiler/gcc-arm-none-eabi-4_9-2015q3/bin/../lib/gcc/arm-none-eabi/4.9.3/../../../../arm-none-eabi/lib/armv7e-m/fpu/libc.a(lib_a-closer.o)
 .debug_frame   0x0000000000007ab4       0x88 /Applications/ti/ccsv6/tools/compiler/gcc-arm-none-eabi-4_9-2015q3/bin/../lib/gcc/arm-none-eabi/4.9.3/../../../../arm-none-eabi/lib/armv7e-m/fpu/libc.a(lib_a-dtoa.o)
 .debug_frame   0x0000000000007b3c       0x6c /Applications/ti/ccsv6/tools/compiler/gcc-arm-none-eabi-4_9-2015q3/bin/../lib/gcc/arm-none-eabi/4.9.3/../../../../arm-none-eabi/lib/armv7e-m/fpu/libc.a(lib_a-fflush.o)
 .debug_frame   0x0000000000007ba8      0x124 /Applications/ti/ccsv6/tools/compiler/gcc-arm-none-eabi-4_9-2015q3/bin/../lib/gcc/arm-none-eabi/4.9.3/../../../../arm-none-eabi/lib/armv7e-m/fpu/libc.a(lib_a-findfp.o)
 .debug_frame   0x0000000000007ccc       0x34 /Applications/ti/ccsv6/tools/compiler/gcc-arm-none-eabi-4_9-2015q3/bin/../lib/gcc/arm-none-eabi/4.9.3/../../../../arm-none-eabi/lib/armv7e-m/fpu/libc.a(lib_a-fini.o)
 .debug_frame   0x0000000000007d00       0x84 /Applications/ti/ccsv6/tools/compiler/gcc-arm-none-eabi-4_9-2015q3/bin/../lib/gcc/arm-none-eabi/4.9.3/../../../../arm-none-eabi/lib/armv7e-m/fpu/libc.a(lib_a-fputwc.o)
 .debug_frame   0x0000000000007d84       0x74 /Applications/ti/ccsv6/tools/compiler/gcc-arm-none-eabi-4_9-2015q3/bin/../lib/gcc/arm-none-eabi/4.9.3/../../../../arm-none-eabi/lib/armv7e-m/fpu/libc.a(lib_a-freer.o)
 .debug_frame   0x0000000000007df8       0x68 /Applications/ti/ccsv6/tools/compiler/gcc-arm-none-eabi-4_9-2015q3/bin/../lib/gcc/arm-none-eabi/4.9.3/../../../../arm-none-eabi/lib/armv7e-m/fpu/libc.a(lib_a-fvwrite.o)
 .debug_frame   0x0000000000007e60       0x54 /Applications/ti/ccsv6/tools/compiler/gcc-arm-none-eabi-4_9-2015q3/bin/../lib/gcc/arm-none-eabi/4.9.3/../../../../arm-none-eabi/lib/armv7e-m/fpu/libc.a(lib_a-fwalk.o)
 .debug_frame   0x0000000000007eb4       0x20 /Applications/ti/ccsv6/tools/compiler/gcc-arm-none-eabi-4_9-2015q3/bin/../lib/gcc/arm-none-eabi/4.9.3/../../../../arm-none-eabi/lib/armv7e-m/fpu/libc.a(lib_a-iswspace.o)
 .debug_frame   0x0000000000007ed4       0x9c /Applications/ti/ccsv6/tools/compiler/gcc-arm-none-eabi-4_9-2015q3/bin/../lib/gcc/arm-none-eabi/4.9.3/../../../../arm-none-eabi/lib/armv7e-m/fpu/libc.a(lib_a-locale.o)
 .debug_frame   0x0000000000007f70       0x2c /Applications/ti/ccsv6/tools/compiler/gcc-arm-none-eabi-4_9-2015q3/bin/../lib/gcc/arm-none-eabi/4.9.3/../../../../arm-none-eabi/lib/armv7e-m/fpu/libc.a(lib_a-lseekr.o)
 .debug_frame   0x0000000000007f9c       0x48 /Applications/ti/ccsv6/tools/compiler/gcc-arm-none-eabi-4_9-2015q3/bin/../lib/gcc/arm-none-eabi/4.9.3/../../../../arm-none-eabi/lib/armv7e-m/fpu/libc.a(lib_a-makebuf.o)
 .debug_frame   0x0000000000007fe4       0x68 /Applications/ti/ccsv6/tools/compiler/gcc-arm-none-eabi-4_9-2015q3/bin/../lib/gcc/arm-none-eabi/4.9.3/../../../../arm-none-eabi/lib/armv7e-m/fpu/libc.a(lib_a-mbrtowc.o)
 .debug_frame   0x000000000000804c       0x58 /Applications/ti/ccsv6/tools/compiler/gcc-arm-none-eabi-4_9-2015q3/bin/../lib/gcc/arm-none-eabi/4.9.3/../../../../arm-none-eabi/lib/armv7e-m/fpu/libc.a(lib_a-mbtowc_r.o)
 .debug_frame   0x00000000000080a4       0x3c /Applications/ti/ccsv6/tools/compiler/gcc-arm-none-eabi-4_9-2015q3/bin/../lib/gcc/arm-none-eabi/4.9.3/../../../../arm-none-eabi/lib/armv7e-m/fpu/libc.a(lib_a-memchr.o)
 .debug_frame   0x00000000000080e0       0x30 /Applications/ti/ccsv6/tools/compiler/gcc-arm-none-eabi-4_9-2015q3/bin/../lib/gcc/arm-none-eabi/4.9.3/../../../../arm-none-eabi/lib/armv7e-m/fpu/libc.a(lib_a-memmove.o)
 .debug_frame   0x0000000000008110      0x268 /Applications/ti/ccsv6/tools/compiler/gcc-arm-none-eabi-4_9-2015q3/bin/../lib/gcc/arm-none-eabi/4.9.3/../../../../arm-none-eabi/lib/armv7e-m/fpu/libc.a(lib_a-mprec.o)
 .debug_frame   0x0000000000008378       0x2c /Applications/ti/ccsv6/tools/compiler/gcc-arm-none-eabi-4_9-2015q3/bin/../lib/gcc/arm-none-eabi/4.9.3/../../../../arm-none-eabi/lib/armv7e-m/fpu/libc.a(lib_a-readr.o)
 .debug_frame   0x00000000000083a4       0x58 /Applications/ti/ccsv6/tools/compiler/gcc-arm-none-eabi-4_9-2015q3/bin/../lib/gcc/arm-none-eabi/4.9.3/../../../../arm-none-eabi/lib/armv7e-m/fpu/libc.a(lib_a-reent.o)
 .debug_frame   0x00000000000083fc       0x44 /Applications/ti/ccsv6/tools/compiler/gcc-arm-none-eabi-4_9-2015q3/bin/../lib/gcc/arm-none-eabi/4.9.3/../../../../arm-none-eabi/lib/armv7e-m/fpu/libc.a(lib_a-sccl.o)
 .debug_frame   0x0000000000008440       0x20 /Applications/ti/ccsv6/tools/compiler/gcc-arm-none-eabi-4_9-2015q3/bin/../lib/gcc/arm-none-eabi/4.9.3/../../../../arm-none-eabi/lib/armv7e-m/fpu/libc.a(lib_a-sf_nan.o)
 .debug_frame   0x0000000000008460       0xe4 /Applications/ti/ccsv6/tools/compiler/gcc-arm-none-eabi-4_9-2015q3/bin/../lib/gcc/arm-none-eabi/4.9.3/../../../../arm-none-eabi/lib/armv7e-m/fpu/libc.a(lib_a-signal.o)
 .debug_frame   0x0000000000008544       0x3c /Applications/ti/ccsv6/tools/compiler/gcc-arm-none-eabi-4_9-2015q3/bin/../lib/gcc/arm-none-eabi/4.9.3/../../../../arm-none-eabi/lib/armv7e-m/fpu/libc.a(lib_a-signalr.o)
 .debug_frame   0x0000000000008580       0xa4 /Applications/ti/ccsv6/tools/compiler/gcc-arm-none-eabi-4_9-2015q3/bin/../lib/gcc/arm-none-eabi/4.9.3/../../../../arm-none-eabi/lib/armv7e-m/fpu/libc.a(lib_a-strtod.o)
 .debug_frame   0x0000000000008624       0x54 /Applications/ti/ccsv6/tools/compiler/gcc-arm-none-eabi-4_9-2015q3/bin/../lib/gcc/arm-none-eabi/4.9.3/../../../../arm-none-eabi/lib/armv7e-m/fpu/libc.a(lib_a-strtol.o)
 .debug_frame   0x0000000000008678       0x40 /Applications/ti/ccsv6/tools/compiler/gcc-arm-none-eabi-4_9-2015q3/bin/../lib/gcc/arm-none-eabi/4.9.3/../../../../arm-none-eabi/lib/armv7e-m/fpu/libc.a(lib_a-strtoll_r.o)
 .debug_frame   0x00000000000086b8       0x78 /Applications/ti/ccsv6/tools/compiler/gcc-arm-none-eabi-4_9-2015q3/bin/../lib/gcc/arm-none-eabi/4.9.3/../../../../arm-none-eabi/lib/armv7e-m/fpu/libc.a(lib_a-svfiprintf.o)
 .debug_frame   0x0000000000008730       0xd0 /Applications/ti/ccsv6/tools/compiler/gcc-arm-none-eabi-4_9-2015q3/bin/../lib/gcc/arm-none-eabi/4.9.3/../../../../arm-none-eabi/lib/armv7e-m/fpu/libc.a(lib_a-svfiscanf.o)
 .debug_frame   0x0000000000008800       0x5c /Applications/ti/ccsv6/tools/compiler/gcc-arm-none-eabi-4_9-2015q3/bin/../lib/gcc/arm-none-eabi/4.9.3/../../../../arm-none-eabi/lib/armv7e-m/fpu/libc.a(lib_a-ungetc.o)
 .debug_frame   0x000000000000885c       0x3c /Applications/ti/ccsv6/tools/compiler/gcc-arm-none-eabi-4_9-2015q3/bin/../lib/gcc/arm-none-eabi/4.9.3/../../../../arm-none-eabi/lib/armv7e-m/fpu/libc.a(lib_a-wbuf.o)
 .debug_frame   0x0000000000008898       0x60 /Applications/ti/ccsv6/tools/compiler/gcc-arm-none-eabi-4_9-2015q3/bin/../lib/gcc/arm-none-eabi/4.9.3/../../../../arm-none-eabi/lib/armv7e-m/fpu/libc.a(lib_a-wcrtomb.o)
 .debug_frame   0x00000000000088f8       0x48 /Applications/ti/ccsv6/tools/compiler/gcc-arm-none-eabi-4_9-2015q3/bin/../lib/gcc/arm-none-eabi/4.9.3/../../../../arm-none-eabi/lib/armv7e-m/fpu/libc.a(lib_a-wctomb_r.o)
 .debug_frame   0x0000000000008940       0x34 /Applications/ti/ccsv6/tools/compiler/gcc-arm-none-eabi-4_9-2015q3/bin/../lib/gcc/arm-none-eabi/4.9.3/../../../../arm-none-eabi/lib/armv7e-m/fpu/libc.a(lib_a-__atexit.o)
 .debug_frame   0x0000000000008974       0x44 /Applications/ti/ccsv6/tools/compiler/gcc-arm-none-eabi-4_9-2015q3/bin/../lib/gcc/arm-none-eabi/4.9.3/../../../../arm-none-eabi/lib/armv7e-m/fpu/libc.a(lib_a-fclose.o)
 .debug_frame   0x00000000000089b8       0x2c /Applications/ti/ccsv6/tools/compiler/gcc-arm-none-eabi-4_9-2015q3/bin/../lib/gcc/arm-none-eabi/4.9.3/../../../../arm-none-eabi/lib/armv7e-m/fpu/libc.a(lib_a-fstatr.o)
 .debug_frame   0x00000000000089e4       0x6c /Applications/ti/ccsv6/tools/compiler/gcc-arm-none-eabi-4_9-2015q3/bin/../lib/gcc/arm-none-eabi/4.9.3/../../../../arm-none-eabi/lib/armv7e-m/fpu/libc.a(lib_a-gdtoa-gethex.o)
 .debug_frame   0x0000000000008a50       0x4c /Applications/ti/ccsv6/tools/compiler/gcc-arm-none-eabi-4_9-2015q3/bin/../lib/gcc/arm-none-eabi/4.9.3/../../../../arm-none-eabi/lib/armv7e-m/fpu/libc.a(lib_a-gdtoa-hexnan.o)
 .debug_frame   0x0000000000008a9c       0x2c /Applications/ti/ccsv6/tools/compiler/gcc-arm-none-eabi-4_9-2015q3/bin/../lib/gcc/arm-none-eabi/4.9.3/../../../../arm-none-eabi/lib/armv7e-m/fpu/libc.a(lib_a-isattyr.o)
 .debug_frame   0x0000000000008ac8       0x20 /Applications/ti/ccsv6/tools/compiler/gcc-arm-none-eabi-4_9-2015q3/bin/../lib/gcc/arm-none-eabi/4.9.3/../../../../arm-none-eabi/lib/armv7e-m/fpu/libnosys.a(close.o)
 .debug_frame   0x0000000000008ae8       0x20 /Applications/ti/ccsv6/tools/compiler/gcc-arm-none-eabi-4_9-2015q3/bin/../lib/gcc/arm-none-eabi/4.9.3/../../../../arm-none-eabi/lib/armv7e-m/fpu/libnosys.a(fstat.o)
 .debug_frame   0x0000000000008b08       0x20 /Applications/ti/ccsv6/tools/compiler/gcc-arm-none-eabi-4_9-2015q3/bin/../lib/gcc/arm-none-eabi/4.9.3/../../../../arm-none-eabi/lib/armv7e-m/fpu/libnosys.a(getpid.o)
 .debug_frame   0x0000000000008b28       0x20 /Applications/ti/ccsv6/tools/compiler/gcc-arm-none-eabi-4_9-2015q3/bin/../lib/gcc/arm-none-eabi/4.9.3/../../../../arm-none-eabi/lib/armv7e-m/fpu/libnosys.a(isatty.o)
 .debug_frame   0x0000000000008b48       0x20 /Applications/ti/ccsv6/tools/compiler/gcc-arm-none-eabi-4_9-2015q3/bin/../lib/gcc/arm-none-eabi/4.9.3/../../../../arm-none-eabi/lib/armv7e-m/fpu/libnosys.a(kill.o)
 .debug_frame   0x0000000000008b68       0x20 /Applications/ti/ccsv6/tools/compiler/gcc-arm-none-eabi-4_9-2015q3/bin/../lib/gcc/arm-none-eabi/4.9.3/../../../../arm-none-eabi/lib/armv7e-m/fpu/libnosys.a(lseek.o)
 .debug_frame   0x0000000000008b88       0x20 /Applications/ti/ccsv6/tools/compiler/gcc-arm-none-eabi-4_9-2015q3/bin/../lib/gcc/arm-none-eabi/4.9.3/../../../../arm-none-eabi/lib/armv7e-m/fpu/libnosys.a(read.o)
 .debug_frame   0x0000000000008ba8       0x20 /Applications/ti/ccsv6/tools/compiler/gcc-arm-none-eabi-4_9-2015q3/bin/../lib/gcc/arm-none-eabi/4.9.3/../../../../arm-none-eabi/lib/armv7e-m/fpu/libnosys.a(sbrk.o)
 .debug_frame   0x0000000000008bc8       0x20 /Applications/ti/ccsv6/tools/compiler/gcc-arm-none-eabi-4_9-2015q3/bin/../lib/gcc/arm-none-eabi/4.9.3/../../../../arm-none-eabi/lib/armv7e-m/fpu/libnosys.a(_exit.o)
 .debug_frame   0x0000000000008be8       0x28 /Applications/ti/ccsv6/tools/compiler/gcc-arm-none-eabi-4_9-2015q3/bin/../lib/gcc/arm-none-eabi/4.9.3/armv7e-m/fpu/libgcc.a(_aeabi_uldivmod.o)
 .debug_frame   0x0000000000008c10       0x50 /Applications/ti/ccsv6/tools/compiler/gcc-arm-none-eabi-4_9-2015q3/bin/../lib/gcc/arm-none-eabi/4.9.3/armv7e-m/fpu/libgcc.a(bpabi.o)
 .debug_frame   0x0000000000008c60       0x34 /Applications/ti/ccsv6/tools/compiler/gcc-arm-none-eabi-4_9-2015q3/bin/../lib/gcc/arm-none-eabi/4.9.3/armv7e-m/fpu/libgcc.a(_divdi3.o)
 .debug_frame   0x0000000000008c94       0x30 /Applications/ti/ccsv6/tools/compiler/gcc-arm-none-eabi-4_9-2015q3/bin/../lib/gcc/arm-none-eabi/4.9.3/armv7e-m/fpu/libgcc.a(_udivdi3.o)

.debug_pubnames
                0x0000000000000000     0x14aa
 .debug_pubnames
                0x0000000000000000       0x27 /Users/snowyang/workspace/MSP432_DriverLib_3_10_00_09/driverlib/MSP432P4xx/ccs/msp432p4xx_driverlib.lib(gpio.o)
 .debug_pubnames
                0x0000000000000027       0x28 /Users/snowyang/workspace/MSP432_DriverLib_3_10_00_09/driverlib/MSP432P4xx/ccs/msp432p4xx_driverlib.lib(gpio.o)
 .debug_pubnames
                0x000000000000004f       0x2f /Users/snowyang/workspace/MSP432_DriverLib_3_10_00_09/driverlib/MSP432P4xx/ccs/msp432p4xx_driverlib.lib(gpio.o)
 .debug_pubnames
                0x000000000000007e       0x2d /Users/snowyang/workspace/MSP432_DriverLib_3_10_00_09/driverlib/MSP432P4xx/ccs/msp432p4xx_driverlib.lib(gpio.o)
 .debug_pubnames
                0x00000000000000ab       0x2d /Users/snowyang/workspace/MSP432_DriverLib_3_10_00_09/driverlib/MSP432P4xx/ccs/msp432p4xx_driverlib.lib(gpio.o)
 .debug_pubnames
                0x00000000000000d8       0x2e /Users/snowyang/workspace/MSP432_DriverLib_3_10_00_09/driverlib/MSP432P4xx/ccs/msp432p4xx_driverlib.lib(gpio.o)
 .debug_pubnames
                0x0000000000000106       0x2f /Users/snowyang/workspace/MSP432_DriverLib_3_10_00_09/driverlib/MSP432P4xx/ccs/msp432p4xx_driverlib.lib(gpio.o)
 .debug_pubnames
                0x0000000000000135       0x30 /Users/snowyang/workspace/MSP432_DriverLib_3_10_00_09/driverlib/MSP432P4xx/ccs/msp432p4xx_driverlib.lib(gpio.o)
 .debug_pubnames
                0x0000000000000165       0x42 /Users/snowyang/workspace/MSP432_DriverLib_3_10_00_09/driverlib/MSP432P4xx/ccs/msp432p4xx_driverlib.lib(gpio.o)
 .debug_pubnames
                0x00000000000001a7       0x41 /Users/snowyang/workspace/MSP432_DriverLib_3_10_00_09/driverlib/MSP432P4xx/ccs/msp432p4xx_driverlib.lib(gpio.o)
 .debug_pubnames
                0x00000000000001e8       0x2a /Users/snowyang/workspace/MSP432_DriverLib_3_10_00_09/driverlib/MSP432P4xx/ccs/msp432p4xx_driverlib.lib(gpio.o)
 .debug_pubnames
                0x0000000000000212       0x3b /Users/snowyang/workspace/MSP432_DriverLib_3_10_00_09/driverlib/MSP432P4xx/ccs/msp432p4xx_driverlib.lib(gpio.o)
 .debug_pubnames
                0x000000000000024d       0x3d /Users/snowyang/workspace/MSP432_DriverLib_3_10_00_09/driverlib/MSP432P4xx/ccs/msp432p4xx_driverlib.lib(gpio.o)
 .debug_pubnames
                0x000000000000028a       0x29 /Users/snowyang/workspace/MSP432_DriverLib_3_10_00_09/driverlib/MSP432P4xx/ccs/msp432p4xx_driverlib.lib(gpio.o)
 .debug_pubnames
                0x00000000000002b3       0x2d /Users/snowyang/workspace/MSP432_DriverLib_3_10_00_09/driverlib/MSP432P4xx/ccs/msp432p4xx_driverlib.lib(gpio.o)
 .debug_pubnames
                0x00000000000002e0       0x2f /Users/snowyang/workspace/MSP432_DriverLib_3_10_00_09/driverlib/MSP432P4xx/ccs/msp432p4xx_driverlib.lib(gpio.o)
 .debug_pubnames
                0x000000000000030f       0x2e /Users/snowyang/workspace/MSP432_DriverLib_3_10_00_09/driverlib/MSP432P4xx/ccs/msp432p4xx_driverlib.lib(gpio.o)
 .debug_pubnames
                0x000000000000033d       0x2c /Users/snowyang/workspace/MSP432_DriverLib_3_10_00_09/driverlib/MSP432P4xx/ccs/msp432p4xx_driverlib.lib(gpio.o)
 .debug_pubnames
                0x0000000000000369       0x35 /Users/snowyang/workspace/MSP432_DriverLib_3_10_00_09/driverlib/MSP432P4xx/ccs/msp432p4xx_driverlib.lib(gpio.o)
 .debug_pubnames
                0x000000000000039e       0x2b /Users/snowyang/workspace/MSP432_DriverLib_3_10_00_09/driverlib/MSP432P4xx/ccs/msp432p4xx_driverlib.lib(gpio.o)
 .debug_pubnames
                0x00000000000003c9       0x2c /Users/snowyang/workspace/MSP432_DriverLib_3_10_00_09/driverlib/MSP432P4xx/ccs/msp432p4xx_driverlib.lib(gpio.o)
 .debug_pubnames
                0x00000000000003f5       0x2e /Users/snowyang/workspace/MSP432_DriverLib_3_10_00_09/driverlib/MSP432P4xx/ccs/msp432p4xx_driverlib.lib(gpio.o)
 .debug_pubnames
                0x0000000000000423       0x2e /Users/snowyang/workspace/MSP432_DriverLib_3_10_00_09/driverlib/MSP432P4xx/ccs/msp432p4xx_driverlib.lib(i2c.o)
 .debug_pubnames
                0x0000000000000451       0x27 /Users/snowyang/workspace/MSP432_DriverLib_3_10_00_09/driverlib/MSP432P4xx/ccs/msp432p4xx_driverlib.lib(i2c.o)
 .debug_pubnames
                0x0000000000000478       0x27 /Users/snowyang/workspace/MSP432_DriverLib_3_10_00_09/driverlib/MSP432P4xx/ccs/msp432p4xx_driverlib.lib(i2c.o)
 .debug_pubnames
                0x000000000000049f       0x27 /Users/snowyang/workspace/MSP432_DriverLib_3_10_00_09/driverlib/MSP432P4xx/ccs/msp432p4xx_driverlib.lib(i2c.o)
 .debug_pubnames
                0x00000000000004c6       0x2a /Users/snowyang/workspace/MSP432_DriverLib_3_10_00_09/driverlib/MSP432P4xx/ccs/msp432p4xx_driverlib.lib(i2c.o)
 .debug_pubnames
                0x00000000000004f0       0x22 /Users/snowyang/workspace/MSP432_DriverLib_3_10_00_09/driverlib/MSP432P4xx/ccs/msp432p4xx_driverlib.lib(i2c.o)
 .debug_pubnames
                0x0000000000000512       0x2c /Users/snowyang/workspace/MSP432_DriverLib_3_10_00_09/driverlib/MSP432P4xx/ccs/msp432p4xx_driverlib.lib(i2c.o)
 .debug_pubnames
                0x000000000000053e       0x2a /Users/snowyang/workspace/MSP432_DriverLib_3_10_00_09/driverlib/MSP432P4xx/ccs/msp432p4xx_driverlib.lib(i2c.o)
 .debug_pubnames
                0x0000000000000568       0x3a /Users/snowyang/workspace/MSP432_DriverLib_3_10_00_09/driverlib/MSP432P4xx/ccs/msp432p4xx_driverlib.lib(i2c.o)
 .debug_pubnames
                0x00000000000005a2       0x2f /Users/snowyang/workspace/MSP432_DriverLib_3_10_00_09/driverlib/MSP432P4xx/ccs/msp432p4xx_driverlib.lib(i2c.o)
 .debug_pubnames
                0x00000000000005d1       0x3d /Users/snowyang/workspace/MSP432_DriverLib_3_10_00_09/driverlib/MSP432P4xx/ccs/msp432p4xx_driverlib.lib(i2c.o)
 .debug_pubnames
                0x000000000000060e       0x32 /Users/snowyang/workspace/MSP432_DriverLib_3_10_00_09/driverlib/MSP432P4xx/ccs/msp432p4xx_driverlib.lib(i2c.o)
 .debug_pubnames
                0x0000000000000640       0x3e /Users/snowyang/workspace/MSP432_DriverLib_3_10_00_09/driverlib/MSP432P4xx/ccs/msp432p4xx_driverlib.lib(i2c.o)
 .debug_pubnames
                0x000000000000067e       0x33 /Users/snowyang/workspace/MSP432_DriverLib_3_10_00_09/driverlib/MSP432P4xx/ccs/msp432p4xx_driverlib.lib(i2c.o)
 .debug_pubnames
                0x00000000000006b1       0x3d /Users/snowyang/workspace/MSP432_DriverLib_3_10_00_09/driverlib/MSP432P4xx/ccs/msp432p4xx_driverlib.lib(i2c.o)
 .debug_pubnames
                0x00000000000006ee       0x32 /Users/snowyang/workspace/MSP432_DriverLib_3_10_00_09/driverlib/MSP432P4xx/ccs/msp432p4xx_driverlib.lib(i2c.o)
 .debug_pubnames
                0x0000000000000720       0x3f /Users/snowyang/workspace/MSP432_DriverLib_3_10_00_09/driverlib/MSP432P4xx/ccs/msp432p4xx_driverlib.lib(i2c.o)
 .debug_pubnames
                0x000000000000075f       0x34 /Users/snowyang/workspace/MSP432_DriverLib_3_10_00_09/driverlib/MSP432P4xx/ccs/msp432p4xx_driverlib.lib(i2c.o)
 .debug_pubnames
                0x0000000000000793       0x2d /Users/snowyang/workspace/MSP432_DriverLib_3_10_00_09/driverlib/MSP432P4xx/ccs/msp432p4xx_driverlib.lib(i2c.o)
 .debug_pubnames
                0x00000000000007c0       0x32 /Users/snowyang/workspace/MSP432_DriverLib_3_10_00_09/driverlib/MSP432P4xx/ccs/msp432p4xx_driverlib.lib(i2c.o)
 .debug_pubnames
                0x00000000000007f2       0x2e /Users/snowyang/workspace/MSP432_DriverLib_3_10_00_09/driverlib/MSP432P4xx/ccs/msp432p4xx_driverlib.lib(i2c.o)
 .debug_pubnames
                0x0000000000000820       0x35 /Users/snowyang/workspace/MSP432_DriverLib_3_10_00_09/driverlib/MSP432P4xx/ccs/msp432p4xx_driverlib.lib(i2c.o)
 .debug_pubnames
                0x0000000000000855       0x35 /Users/snowyang/workspace/MSP432_DriverLib_3_10_00_09/driverlib/MSP432P4xx/ccs/msp432p4xx_driverlib.lib(i2c.o)
 .debug_pubnames
                0x000000000000088a       0x42 /Users/snowyang/workspace/MSP432_DriverLib_3_10_00_09/driverlib/MSP432P4xx/ccs/msp432p4xx_driverlib.lib(i2c.o)
 .debug_pubnames
                0x00000000000008cc       0x37 /Users/snowyang/workspace/MSP432_DriverLib_3_10_00_09/driverlib/MSP432P4xx/ccs/msp432p4xx_driverlib.lib(i2c.o)
 .debug_pubnames
                0x0000000000000903       0x2b /Users/snowyang/workspace/MSP432_DriverLib_3_10_00_09/driverlib/MSP432P4xx/ccs/msp432p4xx_driverlib.lib(i2c.o)
 .debug_pubnames
                0x000000000000092e       0x2c /Users/snowyang/workspace/MSP432_DriverLib_3_10_00_09/driverlib/MSP432P4xx/ccs/msp432p4xx_driverlib.lib(i2c.o)
 .debug_pubnames
                0x000000000000095a       0x24 /Users/snowyang/workspace/MSP432_DriverLib_3_10_00_09/driverlib/MSP432P4xx/ccs/msp432p4xx_driverlib.lib(i2c.o)
 .debug_pubnames
                0x000000000000097e       0x24 /Users/snowyang/workspace/MSP432_DriverLib_3_10_00_09/driverlib/MSP432P4xx/ccs/msp432p4xx_driverlib.lib(i2c.o)
 .debug_pubnames
                0x00000000000009a2       0x25 /Users/snowyang/workspace/MSP432_DriverLib_3_10_00_09/driverlib/MSP432P4xx/ccs/msp432p4xx_driverlib.lib(i2c.o)
 .debug_pubnames
                0x00000000000009c7       0x39 /Users/snowyang/workspace/MSP432_DriverLib_3_10_00_09/driverlib/MSP432P4xx/ccs/msp432p4xx_driverlib.lib(i2c.o)
 .debug_pubnames
                0x0000000000000a00       0x38 /Users/snowyang/workspace/MSP432_DriverLib_3_10_00_09/driverlib/MSP432P4xx/ccs/msp432p4xx_driverlib.lib(i2c.o)
 .debug_pubnames
                0x0000000000000a38       0x22 /Users/snowyang/workspace/MSP432_DriverLib_3_10_00_09/driverlib/MSP432P4xx/ccs/msp432p4xx_driverlib.lib(i2c.o)
 .debug_pubnames
                0x0000000000000a5a       0x2d /Users/snowyang/workspace/MSP432_DriverLib_3_10_00_09/driverlib/MSP432P4xx/ccs/msp432p4xx_driverlib.lib(i2c.o)
 .debug_pubnames
                0x0000000000000a87       0x34 /Users/snowyang/workspace/MSP432_DriverLib_3_10_00_09/driverlib/MSP432P4xx/ccs/msp432p4xx_driverlib.lib(i2c.o)
 .debug_pubnames
                0x0000000000000abb       0x30 /Users/snowyang/workspace/MSP432_DriverLib_3_10_00_09/driverlib/MSP432P4xx/ccs/msp432p4xx_driverlib.lib(i2c.o)
 .debug_pubnames
                0x0000000000000aeb       0x27 /Users/snowyang/workspace/MSP432_DriverLib_3_10_00_09/driverlib/MSP432P4xx/ccs/msp432p4xx_driverlib.lib(i2c.o)
 .debug_pubnames
                0x0000000000000b12       0x2a /Users/snowyang/workspace/MSP432_DriverLib_3_10_00_09/driverlib/MSP432P4xx/ccs/msp432p4xx_driverlib.lib(i2c.o)
 .debug_pubnames
                0x0000000000000b3c       0x31 /Users/snowyang/workspace/MSP432_DriverLib_3_10_00_09/driverlib/MSP432P4xx/ccs/msp432p4xx_driverlib.lib(i2c.o)
 .debug_pubnames
                0x0000000000000b6d       0x28 /Users/snowyang/workspace/MSP432_DriverLib_3_10_00_09/driverlib/MSP432P4xx/ccs/msp432p4xx_driverlib.lib(i2c.o)
 .debug_pubnames
                0x0000000000000b95       0x2b /Users/snowyang/workspace/MSP432_DriverLib_3_10_00_09/driverlib/MSP432P4xx/ccs/msp432p4xx_driverlib.lib(i2c.o)
 .debug_pubnames
                0x0000000000000bc0       0x2d /Users/snowyang/workspace/MSP432_DriverLib_3_10_00_09/driverlib/MSP432P4xx/ccs/msp432p4xx_driverlib.lib(i2c.o)
 .debug_pubnames
                0x0000000000000bed       0x6b /Users/snowyang/workspace/MSP432_DriverLib_3_10_00_09/driverlib/MSP432P4xx/ccs/msp432p4xx_driverlib.lib(interrupt.o)
 .debug_pubnames
                0x0000000000000c58       0x20 /Users/snowyang/workspace/MSP432_DriverLib_3_10_00_09/driverlib/MSP432P4xx/ccs/msp432p4xx_driverlib.lib(interrupt.o)
 .debug_pubnames
                0x0000000000000c78       0x26 /Users/snowyang/workspace/MSP432_DriverLib_3_10_00_09/driverlib/MSP432P4xx/ccs/msp432p4xx_driverlib.lib(interrupt.o)
 .debug_pubnames
                0x0000000000000c9e       0x34 /Users/snowyang/workspace/MSP432_DriverLib_3_10_00_09/driverlib/MSP432P4xx/ccs/msp432p4xx_driverlib.lib(interrupt.o)
 .debug_pubnames
                0x0000000000000cd2       0x30 /Users/snowyang/workspace/MSP432_DriverLib_3_10_00_09/driverlib/MSP432P4xx/ccs/msp432p4xx_driverlib.lib(interrupt.o)
 .debug_pubnames
                0x0000000000000d02       0x36 /Users/snowyang/workspace/MSP432_DriverLib_3_10_00_09/driverlib/MSP432P4xx/ccs/msp432p4xx_driverlib.lib(interrupt.o)
 .debug_pubnames
                0x0000000000000d38       0x30 /Users/snowyang/workspace/MSP432_DriverLib_3_10_00_09/driverlib/MSP432P4xx/ccs/msp432p4xx_driverlib.lib(interrupt.o)
 .debug_pubnames
                0x0000000000000d68       0x34 /Users/snowyang/workspace/MSP432_DriverLib_3_10_00_09/driverlib/MSP432P4xx/ccs/msp432p4xx_driverlib.lib(interrupt.o)
 .debug_pubnames
                0x0000000000000d9c       0x2c /Users/snowyang/workspace/MSP432_DriverLib_3_10_00_09/driverlib/MSP432P4xx/ccs/msp432p4xx_driverlib.lib(interrupt.o)
 .debug_pubnames
                0x0000000000000dc8       0x32 /Users/snowyang/workspace/MSP432_DriverLib_3_10_00_09/driverlib/MSP432P4xx/ccs/msp432p4xx_driverlib.lib(interrupt.o)
 .debug_pubnames
                0x0000000000000dfa       0x2e /Users/snowyang/workspace/MSP432_DriverLib_3_10_00_09/driverlib/MSP432P4xx/ccs/msp432p4xx_driverlib.lib(interrupt.o)
 .debug_pubnames
                0x0000000000000e28       0x2a /Users/snowyang/workspace/MSP432_DriverLib_3_10_00_09/driverlib/MSP432P4xx/ccs/msp432p4xx_driverlib.lib(interrupt.o)
 .debug_pubnames
                0x0000000000000e52       0x36 /Users/snowyang/workspace/MSP432_DriverLib_3_10_00_09/driverlib/MSP432P4xx/ccs/msp432p4xx_driverlib.lib(interrupt.o)
 .debug_pubnames
                0x0000000000000e88       0x30 /Users/snowyang/workspace/MSP432_DriverLib_3_10_00_09/driverlib/MSP432P4xx/ccs/msp432p4xx_driverlib.lib(interrupt.o)
 .debug_pubnames
                0x0000000000000eb8       0x34 /Users/snowyang/workspace/MSP432_DriverLib_3_10_00_09/driverlib/MSP432P4xx/ccs/msp432p4xx_driverlib.lib(interrupt.o)
 .debug_pubnames
                0x0000000000000eec       0x2c /Users/snowyang/workspace/MSP432_DriverLib_3_10_00_09/driverlib/MSP432P4xx/ccs/msp432p4xx_driverlib.lib(interrupt.o)
 .debug_pubnames
                0x0000000000000f18       0x35 /Users/snowyang/workspace/MSP432_DriverLib_3_10_00_09/driverlib/MSP432P4xx/ccs/msp432p4xx_driverlib.lib(interrupt.o)
 .debug_pubnames
                0x0000000000000f4d       0x2d /Users/snowyang/workspace/MSP432_DriverLib_3_10_00_09/driverlib/MSP432P4xx/ccs/msp432p4xx_driverlib.lib(interrupt.o)
 .debug_pubnames
                0x0000000000000f7a       0x30 /Users/snowyang/workspace/MSP432_DriverLib_3_10_00_09/driverlib/MSP432P4xx/ccs/msp432p4xx_driverlib.lib(interrupt.o)
 .debug_pubnames
                0x0000000000000faa       0x36 /Users/snowyang/workspace/MSP432_DriverLib_3_10_00_09/driverlib/MSP432P4xx/ccs/msp432p4xx_driverlib.lib(interrupt.o)
 .debug_pubnames
                0x0000000000000fe0       0x2e /Users/snowyang/workspace/MSP432_DriverLib_3_10_00_09/driverlib/MSP432P4xx/ccs/msp432p4xx_driverlib.lib(interrupt.o)
 .debug_pubnames
                0x000000000000100e       0x31 /Users/snowyang/workspace/MSP432_DriverLib_3_10_00_09/driverlib/MSP432P4xx/ccs/msp432p4xx_driverlib.lib(interrupt.o)
 .debug_pubnames
                0x000000000000103f       0x28 /Users/snowyang/workspace/MSP432_DriverLib_3_10_00_09/driverlib/MSP432P4xx/ccs/msp432p4xx_driverlib.lib(interrupt.o)
 .debug_pubnames
                0x0000000000001067       0x2f /Users/snowyang/workspace/MSP432_DriverLib_3_10_00_09/driverlib/MSP432P4xx/ccs/msp432p4xx_driverlib.lib(uart.o)
 .debug_pubnames
                0x0000000000001096       0x28 /Users/snowyang/workspace/MSP432_DriverLib_3_10_00_09/driverlib/MSP432P4xx/ccs/msp432p4xx_driverlib.lib(uart.o)
 .debug_pubnames
                0x00000000000010be       0x29 /Users/snowyang/workspace/MSP432_DriverLib_3_10_00_09/driverlib/MSP432P4xx/ccs/msp432p4xx_driverlib.lib(uart.o)
 .debug_pubnames
                0x00000000000010e7       0x2b /Users/snowyang/workspace/MSP432_DriverLib_3_10_00_09/driverlib/MSP432P4xx/ccs/msp432p4xx_driverlib.lib(uart.o)
 .debug_pubnames
                0x0000000000001112       0x26 /Users/snowyang/workspace/MSP432_DriverLib_3_10_00_09/driverlib/MSP432P4xx/ccs/msp432p4xx_driverlib.lib(uart.o)
 .debug_pubnames
                0x0000000000001138       0x2e /Users/snowyang/workspace/MSP432_DriverLib_3_10_00_09/driverlib/MSP432P4xx/ccs/msp432p4xx_driverlib.lib(uart.o)
 .debug_pubnames
                0x0000000000001166       0x28 /Users/snowyang/workspace/MSP432_DriverLib_3_10_00_09/driverlib/MSP432P4xx/ccs/msp432p4xx_driverlib.lib(uart.o)
 .debug_pubnames
                0x000000000000118e       0x2d /Users/snowyang/workspace/MSP432_DriverLib_3_10_00_09/driverlib/MSP432P4xx/ccs/msp432p4xx_driverlib.lib(uart.o)
 .debug_pubnames
                0x00000000000011bb       0x27 /Users/snowyang/workspace/MSP432_DriverLib_3_10_00_09/driverlib/MSP432P4xx/ccs/msp432p4xx_driverlib.lib(uart.o)
 .debug_pubnames
                0x00000000000011e2       0x2c /Users/snowyang/workspace/MSP432_DriverLib_3_10_00_09/driverlib/MSP432P4xx/ccs/msp432p4xx_driverlib.lib(uart.o)
 .debug_pubnames
                0x000000000000120e       0x26 /Users/snowyang/workspace/MSP432_DriverLib_3_10_00_09/driverlib/MSP432P4xx/ccs/msp432p4xx_driverlib.lib(uart.o)
 .debug_pubnames
                0x0000000000001234       0x3a /Users/snowyang/workspace/MSP432_DriverLib_3_10_00_09/driverlib/MSP432P4xx/ccs/msp432p4xx_driverlib.lib(uart.o)
 .debug_pubnames
                0x000000000000126e       0x39 /Users/snowyang/workspace/MSP432_DriverLib_3_10_00_09/driverlib/MSP432P4xx/ccs/msp432p4xx_driverlib.lib(uart.o)
 .debug_pubnames
                0x00000000000012a7       0x2e /Users/snowyang/workspace/MSP432_DriverLib_3_10_00_09/driverlib/MSP432P4xx/ccs/msp432p4xx_driverlib.lib(uart.o)
 .debug_pubnames
                0x00000000000012d5       0x35 /Users/snowyang/workspace/MSP432_DriverLib_3_10_00_09/driverlib/MSP432P4xx/ccs/msp432p4xx_driverlib.lib(uart.o)
 .debug_pubnames
                0x000000000000130a       0x28 /Users/snowyang/workspace/MSP432_DriverLib_3_10_00_09/driverlib/MSP432P4xx/ccs/msp432p4xx_driverlib.lib(uart.o)
 .debug_pubnames
                0x0000000000001332       0x2b /Users/snowyang/workspace/MSP432_DriverLib_3_10_00_09/driverlib/MSP432P4xx/ccs/msp432p4xx_driverlib.lib(uart.o)
 .debug_pubnames
                0x000000000000135d       0x29 /Users/snowyang/workspace/MSP432_DriverLib_3_10_00_09/driverlib/MSP432P4xx/ccs/msp432p4xx_driverlib.lib(uart.o)
 .debug_pubnames
                0x0000000000001386       0x2c /Users/snowyang/workspace/MSP432_DriverLib_3_10_00_09/driverlib/MSP432P4xx/ccs/msp432p4xx_driverlib.lib(uart.o)
 .debug_pubnames
                0x00000000000013b2       0x2e /Users/snowyang/workspace/MSP432_DriverLib_3_10_00_09/driverlib/MSP432P4xx/ccs/msp432p4xx_driverlib.lib(uart.o)
 .debug_pubnames
                0x00000000000013e0       0x1e /Users/snowyang/workspace/MSP432_DriverLib_3_10_00_09/driverlib/MSP432P4xx/ccs/msp432p4xx_driverlib.lib(cpu.o)
 .debug_pubnames
                0x00000000000013fe       0x22 /Users/snowyang/workspace/MSP432_DriverLib_3_10_00_09/driverlib/MSP432P4xx/ccs/msp432p4xx_driverlib.lib(cpu.o)
 .debug_pubnames
                0x0000000000001420       0x20 /Users/snowyang/workspace/MSP432_DriverLib_3_10_00_09/driverlib/MSP432P4xx/ccs/msp432p4xx_driverlib.lib(cpu.o)
 .debug_pubnames
                0x0000000000001440       0x20 /Users/snowyang/workspace/MSP432_DriverLib_3_10_00_09/driverlib/MSP432P4xx/ccs/msp432p4xx_driverlib.lib(cpu.o)
 .debug_pubnames
                0x0000000000001460       0x25 /Users/snowyang/workspace/MSP432_DriverLib_3_10_00_09/driverlib/MSP432P4xx/ccs/msp432p4xx_driverlib.lib(cpu.o)
 .debug_pubnames
                0x0000000000001485       0x25 /Users/snowyang/workspace/MSP432_DriverLib_3_10_00_09/driverlib/MSP432P4xx/ccs/msp432p4xx_driverlib.lib(cpu.o)

.debug_pubtypes
                0x0000000000000000      0x906
 .debug_pubtypes
                0x0000000000000000       0xdd /Users/snowyang/workspace/MSP432_DriverLib_3_10_00_09/driverlib/MSP432P4xx/ccs/msp432p4xx_driverlib.lib(gpio.o)
 .debug_pubtypes
                0x00000000000000dd      0x27f /Users/snowyang/workspace/MSP432_DriverLib_3_10_00_09/driverlib/MSP432P4xx/ccs/msp432p4xx_driverlib.lib(gpio.o)
 .debug_pubtypes
                0x000000000000035c       0xed /Users/snowyang/workspace/MSP432_DriverLib_3_10_00_09/driverlib/MSP432P4xx/ccs/msp432p4xx_driverlib.lib(gpio.o)
 .debug_pubtypes
                0x0000000000000449      0x1c6 /Users/snowyang/workspace/MSP432_DriverLib_3_10_00_09/driverlib/MSP432P4xx/ccs/msp432p4xx_driverlib.lib(gpio.o)
 .debug_pubtypes
                0x000000000000060f       0x92 /Users/snowyang/workspace/MSP432_DriverLib_3_10_00_09/driverlib/MSP432P4xx/ccs/msp432p4xx_driverlib.lib(gpio.o)
 .debug_pubtypes
                0x00000000000006a1       0x28 /Users/snowyang/workspace/MSP432_DriverLib_3_10_00_09/driverlib/MSP432P4xx/ccs/msp432p4xx_driverlib.lib(gpio.o)
 .debug_pubtypes
                0x00000000000006c9       0x2c /Users/snowyang/workspace/MSP432_DriverLib_3_10_00_09/driverlib/MSP432P4xx/ccs/msp432p4xx_driverlib.lib(gpio.o)
 .debug_pubtypes
                0x00000000000006f5       0x2d /Users/snowyang/workspace/MSP432_DriverLib_3_10_00_09/driverlib/MSP432P4xx/ccs/msp432p4xx_driverlib.lib(i2c.o)
 .debug_pubtypes
                0x0000000000000722       0xff /Users/snowyang/workspace/MSP432_DriverLib_3_10_00_09/driverlib/MSP432P4xx/ccs/msp432p4xx_driverlib.lib(i2c.o)
 .debug_pubtypes
                0x0000000000000821       0x28 /Users/snowyang/workspace/MSP432_DriverLib_3_10_00_09/driverlib/MSP432P4xx/ccs/msp432p4xx_driverlib.lib(i2c.o)
 .debug_pubtypes
                0x0000000000000849       0x28 /Users/snowyang/workspace/MSP432_DriverLib_3_10_00_09/driverlib/MSP432P4xx/ccs/msp432p4xx_driverlib.lib(interrupt.o)
 .debug_pubtypes
                0x0000000000000871       0x28 /Users/snowyang/workspace/MSP432_DriverLib_3_10_00_09/driverlib/MSP432P4xx/ccs/msp432p4xx_driverlib.lib(uart.o)
 .debug_pubtypes
                0x0000000000000899       0x45 /Users/snowyang/workspace/MSP432_DriverLib_3_10_00_09/driverlib/MSP432P4xx/ccs/msp432p4xx_driverlib.lib(uart.o)
 .debug_pubtypes
                0x00000000000008de       0x28 /Users/snowyang/workspace/MSP432_DriverLib_3_10_00_09/driverlib/MSP432P4xx/ccs/msp432p4xx_driverlib.lib(cpu.o)

.stab           0x0000000000000000       0xb4
 .stab          0x0000000000000000       0x24 /Applications/ti/ccsv6/tools/compiler/gcc-arm-none-eabi-4_9-2015q3/bin/../lib/gcc/arm-none-eabi/4.9.3/../../../../arm-none-eabi/lib/armv7e-m/fpu/libnosys.a(close.o)
 .stab          0x0000000000000024       0x18 /Applications/ti/ccsv6/tools/compiler/gcc-arm-none-eabi-4_9-2015q3/bin/../lib/gcc/arm-none-eabi/4.9.3/../../../../arm-none-eabi/lib/armv7e-m/fpu/libnosys.a(fstat.o)
                                         0x24 (size before relaxing)
 .stab          0x000000000000003c       0x18 /Applications/ti/ccsv6/tools/compiler/gcc-arm-none-eabi-4_9-2015q3/bin/../lib/gcc/arm-none-eabi/4.9.3/../../../../arm-none-eabi/lib/armv7e-m/fpu/libnosys.a(getpid.o)
                                         0x24 (size before relaxing)
 .stab          0x0000000000000054       0x18 /Applications/ti/ccsv6/tools/compiler/gcc-arm-none-eabi-4_9-2015q3/bin/../lib/gcc/arm-none-eabi/4.9.3/../../../../arm-none-eabi/lib/armv7e-m/fpu/libnosys.a(isatty.o)
                                         0x24 (size before relaxing)
 .stab          0x000000000000006c       0x18 /Applications/ti/ccsv6/tools/compiler/gcc-arm-none-eabi-4_9-2015q3/bin/../lib/gcc/arm-none-eabi/4.9.3/../../../../arm-none-eabi/lib/armv7e-m/fpu/libnosys.a(kill.o)
                                         0x24 (size before relaxing)
 .stab          0x0000000000000084       0x18 /Applications/ti/ccsv6/tools/compiler/gcc-arm-none-eabi-4_9-2015q3/bin/../lib/gcc/arm-none-eabi/4.9.3/../../../../arm-none-eabi/lib/armv7e-m/fpu/libnosys.a(lseek.o)
                                         0x24 (size before relaxing)
 .stab          0x000000000000009c       0x18 /Applications/ti/ccsv6/tools/compiler/gcc-arm-none-eabi-4_9-2015q3/bin/../lib/gcc/arm-none-eabi/4.9.3/../../../../arm-none-eabi/lib/armv7e-m/fpu/libnosys.a(read.o)
                                         0x24 (size before relaxing)

.stabstr        0x0000000000000000      0x183
 .stabstr       0x0000000000000000      0x183 /Applications/ti/ccsv6/tools/compiler/gcc-arm-none-eabi-4_9-2015q3/bin/../lib/gcc/arm-none-eabi/4.9.3/../../../../arm-none-eabi/lib/armv7e-m/fpu/libnosys.a(close.o)
